   1               		.file	"keyboard.c"
   2               	__SP_H__ = 0x3e
   3               	__SP_L__ = 0x3d
   4               	__SREG__ = 0x3f
   5               	__tmp_reg__ = 0
   6               	__zero_reg__ = 1
   7               		.text
   8               	.Ltext0:
   9               		.cfi_sections	.debug_frame
  10               		.section	.text.matrix_setup,"ax",@progbits
  11               		.weak	matrix_setup
  13               	matrix_setup:
  14               	.LFB4:
  15               		.file 1 "./tmk_core/common/keyboard.c"
   1:./tmk_core/common/keyboard.c **** /*
   2:./tmk_core/common/keyboard.c **** Copyright 2011, 2012, 2013 Jun Wako <wakojun@gmail.com>
   3:./tmk_core/common/keyboard.c **** 
   4:./tmk_core/common/keyboard.c **** This program is free software: you can redistribute it and/or modify
   5:./tmk_core/common/keyboard.c **** it under the terms of the GNU General Public License as published by
   6:./tmk_core/common/keyboard.c **** the Free Software Foundation, either version 2 of the License, or
   7:./tmk_core/common/keyboard.c **** (at your option) any later version.
   8:./tmk_core/common/keyboard.c **** 
   9:./tmk_core/common/keyboard.c **** This program is distributed in the hope that it will be useful,
  10:./tmk_core/common/keyboard.c **** but WITHOUT ANY WARRANTY; without even the implied warranty of
  11:./tmk_core/common/keyboard.c **** MERCHANTABILITY or FITNESS FOR A PARTICULAR PURPOSE.  See the
  12:./tmk_core/common/keyboard.c **** GNU General Public License for more details.
  13:./tmk_core/common/keyboard.c **** 
  14:./tmk_core/common/keyboard.c **** You should have received a copy of the GNU General Public License
  15:./tmk_core/common/keyboard.c **** along with this program.  If not, see <http://www.gnu.org/licenses/>.
  16:./tmk_core/common/keyboard.c **** */
  17:./tmk_core/common/keyboard.c **** 
  18:./tmk_core/common/keyboard.c **** #include <stdint.h>
  19:./tmk_core/common/keyboard.c **** #include "keyboard.h"
  20:./tmk_core/common/keyboard.c **** #include "matrix.h"
  21:./tmk_core/common/keyboard.c **** #include "keymap.h"
  22:./tmk_core/common/keyboard.c **** #include "host.h"
  23:./tmk_core/common/keyboard.c **** #include "led.h"
  24:./tmk_core/common/keyboard.c **** #include "keycode.h"
  25:./tmk_core/common/keyboard.c **** #include "timer.h"
  26:./tmk_core/common/keyboard.c **** #include "print.h"
  27:./tmk_core/common/keyboard.c **** #include "debug.h"
  28:./tmk_core/common/keyboard.c **** #include "command.h"
  29:./tmk_core/common/keyboard.c **** #include "util.h"
  30:./tmk_core/common/keyboard.c **** #include "sendchar.h"
  31:./tmk_core/common/keyboard.c **** #include "eeconfig.h"
  32:./tmk_core/common/keyboard.c **** #include "backlight.h"
  33:./tmk_core/common/keyboard.c **** #include "action_layer.h"
  34:./tmk_core/common/keyboard.c **** #ifdef BOOTMAGIC_ENABLE
  35:./tmk_core/common/keyboard.c **** #   include "bootmagic.h"
  36:./tmk_core/common/keyboard.c **** #else
  37:./tmk_core/common/keyboard.c **** #   include "magic.h"
  38:./tmk_core/common/keyboard.c **** #endif
  39:./tmk_core/common/keyboard.c **** #ifdef MOUSEKEY_ENABLE
  40:./tmk_core/common/keyboard.c **** #   include "mousekey.h"
  41:./tmk_core/common/keyboard.c **** #endif
  42:./tmk_core/common/keyboard.c **** #ifdef PS2_MOUSE_ENABLE
  43:./tmk_core/common/keyboard.c **** #   include "ps2_mouse.h"
  44:./tmk_core/common/keyboard.c **** #endif
  45:./tmk_core/common/keyboard.c **** #ifdef SERIAL_MOUSE_ENABLE
  46:./tmk_core/common/keyboard.c **** #   include "serial_mouse.h"
  47:./tmk_core/common/keyboard.c **** #endif
  48:./tmk_core/common/keyboard.c **** #ifdef ADB_MOUSE_ENABLE
  49:./tmk_core/common/keyboard.c **** #   include "adb.h"
  50:./tmk_core/common/keyboard.c **** #endif
  51:./tmk_core/common/keyboard.c **** #ifdef RGBLIGHT_ENABLE
  52:./tmk_core/common/keyboard.c **** #   include "rgblight.h"
  53:./tmk_core/common/keyboard.c **** #endif
  54:./tmk_core/common/keyboard.c **** #ifdef STENO_ENABLE
  55:./tmk_core/common/keyboard.c **** #   include "process_steno.h"
  56:./tmk_core/common/keyboard.c **** #endif
  57:./tmk_core/common/keyboard.c **** #ifdef FAUXCLICKY_ENABLE
  58:./tmk_core/common/keyboard.c **** #   include "fauxclicky.h"
  59:./tmk_core/common/keyboard.c **** #endif
  60:./tmk_core/common/keyboard.c **** #ifdef SERIAL_LINK_ENABLE
  61:./tmk_core/common/keyboard.c **** #   include "serial_link/system/serial_link.h"
  62:./tmk_core/common/keyboard.c **** #endif
  63:./tmk_core/common/keyboard.c **** #ifdef VISUALIZER_ENABLE
  64:./tmk_core/common/keyboard.c **** #   include "visualizer/visualizer.h"
  65:./tmk_core/common/keyboard.c **** #endif
  66:./tmk_core/common/keyboard.c **** #ifdef POINTING_DEVICE_ENABLE
  67:./tmk_core/common/keyboard.c **** #   include "pointing_device.h"
  68:./tmk_core/common/keyboard.c **** #endif
  69:./tmk_core/common/keyboard.c **** #ifdef MIDI_ENABLE
  70:./tmk_core/common/keyboard.c **** #   include "process_midi.h"
  71:./tmk_core/common/keyboard.c **** #endif
  72:./tmk_core/common/keyboard.c **** 
  73:./tmk_core/common/keyboard.c **** #ifdef MATRIX_HAS_GHOST
  74:./tmk_core/common/keyboard.c **** extern const uint16_t keymaps[][MATRIX_ROWS][MATRIX_COLS];
  75:./tmk_core/common/keyboard.c **** static matrix_row_t get_real_keys(uint8_t row, matrix_row_t rowdata){
  76:./tmk_core/common/keyboard.c ****     matrix_row_t out = 0;
  77:./tmk_core/common/keyboard.c ****     for (uint8_t col = 0; col < MATRIX_COLS; col++) {
  78:./tmk_core/common/keyboard.c ****         //read each key in the row data and check if the keymap defines it as a real key
  79:./tmk_core/common/keyboard.c ****         if (pgm_read_byte(&keymaps[0][row][col]) && (rowdata & (1<<col))){
  80:./tmk_core/common/keyboard.c ****             //this creates new row data, if a key is defined in the keymap, it will be set here
  81:./tmk_core/common/keyboard.c ****             out |= 1<<col;
  82:./tmk_core/common/keyboard.c ****         }
  83:./tmk_core/common/keyboard.c ****     }
  84:./tmk_core/common/keyboard.c ****     return out;
  85:./tmk_core/common/keyboard.c **** }
  86:./tmk_core/common/keyboard.c **** 
  87:./tmk_core/common/keyboard.c **** static inline bool popcount_more_than_one(matrix_row_t rowdata)
  88:./tmk_core/common/keyboard.c **** {
  89:./tmk_core/common/keyboard.c ****     rowdata &= rowdata-1; //if there are less than two bits (keys) set, rowdata will become zero
  90:./tmk_core/common/keyboard.c ****     return rowdata;
  91:./tmk_core/common/keyboard.c **** }
  92:./tmk_core/common/keyboard.c **** 
  93:./tmk_core/common/keyboard.c **** static inline bool has_ghost_in_row(uint8_t row, matrix_row_t rowdata)
  94:./tmk_core/common/keyboard.c **** {
  95:./tmk_core/common/keyboard.c ****     /* No ghost exists when less than 2 keys are down on the row.
  96:./tmk_core/common/keyboard.c ****     If there are "active" blanks in the matrix, the key can't be pressed by the user,
  97:./tmk_core/common/keyboard.c ****     there is no doubt as to which keys are really being pressed.
  98:./tmk_core/common/keyboard.c ****     The ghosts will be ignored, they are KC_NO.   */
  99:./tmk_core/common/keyboard.c ****     rowdata = get_real_keys(row, rowdata);
 100:./tmk_core/common/keyboard.c ****     if ((popcount_more_than_one(rowdata)) == 0){
 101:./tmk_core/common/keyboard.c ****         return false;
 102:./tmk_core/common/keyboard.c ****     }
 103:./tmk_core/common/keyboard.c ****     /* Ghost occurs when the row shares a column line with other row,
 104:./tmk_core/common/keyboard.c ****     and two columns are read on each row. Blanks in the matrix don't matter,
 105:./tmk_core/common/keyboard.c ****     so they are filtered out.
 106:./tmk_core/common/keyboard.c ****     If there are two or more real keys pressed and they match columns with
 107:./tmk_core/common/keyboard.c ****     at least two of another row's real keys, the row will be ignored. Keep in mind,
 108:./tmk_core/common/keyboard.c ****     we are checking one row at a time, not all of them at once.
 109:./tmk_core/common/keyboard.c ****     */
 110:./tmk_core/common/keyboard.c ****     for (uint8_t i=0; i < MATRIX_ROWS; i++) {
 111:./tmk_core/common/keyboard.c ****         if (i != row && popcount_more_than_one(get_real_keys(i, matrix_get_row(i)) & rowdata)){
 112:./tmk_core/common/keyboard.c ****             return true;
 113:./tmk_core/common/keyboard.c ****         }
 114:./tmk_core/common/keyboard.c ****     }
 115:./tmk_core/common/keyboard.c ****     return false;
 116:./tmk_core/common/keyboard.c **** }
 117:./tmk_core/common/keyboard.c **** 
 118:./tmk_core/common/keyboard.c **** #endif
 119:./tmk_core/common/keyboard.c **** 
 120:./tmk_core/common/keyboard.c **** /** \brief matrix_setup
 121:./tmk_core/common/keyboard.c ****  *
 122:./tmk_core/common/keyboard.c ****  * FIXME: needs doc
 123:./tmk_core/common/keyboard.c ****  */
 124:./tmk_core/common/keyboard.c **** __attribute__ ((weak))
 125:./tmk_core/common/keyboard.c **** void matrix_setup(void) {
  16               		.loc 1 125 0
  17               		.cfi_startproc
  18               	/* prologue: function */
  19               	/* frame size = 0 */
  20               	/* stack size = 0 */
  21               	.L__stack_usage = 0
  22               	/* epilogue start */
 126:./tmk_core/common/keyboard.c **** }
  23               		.loc 1 126 0
  24 0000 0895      		ret
  25               		.cfi_endproc
  26               	.LFE4:
  28               		.section	.text.keyboard_setup,"ax",@progbits
  29               	.global	keyboard_setup
  31               	keyboard_setup:
  32               	.LFB5:
 127:./tmk_core/common/keyboard.c **** 
 128:./tmk_core/common/keyboard.c **** /** \brief keyboard_setup
 129:./tmk_core/common/keyboard.c ****  *
 130:./tmk_core/common/keyboard.c ****  * FIXME: needs doc
 131:./tmk_core/common/keyboard.c ****  */
 132:./tmk_core/common/keyboard.c **** void keyboard_setup(void) {
  33               		.loc 1 132 0
  34               		.cfi_startproc
  35               	/* prologue: function */
  36               	/* frame size = 0 */
  37               	/* stack size = 0 */
  38               	.L__stack_usage = 0
 133:./tmk_core/common/keyboard.c ****     matrix_setup();
  39               		.loc 1 133 0
  40 0000 0C94 0000 		jmp matrix_setup
  41               	.LVL0:
  42               		.cfi_endproc
  43               	.LFE5:
  45               		.section	.text.is_keyboard_master,"ax",@progbits
  46               		.weak	is_keyboard_master
  48               	is_keyboard_master:
  49               	.LFB6:
 134:./tmk_core/common/keyboard.c **** }
 135:./tmk_core/common/keyboard.c **** 
 136:./tmk_core/common/keyboard.c **** /** \brief is_keyboard_master
 137:./tmk_core/common/keyboard.c ****  *
 138:./tmk_core/common/keyboard.c ****  * FIXME: needs doc
 139:./tmk_core/common/keyboard.c ****  */
 140:./tmk_core/common/keyboard.c **** __attribute__((weak))
 141:./tmk_core/common/keyboard.c **** bool is_keyboard_master(void) {
  50               		.loc 1 141 0
  51               		.cfi_startproc
  52               	/* prologue: function */
  53               	/* frame size = 0 */
  54               	/* stack size = 0 */
  55               	.L__stack_usage = 0
 142:./tmk_core/common/keyboard.c ****     return true;
 143:./tmk_core/common/keyboard.c **** }
  56               		.loc 1 143 0
  57 0000 81E0      		ldi r24,lo8(1)
  58               	/* epilogue start */
  59 0002 0895      		ret
  60               		.cfi_endproc
  61               	.LFE6:
  63               		.section	.text.keyboard_init,"ax",@progbits
  64               	.global	keyboard_init
  66               	keyboard_init:
  67               	.LFB7:
 144:./tmk_core/common/keyboard.c **** 
 145:./tmk_core/common/keyboard.c **** /** \brief keyboard_init
 146:./tmk_core/common/keyboard.c ****  *
 147:./tmk_core/common/keyboard.c ****  * FIXME: needs doc
 148:./tmk_core/common/keyboard.c ****  */
 149:./tmk_core/common/keyboard.c **** void keyboard_init(void) {
  68               		.loc 1 149 0
  69               		.cfi_startproc
  70               	/* prologue: function */
  71               	/* frame size = 0 */
  72               	/* stack size = 0 */
  73               	.L__stack_usage = 0
 150:./tmk_core/common/keyboard.c ****     timer_init();
  74               		.loc 1 150 0
  75 0000 0E94 0000 		call timer_init
  76               	.LVL1:
 151:./tmk_core/common/keyboard.c ****     matrix_init();
  77               		.loc 1 151 0
  78 0004 0E94 0000 		call matrix_init
  79               	.LVL2:
 152:./tmk_core/common/keyboard.c **** #ifdef PS2_MOUSE_ENABLE
 153:./tmk_core/common/keyboard.c ****     ps2_mouse_init();
 154:./tmk_core/common/keyboard.c **** #endif
 155:./tmk_core/common/keyboard.c **** #ifdef SERIAL_MOUSE_ENABLE
 156:./tmk_core/common/keyboard.c ****     serial_mouse_init();
 157:./tmk_core/common/keyboard.c **** #endif
 158:./tmk_core/common/keyboard.c **** #ifdef ADB_MOUSE_ENABLE
 159:./tmk_core/common/keyboard.c ****     adb_mouse_init();
 160:./tmk_core/common/keyboard.c **** #endif
 161:./tmk_core/common/keyboard.c **** #ifdef BOOTMAGIC_ENABLE
 162:./tmk_core/common/keyboard.c ****     bootmagic();
 163:./tmk_core/common/keyboard.c **** #else
 164:./tmk_core/common/keyboard.c ****     magic();
  80               		.loc 1 164 0
  81 0008 0C94 0000 		jmp magic
  82               	.LVL3:
  83               		.cfi_endproc
  84               	.LFE7:
  86               		.section	.text.keyboard_task,"ax",@progbits
  87               	.global	keyboard_task
  89               	keyboard_task:
  90               	.LFB8:
 165:./tmk_core/common/keyboard.c **** #endif
 166:./tmk_core/common/keyboard.c **** #ifdef BACKLIGHT_ENABLE
 167:./tmk_core/common/keyboard.c ****     backlight_init();
 168:./tmk_core/common/keyboard.c **** #endif
 169:./tmk_core/common/keyboard.c **** #ifdef RGBLIGHT_ENABLE
 170:./tmk_core/common/keyboard.c ****     rgblight_init();
 171:./tmk_core/common/keyboard.c **** #endif
 172:./tmk_core/common/keyboard.c **** #ifdef STENO_ENABLE
 173:./tmk_core/common/keyboard.c ****     steno_init();
 174:./tmk_core/common/keyboard.c **** #endif
 175:./tmk_core/common/keyboard.c **** #ifdef FAUXCLICKY_ENABLE
 176:./tmk_core/common/keyboard.c ****     fauxclicky_init();
 177:./tmk_core/common/keyboard.c **** #endif
 178:./tmk_core/common/keyboard.c **** #ifdef POINTING_DEVICE_ENABLE
 179:./tmk_core/common/keyboard.c ****     pointing_device_init();
 180:./tmk_core/common/keyboard.c **** #endif
 181:./tmk_core/common/keyboard.c **** #if defined(NKRO_ENABLE) && defined(FORCE_NKRO)
 182:./tmk_core/common/keyboard.c ****     keymap_config.nkro = 1;
 183:./tmk_core/common/keyboard.c **** #endif
 184:./tmk_core/common/keyboard.c **** }
 185:./tmk_core/common/keyboard.c **** 
 186:./tmk_core/common/keyboard.c **** /** \brief Keyboard task: Do keyboard routine jobs
 187:./tmk_core/common/keyboard.c ****  *
 188:./tmk_core/common/keyboard.c ****  * Do routine keyboard jobs: 
 189:./tmk_core/common/keyboard.c ****  *
 190:./tmk_core/common/keyboard.c ****  * * scan matrix
 191:./tmk_core/common/keyboard.c ****  * * handle mouse movements
 192:./tmk_core/common/keyboard.c ****  * * run visualizer code
 193:./tmk_core/common/keyboard.c ****  * * handle midi commands
 194:./tmk_core/common/keyboard.c ****  * * light LEDs
 195:./tmk_core/common/keyboard.c ****  *
 196:./tmk_core/common/keyboard.c ****  * This is repeatedly called as fast as possible.
 197:./tmk_core/common/keyboard.c ****  */
 198:./tmk_core/common/keyboard.c **** void keyboard_task(void)
 199:./tmk_core/common/keyboard.c **** {
  91               		.loc 1 199 0
  92               		.cfi_startproc
  93 0000 BF92      		push r11
  94               	.LCFI0:
  95               		.cfi_def_cfa_offset 3
  96               		.cfi_offset 11, -2
  97 0002 CF92      		push r12
  98               	.LCFI1:
  99               		.cfi_def_cfa_offset 4
 100               		.cfi_offset 12, -3
 101 0004 DF92      		push r13
 102               	.LCFI2:
 103               		.cfi_def_cfa_offset 5
 104               		.cfi_offset 13, -4
 105 0006 EF92      		push r14
 106               	.LCFI3:
 107               		.cfi_def_cfa_offset 6
 108               		.cfi_offset 14, -5
 109 0008 FF92      		push r15
 110               	.LCFI4:
 111               		.cfi_def_cfa_offset 7
 112               		.cfi_offset 15, -6
 113 000a 0F93      		push r16
 114               	.LCFI5:
 115               		.cfi_def_cfa_offset 8
 116               		.cfi_offset 16, -7
 117 000c 1F93      		push r17
 118               	.LCFI6:
 119               		.cfi_def_cfa_offset 9
 120               		.cfi_offset 17, -8
 121 000e CF93      		push r28
 122               	.LCFI7:
 123               		.cfi_def_cfa_offset 10
 124               		.cfi_offset 28, -9
 125 0010 DF93      		push r29
 126               	.LCFI8:
 127               		.cfi_def_cfa_offset 11
 128               		.cfi_offset 29, -10
 129 0012 CDB7      		in r28,__SP_L__
 130 0014 DEB7      		in r29,__SP_H__
 131               	.LCFI9:
 132               		.cfi_def_cfa_register 28
 133 0016 2A97      		sbiw r28,10
 134               	.LCFI10:
 135               		.cfi_def_cfa_offset 21
 136 0018 0FB6      		in __tmp_reg__,__SREG__
 137 001a F894      		cli
 138 001c DEBF      		out __SP_H__,r29
 139 001e 0FBE      		out __SREG__,__tmp_reg__
 140 0020 CDBF      		out __SP_L__,r28
 141               	/* prologue: function */
 142               	/* frame size = 10 */
 143               	/* stack size = 19 */
 144               	.L__stack_usage = 19
 145               	.LVL4:
 200:./tmk_core/common/keyboard.c ****     static matrix_row_t matrix_prev[MATRIX_ROWS];
 201:./tmk_core/common/keyboard.c **** #ifdef MATRIX_HAS_GHOST
 202:./tmk_core/common/keyboard.c ****   //  static matrix_row_t matrix_ghost[MATRIX_ROWS];
 203:./tmk_core/common/keyboard.c **** #endif
 204:./tmk_core/common/keyboard.c ****     static uint8_t led_status = 0;
 205:./tmk_core/common/keyboard.c ****     matrix_row_t matrix_row = 0;
 206:./tmk_core/common/keyboard.c ****     matrix_row_t matrix_change = 0;
 207:./tmk_core/common/keyboard.c **** #ifdef QMK_KEYS_PER_SCAN
 208:./tmk_core/common/keyboard.c ****     uint8_t keys_processed = 0;
 209:./tmk_core/common/keyboard.c **** #endif
 210:./tmk_core/common/keyboard.c **** 
 211:./tmk_core/common/keyboard.c ****     matrix_scan();
 146               		.loc 1 211 0
 147 0022 0E94 0000 		call matrix_scan
 148               	.LVL5:
 212:./tmk_core/common/keyboard.c ****     if (is_keyboard_master()) {
 149               		.loc 1 212 0
 150 0026 0E94 0000 		call is_keyboard_master
 151               	.LVL6:
 152 002a 8823      		tst r24
 153 002c 01F4      		brne .+2
 154 002e 00C0      		rjmp .L6
 155 0030 80E0      		ldi r24,lo8(matrix_prev.2732)
 156 0032 C82E      		mov r12,r24
 157 0034 80E0      		ldi r24,hi8(matrix_prev.2732)
 158 0036 D82E      		mov r13,r24
 159 0038 10E0      		ldi r17,0
 160 003a 00E0      		ldi r16,0
 161               	.LVL7:
 162               	.L13:
 163 003c B02E      		mov r11,r16
 164               	.LVL8:
 165               	.LBB6:
 213:./tmk_core/common/keyboard.c ****         for (uint8_t r = 0; r < MATRIX_ROWS; r++) {
 214:./tmk_core/common/keyboard.c ****             matrix_row = matrix_get_row(r);
 166               		.loc 1 214 0
 167 003e 802F      		mov r24,r16
 168 0040 0E94 0000 		call matrix_get_row
 169               	.LVL9:
 170 0044 E82E      		mov r14,r24
 171               	.LVL10:
 215:./tmk_core/common/keyboard.c ****             matrix_change = matrix_row ^ matrix_prev[r];
 172               		.loc 1 215 0
 173 0046 F601      		movw r30,r12
 174 0048 F190      		ld r15,Z+
 175 004a 6F01      		movw r12,r30
 176               	.LVL11:
 216:./tmk_core/common/keyboard.c ****             if (matrix_change) {
 177               		.loc 1 216 0
 178 004c F816      		cp r15,r24
 179 004e 01F4      		brne .+2
 180 0050 00C0      		rjmp .L7
 217:./tmk_core/common/keyboard.c **** #ifdef MATRIX_HAS_GHOST
 218:./tmk_core/common/keyboard.c ****                 if (has_ghost_in_row(r, matrix_row)) {
 219:./tmk_core/common/keyboard.c ****                     /* Keep track of whether ghosted status has changed for
 220:./tmk_core/common/keyboard.c ****                     * debugging. But don't update matrix_prev until un-ghosted, or
 221:./tmk_core/common/keyboard.c ****                     * the last key would be lost.
 222:./tmk_core/common/keyboard.c ****                     */
 223:./tmk_core/common/keyboard.c ****                     //if (debug_matrix && matrix_ghost[r] != matrix_row) {
 224:./tmk_core/common/keyboard.c ****                     //    matrix_print();
 225:./tmk_core/common/keyboard.c ****                     //}
 226:./tmk_core/common/keyboard.c ****                     //matrix_ghost[r] = matrix_row;
 227:./tmk_core/common/keyboard.c ****                     continue;
 228:./tmk_core/common/keyboard.c ****                 }
 229:./tmk_core/common/keyboard.c ****                 //matrix_ghost[r] = matrix_row;
 230:./tmk_core/common/keyboard.c **** #endif
 231:./tmk_core/common/keyboard.c ****                 if (debug_matrix) matrix_print();
 181               		.loc 1 231 0
 182 0052 8091 0000 		lds r24,debug_config
 183 0056 81FD      		sbrc r24,1
 184               		.loc 1 231 0 is_stmt 0 discriminator 1
 185 0058 0E94 0000 		call matrix_print
 186               	.LVL12:
 187               	.L8:
 188               	.LBE6:
 212:./tmk_core/common/keyboard.c ****         for (uint8_t r = 0; r < MATRIX_ROWS; r++) {
 189               		.loc 1 212 0 is_stmt 1
 190 005c 90E0      		ldi r25,0
 191 005e 80E0      		ldi r24,0
 192               	.LBB9:
 215:./tmk_core/common/keyboard.c ****             if (matrix_change) {
 193               		.loc 1 215 0
 194 0060 FE24      		eor r15,r14
 195               	.LVL13:
 196               	.LBB7:
 232:./tmk_core/common/keyboard.c ****                 for (uint8_t c = 0; c < MATRIX_COLS; c++) {
 233:./tmk_core/common/keyboard.c ****                     if (matrix_change & ((matrix_row_t)1<<c)) {
 197               		.loc 1 233 0
 198 0062 2F2D      		mov r18,r15
 199 0064 30E0      		ldi r19,0
 200               	.LVL14:
 201               	.L12:
 202 0066 482F      		mov r20,r24
 203               	.LVL15:
 204 0068 B901      		movw r22,r18
 205 006a 082E      		mov r0,r24
 206 006c 00C0      		rjmp 2f
 207               		1:
 208 006e 7595      		asr r23
 209 0070 6795      		ror r22
 210               		2:
 211 0072 0A94      		dec r0
 212 0074 02F4      		brpl 1b
 213 0076 60FF      		sbrs r22,0
 214 0078 00C0      		rjmp .L9
 234:./tmk_core/common/keyboard.c ****                         action_exec((keyevent_t){
 215               		.loc 1 234 0
 216 007a 8E83      		std Y+6,r24
 217 007c BF82      		std Y+7,r11
 235:./tmk_core/common/keyboard.c ****                             .key = (keypos_t){ .row = r, .col = c },
 236:./tmk_core/common/keyboard.c ****                             .pressed = (matrix_row & ((matrix_row_t)1<<c)),
 218               		.loc 1 236 0
 219 007e 81E0      		ldi r24,lo8(1)
 220 0080 90E0      		ldi r25,0
 221               	.LVL16:
 222 0082 6C01      		movw r12,r24
 223 0084 00C0      		rjmp 2f
 224               		1:
 225 0086 CC0C      		lsl r12
 226 0088 DD1C      		rol r13
 227               		2:
 228 008a 4A95      		dec r20
 229 008c 02F4      		brpl 1b
 230 008e 2E2D      		mov r18,r14
 231 0090 30E0      		ldi r19,0
 232 0092 2C21      		and r18,r12
 233 0094 3D21      		and r19,r13
 234 0096 232B      		or r18,r19
 235 0098 01F4      		brne .L10
 236 009a 80E0      		ldi r24,0
 237               	.L10:
 234:./tmk_core/common/keyboard.c ****                         action_exec((keyevent_t){
 238               		.loc 1 234 0
 239 009c 8887      		std Y+8,r24
 237:./tmk_core/common/keyboard.c ****                             .time = (timer_read() | 1) /* time should not be 0 */
 240               		.loc 1 237 0
 241 009e 0E94 0000 		call timer_read
 242               	.LVL17:
 243 00a2 8160      		ori r24,1
 234:./tmk_core/common/keyboard.c ****                         action_exec((keyevent_t){
 244               		.loc 1 234 0
 245 00a4 782F      		mov r23,r24
 246 00a6 9A87      		std Y+10,r25
 247 00a8 8987      		std Y+9,r24
 248 00aa 4E81      		ldd r20,Y+6
 249 00ac 5F81      		ldd r21,Y+7
 250 00ae 6885      		ldd r22,Y+8
 251 00b0 8A85      		ldd r24,Y+10
 252 00b2 0E94 0000 		call action_exec
 253               	.LVL18:
 238:./tmk_core/common/keyboard.c ****                         });
 239:./tmk_core/common/keyboard.c ****                         // record a processed key
 240:./tmk_core/common/keyboard.c ****                         matrix_prev[r] ^= ((matrix_row_t)1<<c);
 254               		.loc 1 240 0
 255 00b6 F801      		movw r30,r16
 256 00b8 E050      		subi r30,lo8(-(matrix_prev.2732))
 257 00ba F040      		sbci r31,hi8(-(matrix_prev.2732))
 258 00bc 8081      		ld r24,Z
 259 00be 8C25      		eor r24,r12
 260 00c0 8083      		st Z,r24
 261               	.LVL19:
 262               	.L11:
 263               	.LBE7:
 264               	.LBE9:
 241:./tmk_core/common/keyboard.c **** #ifdef QMK_KEYS_PER_SCAN
 242:./tmk_core/common/keyboard.c ****                         // only jump out if we have processed "enough" keys.
 243:./tmk_core/common/keyboard.c ****                         if (++keys_processed >= QMK_KEYS_PER_SCAN)
 244:./tmk_core/common/keyboard.c **** #endif
 245:./tmk_core/common/keyboard.c ****                         // process a key per task call
 246:./tmk_core/common/keyboard.c ****                         goto MATRIX_LOOP_END;
 247:./tmk_core/common/keyboard.c ****                     }
 248:./tmk_core/common/keyboard.c ****                 }
 249:./tmk_core/common/keyboard.c ****             }
 250:./tmk_core/common/keyboard.c ****         }
 251:./tmk_core/common/keyboard.c ****     }
 252:./tmk_core/common/keyboard.c ****     // call with pseudo tick event when no real key event.
 253:./tmk_core/common/keyboard.c **** #ifdef QMK_KEYS_PER_SCAN
 254:./tmk_core/common/keyboard.c ****     // we can get here with some keys processed now.
 255:./tmk_core/common/keyboard.c ****     if (!keys_processed)
 256:./tmk_core/common/keyboard.c **** #endif
 257:./tmk_core/common/keyboard.c ****     action_exec(TICK);
 258:./tmk_core/common/keyboard.c **** 
 259:./tmk_core/common/keyboard.c **** MATRIX_LOOP_END:
 260:./tmk_core/common/keyboard.c **** 
 261:./tmk_core/common/keyboard.c **** #ifdef MOUSEKEY_ENABLE
 262:./tmk_core/common/keyboard.c ****     // mousekey repeat & acceleration
 263:./tmk_core/common/keyboard.c ****     mousekey_task();
 265               		.loc 1 263 0
 266 00c2 0E94 0000 		call mousekey_task
 267               	.LVL20:
 264:./tmk_core/common/keyboard.c **** #endif
 265:./tmk_core/common/keyboard.c **** 
 266:./tmk_core/common/keyboard.c **** #ifdef PS2_MOUSE_ENABLE
 267:./tmk_core/common/keyboard.c ****     ps2_mouse_task();
 268:./tmk_core/common/keyboard.c **** #endif
 269:./tmk_core/common/keyboard.c **** 
 270:./tmk_core/common/keyboard.c **** #ifdef SERIAL_MOUSE_ENABLE
 271:./tmk_core/common/keyboard.c ****     serial_mouse_task();
 272:./tmk_core/common/keyboard.c **** #endif
 273:./tmk_core/common/keyboard.c **** 
 274:./tmk_core/common/keyboard.c **** #ifdef ADB_MOUSE_ENABLE
 275:./tmk_core/common/keyboard.c ****     adb_mouse_task();
 276:./tmk_core/common/keyboard.c **** #endif
 277:./tmk_core/common/keyboard.c **** 
 278:./tmk_core/common/keyboard.c **** #ifdef SERIAL_LINK_ENABLE
 279:./tmk_core/common/keyboard.c **** 	serial_link_update();
 280:./tmk_core/common/keyboard.c **** #endif
 281:./tmk_core/common/keyboard.c **** 
 282:./tmk_core/common/keyboard.c **** #ifdef VISUALIZER_ENABLE
 283:./tmk_core/common/keyboard.c ****     visualizer_update(default_layer_state, layer_state, visualizer_get_mods(), host_keyboard_leds()
 284:./tmk_core/common/keyboard.c **** #endif
 285:./tmk_core/common/keyboard.c **** 
 286:./tmk_core/common/keyboard.c **** #ifdef POINTING_DEVICE_ENABLE
 287:./tmk_core/common/keyboard.c ****     pointing_device_task();
 288:./tmk_core/common/keyboard.c **** #endif
 289:./tmk_core/common/keyboard.c **** 
 290:./tmk_core/common/keyboard.c **** #ifdef MIDI_ENABLE
 291:./tmk_core/common/keyboard.c ****     midi_task();
 292:./tmk_core/common/keyboard.c **** #endif
 293:./tmk_core/common/keyboard.c **** 
 294:./tmk_core/common/keyboard.c ****     // update LED
 295:./tmk_core/common/keyboard.c ****     if (led_status != host_keyboard_leds()) {
 268               		.loc 1 295 0
 269 00c6 0E94 0000 		call host_keyboard_leds
 270               	.LVL21:
 271 00ca 9091 0000 		lds r25,led_status.2733
 272 00ce 8917      		cp r24,r25
 273 00d0 01F0      		breq .L5
 296:./tmk_core/common/keyboard.c ****         led_status = host_keyboard_leds();
 274               		.loc 1 296 0
 275 00d2 0E94 0000 		call host_keyboard_leds
 276               	.LVL22:
 277 00d6 8093 0000 		sts led_status.2733,r24
 278               	.LVL23:
 279               	/* epilogue start */
 297:./tmk_core/common/keyboard.c ****         keyboard_set_leds(led_status);
 298:./tmk_core/common/keyboard.c ****     }
 299:./tmk_core/common/keyboard.c **** }
 280               		.loc 1 299 0
 281 00da 2A96      		adiw r28,10
 282 00dc 0FB6      		in __tmp_reg__,__SREG__
 283 00de F894      		cli
 284 00e0 DEBF      		out __SP_H__,r29
 285 00e2 0FBE      		out __SREG__,__tmp_reg__
 286 00e4 CDBF      		out __SP_L__,r28
 287 00e6 DF91      		pop r29
 288 00e8 CF91      		pop r28
 289 00ea 1F91      		pop r17
 290 00ec 0F91      		pop r16
 291 00ee FF90      		pop r15
 292 00f0 EF90      		pop r14
 293 00f2 DF90      		pop r13
 294 00f4 CF90      		pop r12
 295 00f6 BF90      		pop r11
 296               	.LBB10:
 297               	.LBB11:
 300:./tmk_core/common/keyboard.c **** 
 301:./tmk_core/common/keyboard.c **** /** \brief keyboard set leds
 302:./tmk_core/common/keyboard.c ****  *
 303:./tmk_core/common/keyboard.c ****  * FIXME: needs doc
 304:./tmk_core/common/keyboard.c ****  */
 305:./tmk_core/common/keyboard.c **** void keyboard_set_leds(uint8_t leds)
 306:./tmk_core/common/keyboard.c **** {
 307:./tmk_core/common/keyboard.c ****     if (debug_keyboard) { debug("keyboard_set_led: "); debug_hex8(leds); debug("\n"); }
 308:./tmk_core/common/keyboard.c ****     led_set(leds);
 298               		.loc 1 308 0
 299 00f8 0C94 0000 		jmp led_set
 300               	.LVL24:
 301               	.L9:
 302 00fc 0196      		adiw r24,1
 303               	.LVL25:
 304               	.LBE11:
 305               	.LBE10:
 306               	.LBB12:
 307               	.LBB8:
 232:./tmk_core/common/keyboard.c ****                     if (matrix_change & ((matrix_row_t)1<<c)) {
 308               		.loc 1 232 0 discriminator 2
 309 00fe 8630      		cpi r24,6
 310 0100 9105      		cpc r25,__zero_reg__
 311 0102 01F0      		breq .+2
 312 0104 00C0      		rjmp .L12
 313               	.LVL26:
 314               	.L7:
 315 0106 0F5F      		subi r16,-1
 316 0108 1F4F      		sbci r17,-1
 317               	.LVL27:
 318               	.LBE8:
 213:./tmk_core/common/keyboard.c ****             matrix_row = matrix_get_row(r);
 319               		.loc 1 213 0
 320 010a 0E30      		cpi r16,14
 321 010c 1105      		cpc r17,__zero_reg__
 322 010e 01F0      		breq .+2
 323 0110 00C0      		rjmp .L13
 324               	.LVL28:
 325               	.L6:
 326               	.LBE12:
 257:./tmk_core/common/keyboard.c **** 
 327               		.loc 1 257 0
 328 0112 8FEF      		ldi r24,lo8(-1)
 329 0114 8983      		std Y+1,r24
 330 0116 8A83      		std Y+2,r24
 331 0118 1B82      		std Y+3,__zero_reg__
 332 011a 0E94 0000 		call timer_read
 333               	.LVL29:
 334 011e 8160      		ori r24,1
 335 0120 782F      		mov r23,r24
 336 0122 9D83      		std Y+5,r25
 337 0124 8C83      		std Y+4,r24
 338 0126 4981      		ldd r20,Y+1
 339 0128 5A81      		ldd r21,Y+2
 340 012a 6B81      		ldd r22,Y+3
 341 012c 8D81      		ldd r24,Y+5
 342 012e 0E94 0000 		call action_exec
 343               	.LVL30:
 344 0132 00C0      		rjmp .L11
 345               	.L5:
 346               	/* epilogue start */
 299:./tmk_core/common/keyboard.c **** 
 347               		.loc 1 299 0
 348 0134 2A96      		adiw r28,10
 349 0136 0FB6      		in __tmp_reg__,__SREG__
 350 0138 F894      		cli
 351 013a DEBF      		out __SP_H__,r29
 352 013c 0FBE      		out __SREG__,__tmp_reg__
 353 013e CDBF      		out __SP_L__,r28
 354 0140 DF91      		pop r29
 355 0142 CF91      		pop r28
 356 0144 1F91      		pop r17
 357 0146 0F91      		pop r16
 358 0148 FF90      		pop r15
 359 014a EF90      		pop r14
 360 014c DF90      		pop r13
 361 014e CF90      		pop r12
 362 0150 BF90      		pop r11
 363 0152 0895      		ret
 364               		.cfi_endproc
 365               	.LFE8:
 367               		.section	.text.keyboard_set_leds,"ax",@progbits
 368               	.global	keyboard_set_leds
 370               	keyboard_set_leds:
 371               	.LFB9:
 306:./tmk_core/common/keyboard.c ****     if (debug_keyboard) { debug("keyboard_set_led: "); debug_hex8(leds); debug("\n"); }
 372               		.loc 1 306 0
 373               		.cfi_startproc
 374               	.LVL31:
 375               	/* prologue: function */
 376               	/* frame size = 0 */
 377               	/* stack size = 0 */
 378               	.L__stack_usage = 0
 379               		.loc 1 308 0
 380 0000 0C94 0000 		jmp led_set
 381               	.LVL32:
 382               		.cfi_endproc
 383               	.LFE9:
 385               		.section	.bss.led_status.2733,"aw",@nobits
 388               	led_status.2733:
 389 0000 00        		.zero	1
 390               		.section	.bss.matrix_prev.2732,"aw",@nobits
 393               	matrix_prev.2732:
 394 0000 0000 0000 		.zero	14
 394      0000 0000 
 394      0000 0000 
 394      0000 
 395               		.text
 396               	.Letext0:
 397               		.file 2 "/usr/local/Cellar/avr-gcc@7/7.3.0/avr/include/stdint.h"
 398               		.file 3 "./tmk_core/common/keyboard.h"
 399               		.file 4 "./tmk_core/common/matrix.h"
 400               		.file 5 "./tmk_core/common/host.h"
 401               		.file 6 "./tmk_core/common/debug.h"
 402               		.file 7 "./quantum/keycode_config.h"
 403               		.file 8 "./quantum/keymap.h"
 404               		.file 9 "./tmk_core/common/timer.h"
 405               		.file 10 "./tmk_core/common/command.h"
 406               		.file 11 "./tmk_core/common/action_layer.h"
 407               		.file 12 "./tmk_core/common/mousekey.h"
 408               		.file 13 "./tmk_core/common/action.h"
 409               		.file 14 "./tmk_core/common/led.h"
 410               		.file 15 "./tmk_core/common/magic.h"