Archive member included because of file (symbol)

/usr/lib/gcc/avr/4.8.2/../../../avr/lib/avr5/libm.a(addsf3.o)
                              .build/obj_Dactylv2led_rev2_Default/quantum/rgblight.o (__subsf3)
/usr/lib/gcc/avr/4.8.2/../../../avr/lib/avr5/libm.a(addsf3x.o)
                              /usr/lib/gcc/avr/4.8.2/../../../avr/lib/avr5/libm.a(addsf3.o) (__addsf3x)
/usr/lib/gcc/avr/4.8.2/../../../avr/lib/avr5/libm.a(divsf3.o)
                              .build/obj_Dactylv2led_rev2_Default/quantum/rgblight.o (__divsf3)
/usr/lib/gcc/avr/4.8.2/../../../avr/lib/avr5/libm.a(divsf3x.o)
                              /usr/lib/gcc/avr/4.8.2/../../../avr/lib/avr5/libm.a(divsf3.o) (__divsf3x)
/usr/lib/gcc/avr/4.8.2/../../../avr/lib/avr5/libm.a(exp.o)
                              .build/obj_Dactylv2led_rev2_Default/quantum/rgblight.o (exp)
/usr/lib/gcc/avr/4.8.2/../../../avr/lib/avr5/libm.a(fixunssfsi.o)
                              .build/obj_Dactylv2led_rev2_Default/quantum/rgblight.o (__fixunssfsi)
/usr/lib/gcc/avr/4.8.2/../../../avr/lib/avr5/libm.a(floatsisf.o)
                              .build/obj_Dactylv2led_rev2_Default/quantum/rgblight.o (__floatsisf)
/usr/lib/gcc/avr/4.8.2/../../../avr/lib/avr5/libm.a(fp_inf.o)
                              /usr/lib/gcc/avr/4.8.2/../../../avr/lib/avr5/libm.a(addsf3x.o) (__fp_inf)
/usr/lib/gcc/avr/4.8.2/../../../avr/lib/avr5/libm.a(fp_nan.o)
                              /usr/lib/gcc/avr/4.8.2/../../../avr/lib/avr5/libm.a(addsf3x.o) (__fp_nan)
/usr/lib/gcc/avr/4.8.2/../../../avr/lib/avr5/libm.a(fp_powser.o)
                              /usr/lib/gcc/avr/4.8.2/../../../avr/lib/avr5/libm.a(exp.o) (__fp_powser)
/usr/lib/gcc/avr/4.8.2/../../../avr/lib/avr5/libm.a(fp_pscA.o)
                              /usr/lib/gcc/avr/4.8.2/../../../avr/lib/avr5/libm.a(addsf3x.o) (__fp_pscA)
/usr/lib/gcc/avr/4.8.2/../../../avr/lib/avr5/libm.a(fp_pscB.o)
                              /usr/lib/gcc/avr/4.8.2/../../../avr/lib/avr5/libm.a(addsf3x.o) (__fp_pscB)
/usr/lib/gcc/avr/4.8.2/../../../avr/lib/avr5/libm.a(fp_round.o)
                              /usr/lib/gcc/avr/4.8.2/../../../avr/lib/avr5/libm.a(addsf3.o) (__fp_round)
/usr/lib/gcc/avr/4.8.2/../../../avr/lib/avr5/libm.a(fp_split3.o)
                              /usr/lib/gcc/avr/4.8.2/../../../avr/lib/avr5/libm.a(addsf3x.o) (__fp_split3)
/usr/lib/gcc/avr/4.8.2/../../../avr/lib/avr5/libm.a(fp_zero.o)
                              /usr/lib/gcc/avr/4.8.2/../../../avr/lib/avr5/libm.a(addsf3x.o) (__fp_zero)
/usr/lib/gcc/avr/4.8.2/../../../avr/lib/avr5/libm.a(inverse.o)
                              /usr/lib/gcc/avr/4.8.2/../../../avr/lib/avr5/libm.a(exp.o) (inverse)
/usr/lib/gcc/avr/4.8.2/../../../avr/lib/avr5/libm.a(ldexp.o)
                              /usr/lib/gcc/avr/4.8.2/../../../avr/lib/avr5/libm.a(exp.o) (ldexp)
/usr/lib/gcc/avr/4.8.2/../../../avr/lib/avr5/libm.a(modf.o)
                              /usr/lib/gcc/avr/4.8.2/../../../avr/lib/avr5/libm.a(exp.o) (modf)
/usr/lib/gcc/avr/4.8.2/../../../avr/lib/avr5/libm.a(mulsf3.o)
                              .build/obj_Dactylv2led_rev2_Default/quantum/rgblight.o (__mulsf3)
/usr/lib/gcc/avr/4.8.2/../../../avr/lib/avr5/libm.a(mulsf3x.o)
                              /usr/lib/gcc/avr/4.8.2/../../../avr/lib/avr5/libm.a(fp_powser.o) (__mulsf3x)
/usr/lib/gcc/avr/4.8.2/../../../avr/lib/avr5/libm.a(sin.o)
                              .build/obj_Dactylv2led_rev2_Default/quantum/rgblight.o (sin)
/usr/lib/gcc/avr/4.8.2/../../../avr/lib/avr5/libm.a(fp_mpack.o)
                              /usr/lib/gcc/avr/4.8.2/../../../avr/lib/avr5/libm.a(ldexp.o) (__fp_mpack)
/usr/lib/gcc/avr/4.8.2/../../../avr/lib/avr5/libm.a(fp_rempio2.o)
                              /usr/lib/gcc/avr/4.8.2/../../../avr/lib/avr5/libm.a(sin.o) (__fp_rempio2)
/usr/lib/gcc/avr/4.8.2/../../../avr/lib/avr5/libm.a(fp_sinus.o)
                              /usr/lib/gcc/avr/4.8.2/../../../avr/lib/avr5/libm.a(sin.o) (__fp_sinus)
/usr/lib/gcc/avr/4.8.2/../../../avr/lib/avr5/libm.a(fp_powsodd.o)
                              /usr/lib/gcc/avr/4.8.2/../../../avr/lib/avr5/libm.a(fp_sinus.o) (__fp_powsodd)
/usr/lib/gcc/avr/4.8.2/avr5/libgcc.a(_udivmodhi4.o)
                              .build/obj_Dactylv2led_rev2_Default/quantum/rgblight.o (__udivmodhi4)
/usr/lib/gcc/avr/4.8.2/avr5/libgcc.a(_divmodhi4.o)
                              .build/obj_Dactylv2led_rev2_Default/quantum/rgblight.o (__divmodhi4)
/usr/lib/gcc/avr/4.8.2/avr5/libgcc.a(_exit.o)
                              /usr/lib/gcc/avr/4.8.2/../../../avr/lib/avr5/crtm32u4.o (exit)
/usr/lib/gcc/avr/4.8.2/avr5/libgcc.a(_tablejump.o)
                              .build/obj_Dactylv2led_rev2_Default/keyboards/Dactylv2led/keymaps/Default/keymap.o (__tablejump2__)
/usr/lib/gcc/avr/4.8.2/avr5/libgcc.a(_copy_data.o)
                              .build/obj_Dactylv2led_rev2_Default/matrix.o (__do_copy_data)
/usr/lib/gcc/avr/4.8.2/avr5/libgcc.a(_clear_bss.o)
                              .build/obj_Dactylv2led_rev2_Default/matrix.o (__do_clear_bss)
/usr/lib/gcc/avr/4.8.2/../../../avr/lib/avr5/libc.a(memmove.o)
                              .build/obj_Dactylv2led_rev2_Default/./lib/lufa/LUFA/Drivers/USB/Class/Common/HIDParser.o (memmove)
/usr/lib/gcc/avr/4.8.2/../../../avr/lib/avr5/libc.a(eerd_byte_atmega32u4.o)
                              .build/obj_Dactylv2led_rev2_Default/split_util.o (__eerd_byte_m32u4)
/usr/lib/gcc/avr/4.8.2/../../../avr/lib/avr5/libc.a(eerd_dword_atmega32u4.o)
                              .build/obj_Dactylv2led_rev2_Default/quantum/rgblight.o (__eerd_dword_m32u4)
/usr/lib/gcc/avr/4.8.2/../../../avr/lib/avr5/libc.a(eerd_word_atmega32u4.o)
                              .build/obj_Dactylv2led_rev2_Default/common/eeconfig.o (__eerd_word_m32u4)
/usr/lib/gcc/avr/4.8.2/../../../avr/lib/avr5/libc.a(eeupd_byte_atmega32u4.o)
                              .build/obj_Dactylv2led_rev2_Default/common/eeconfig.o (__eeupd_byte_m32u4)
/usr/lib/gcc/avr/4.8.2/../../../avr/lib/avr5/libc.a(eeupd_dword_atmega32u4.o)
                              .build/obj_Dactylv2led_rev2_Default/quantum/rgblight.o (__eeupd_dword_m32u4)
/usr/lib/gcc/avr/4.8.2/../../../avr/lib/avr5/libc.a(eeupd_word_atmega32u4.o)
                              .build/obj_Dactylv2led_rev2_Default/common/eeconfig.o (__eeupd_word_m32u4)
/usr/lib/gcc/avr/4.8.2/../../../avr/lib/avr5/libc.a(memcpy.o)
                              /usr/lib/gcc/avr/4.8.2/../../../avr/lib/avr5/libc.a(memmove.o) (memcpy)
/usr/lib/gcc/avr/4.8.2/../../../avr/lib/avr5/libc.a(eerd_block_atmega32u4.o)
                              /usr/lib/gcc/avr/4.8.2/../../../avr/lib/avr5/libc.a(eerd_dword_atmega32u4.o) (__eerd_blraw_m32u4)

Allocating common symbols
Common symbol       size              file

rgblight_config     0x5               .build/obj_Dactylv2led_rev2_Default/quantum/rgblight.o
USB_IsInitialized   0x1               .build/obj_Dactylv2led_rev2_Default/./lib/lufa/LUFA/Drivers/USB/Core/USBTask.o
keymap_config       0x2               .build/obj_Dactylv2led_rev2_Default/common/magic.o
inmem_config        0x5               .build/obj_Dactylv2led_rev2_Default/quantum/rgblight.o
USB_DeviceState     0x1               .build/obj_Dactylv2led_rev2_Default/./lib/lufa/LUFA/Drivers/USB/Core/USBTask.o
USB_Device_ConfigurationNumber
                    0x1               .build/obj_Dactylv2led_rev2_Default/./lib/lufa/LUFA/Drivers/USB/Core/DeviceStandardReq.o
led                 0x30              .build/obj_Dactylv2led_rev2_Default/quantum/rgblight.o
USB_Device_CurrentlySelfPowered
                    0x1               .build/obj_Dactylv2led_rev2_Default/./lib/lufa/LUFA/Drivers/USB/Core/DeviceStandardReq.o
USB_ControlRequest  0x8               .build/obj_Dactylv2led_rev2_Default/./lib/lufa/LUFA/Drivers/USB/Core/USBTask.o
tp_buttons          0x2               .build/obj_Dactylv2led_rev2_Default/common/action.o
USB_Device_RemoteWakeupEnabled
                    0x1               .build/obj_Dactylv2led_rev2_Default/./lib/lufa/LUFA/Drivers/USB/Core/DeviceStandardReq.o
timer_count         0x4               .build/obj_Dactylv2led_rev2_Default/common/avr/timer.o

Discarded input sections

 .bss           0x0000000000000000        0x0 /usr/lib/gcc/avr/4.8.2/../../../avr/lib/avr5/crtm32u4.o
 .text          0x0000000000000000        0x0 .build/obj_Dactylv2led_rev2_Default/matrix.o
 .bss           0x0000000000000000        0x0 .build/obj_Dactylv2led_rev2_Default/matrix.o
 .text.matrix_init_user
                0x0000000000000000        0x2 .build/obj_Dactylv2led_rev2_Default/matrix.o
 .text.matrix_init_kb
                0x0000000000000000        0x4 .build/obj_Dactylv2led_rev2_Default/matrix.o
 .text.matrix_init_quantum
                0x0000000000000000        0x4 .build/obj_Dactylv2led_rev2_Default/matrix.o
 .text.matrix_scan_user
                0x0000000000000000        0x2 .build/obj_Dactylv2led_rev2_Default/matrix.o
 .text.matrix_scan_quantum
                0x0000000000000000        0x4 .build/obj_Dactylv2led_rev2_Default/matrix.o
 .text.matrix_rows
                0x0000000000000000        0x4 .build/obj_Dactylv2led_rev2_Default/matrix.o
 .text.matrix_cols
                0x0000000000000000        0x4 .build/obj_Dactylv2led_rev2_Default/matrix.o
 .text.matrix_is_modified
                0x0000000000000000        0xa .build/obj_Dactylv2led_rev2_Default/matrix.o
 .text.matrix_is_on
                0x0000000000000000       0x28 .build/obj_Dactylv2led_rev2_Default/matrix.o
 .text.matrix_key_count
                0x0000000000000000       0x28 .build/obj_Dactylv2led_rev2_Default/matrix.o
 .text          0x0000000000000000        0x0 .build/obj_Dactylv2led_rev2_Default/i2c.o
 .bss           0x0000000000000000        0x0 .build/obj_Dactylv2led_rev2_Default/i2c.o
 .text          0x0000000000000000        0x0 .build/obj_Dactylv2led_rev2_Default/split_util.o
 .bss           0x0000000000000000        0x0 .build/obj_Dactylv2led_rev2_Default/split_util.o
 .text          0x0000000000000000        0x0 .build/obj_Dactylv2led_rev2_Default/serial.o
 .bss           0x0000000000000000        0x0 .build/obj_Dactylv2led_rev2_Default/serial.o
 .text          0x0000000000000000        0x0 .build/obj_Dactylv2led_rev2_Default/ssd1306.o
 .bss           0x0000000000000000        0x0 .build/obj_Dactylv2led_rev2_Default/ssd1306.o
 .text          0x0000000000000000        0x0 .build/obj_Dactylv2led_rev2_Default/keyboards/Dactylv2led/rev2/rev2.o
 .bss           0x0000000000000000        0x0 .build/obj_Dactylv2led_rev2_Default/keyboards/Dactylv2led/rev2/rev2.o
 .text.shutdown_user
                0x0000000000000000        0x2 .build/obj_Dactylv2led_rev2_Default/keyboards/Dactylv2led/rev2/rev2.o
 .text          0x0000000000000000        0x0 .build/obj_Dactylv2led_rev2_Default/keyboards/Dactylv2led/keymaps/Default/keymap.o
 .bss           0x0000000000000000        0x0 .build/obj_Dactylv2led_rev2_Default/keyboards/Dactylv2led/keymaps/Default/keymap.o
 .text          0x0000000000000000        0x0 .build/obj_Dactylv2led_rev2_Default/quantum/quantum.o
 .bss           0x0000000000000000        0x0 .build/obj_Dactylv2led_rev2_Default/quantum/quantum.o
 .text.do_code16
                0x0000000000000000       0x6c .build/obj_Dactylv2led_rev2_Default/quantum/quantum.o
 .text.qk_register_weak_mods
                0x0000000000000000       0x16 .build/obj_Dactylv2led_rev2_Default/quantum/quantum.o
 .text.qk_register_mods
                0x0000000000000000       0x16 .build/obj_Dactylv2led_rev2_Default/quantum/quantum.o
 .text.qk_unregister_weak_mods
                0x0000000000000000       0x16 .build/obj_Dactylv2led_rev2_Default/quantum/quantum.o
 .text.qk_unregister_mods
                0x0000000000000000       0x16 .build/obj_Dactylv2led_rev2_Default/quantum/quantum.o
 .text.register_code16
                0x0000000000000000       0x2c .build/obj_Dactylv2led_rev2_Default/quantum/quantum.o
 .text.unregister_code16
                0x0000000000000000       0x2c .build/obj_Dactylv2led_rev2_Default/quantum/quantum.o
 .text.process_record_user
                0x0000000000000000        0x4 .build/obj_Dactylv2led_rev2_Default/quantum/quantum.o
 .text.send_string_with_delay
                0x0000000000000000       0x6c .build/obj_Dactylv2led_rev2_Default/quantum/quantum.o
 .text.send_string
                0x0000000000000000        0x6 .build/obj_Dactylv2led_rev2_Default/quantum/quantum.o
 .text.set_single_persistent_default_layer
                0x0000000000000000       0x26 .build/obj_Dactylv2led_rev2_Default/quantum/quantum.o
 .text.tap_random_base64
                0x0000000000000000       0x8e .build/obj_Dactylv2led_rev2_Default/quantum/quantum.o
 .text.backlight_init_ports
                0x0000000000000000        0x2 .build/obj_Dactylv2led_rev2_Default/quantum/quantum.o
 .text.backlight_set
                0x0000000000000000        0x2 .build/obj_Dactylv2led_rev2_Default/quantum/quantum.o
 .text.send_nibble
                0x0000000000000000       0x32 .build/obj_Dactylv2led_rev2_Default/quantum/quantum.o
 .text.send_byte
                0x0000000000000000       0x16 .build/obj_Dactylv2led_rev2_Default/quantum/quantum.o
 .text.send_word
                0x0000000000000000       0x12 .build/obj_Dactylv2led_rev2_Default/quantum/quantum.o
 .text.send_dword
                0x0000000000000000       0x20 .build/obj_Dactylv2led_rev2_Default/quantum/quantum.o
 .text.hex_to_keycode
                0x0000000000000000       0x1c .build/obj_Dactylv2led_rev2_Default/quantum/quantum.o
 .text.api_send_unicode
                0x0000000000000000        0x2 .build/obj_Dactylv2led_rev2_Default/quantum/quantum.o
 .text.led_init_ports
                0x0000000000000000        0x2 .build/obj_Dactylv2led_rev2_Default/quantum/quantum.o
 .text.startup_user
                0x0000000000000000        0x2 .build/obj_Dactylv2led_rev2_Default/quantum/quantum.o
 .text.shutdown_user
                0x0000000000000000        0x2 .build/obj_Dactylv2led_rev2_Default/quantum/quantum.o
 .bss.rgb_matrix_task_counter
                0x0000000000000000        0x1 .build/obj_Dactylv2led_rev2_Default/quantum/quantum.o
 .text          0x0000000000000000        0x0 .build/obj_Dactylv2led_rev2_Default/quantum/keymap_common.o
 .bss           0x0000000000000000        0x0 .build/obj_Dactylv2led_rev2_Default/quantum/keymap_common.o
 .text.action_get_macro
                0x0000000000000000        0x6 .build/obj_Dactylv2led_rev2_Default/quantum/keymap_common.o
 .text          0x0000000000000000        0x0 .build/obj_Dactylv2led_rev2_Default/quantum/keycode_config.o
 .bss           0x0000000000000000        0x0 .build/obj_Dactylv2led_rev2_Default/quantum/keycode_config.o
 .text          0x0000000000000000        0x0 .build/obj_Dactylv2led_rev2_Default/quantum/process_keycode/process_leader.o
 .bss           0x0000000000000000        0x0 .build/obj_Dactylv2led_rev2_Default/quantum/process_keycode/process_leader.o
 .text.leader_end
                0x0000000000000000        0x2 .build/obj_Dactylv2led_rev2_Default/quantum/process_keycode/process_leader.o
 .text          0x0000000000000000        0x0 .build/obj_Dactylv2led_rev2_Default/quantum/rgblight.o
 .bss           0x0000000000000000        0x0 .build/obj_Dactylv2led_rev2_Default/quantum/rgblight.o
 .text.setrgb   0x0000000000000000        0xa .build/obj_Dactylv2led_rev2_Default/quantum/rgblight.o
 .text.eeconfig_debug_rgblight
                0x0000000000000000        0x2 .build/obj_Dactylv2led_rev2_Default/quantum/rgblight.o
 .text.increment
                0x0000000000000000       0x1e .build/obj_Dactylv2led_rev2_Default/quantum/rgblight.o
 .text.decrement
                0x0000000000000000       0x1c .build/obj_Dactylv2led_rev2_Default/quantum/rgblight.o
 .text.rgblight_get_hue
                0x0000000000000000       0x1c .build/obj_Dactylv2led_rev2_Default/quantum/rgblight.o
 .text.rgblight_get_sat
                0x0000000000000000        0x6 .build/obj_Dactylv2led_rev2_Default/quantum/rgblight.o
 .text.rgblight_get_val
                0x0000000000000000        0x6 .build/obj_Dactylv2led_rev2_Default/quantum/rgblight.o
 .text.rgblight_increase
                0x0000000000000000       0x1c .build/obj_Dactylv2led_rev2_Default/quantum/rgblight.o
 .text.rgblight_decrease
                0x0000000000000000       0x1c .build/obj_Dactylv2led_rev2_Default/quantum/rgblight.o
 .text.rgblight_setrgb_at
                0x0000000000000000       0x28 .build/obj_Dactylv2led_rev2_Default/quantum/rgblight.o
 .text.rgblight_sethsv_at
                0x0000000000000000       0x3c .build/obj_Dactylv2led_rev2_Default/quantum/rgblight.o
 .text.rgblight_update_dword
                0x0000000000000000       0x2c .build/obj_Dactylv2led_rev2_Default/quantum/rgblight.o
 .text.rgblight_timer_init
                0x0000000000000000        0x8 .build/obj_Dactylv2led_rev2_Default/quantum/rgblight.o
 .text.rgblight_timer_enable
                0x0000000000000000        0x8 .build/obj_Dactylv2led_rev2_Default/quantum/rgblight.o
 .text.rgblight_timer_disable
                0x0000000000000000        0x6 .build/obj_Dactylv2led_rev2_Default/quantum/rgblight.o
 .text.rgblight_timer_toggle
                0x0000000000000000        0x6 .build/obj_Dactylv2led_rev2_Default/quantum/rgblight.o
 .text.rgblight_show_solid_color
                0x0000000000000000       0x30 .build/obj_Dactylv2led_rev2_Default/quantum/rgblight.o
 .text          0x0000000000000000        0x0 .build/obj_Dactylv2led_rev2_Default/ws2812.o
 .bss           0x0000000000000000        0x0 .build/obj_Dactylv2led_rev2_Default/ws2812.o
 .text.ws2812_setleds_rgbw
                0x0000000000000000       0x1e .build/obj_Dactylv2led_rev2_Default/ws2812.o
 .text.ws2812_sendarray
                0x0000000000000000        0x6 .build/obj_Dactylv2led_rev2_Default/ws2812.o
 .text          0x0000000000000000        0x0 .build/obj_Dactylv2led_rev2_Default/quantum/process_keycode/process_tap_dance.o
 .bss           0x0000000000000000        0x0 .build/obj_Dactylv2led_rev2_Default/quantum/process_keycode/process_tap_dance.o
 .text.qk_tap_dance_pair_on_each_tap
                0x0000000000000000       0x20 .build/obj_Dactylv2led_rev2_Default/quantum/process_keycode/process_tap_dance.o
 .text.qk_tap_dance_pair_finished
                0x0000000000000000       0x20 .build/obj_Dactylv2led_rev2_Default/quantum/process_keycode/process_tap_dance.o
 .text.qk_tap_dance_pair_reset
                0x0000000000000000       0x20 .build/obj_Dactylv2led_rev2_Default/quantum/process_keycode/process_tap_dance.o
 .text.qk_tap_dance_dual_role_on_each_tap
                0x0000000000000000       0x1e .build/obj_Dactylv2led_rev2_Default/quantum/process_keycode/process_tap_dance.o
 .text.qk_tap_dance_dual_role_finished
                0x0000000000000000       0x20 .build/obj_Dactylv2led_rev2_Default/quantum/process_keycode/process_tap_dance.o
 .text.qk_tap_dance_dual_role_reset
                0x0000000000000000       0x14 .build/obj_Dactylv2led_rev2_Default/quantum/process_keycode/process_tap_dance.o
 .text          0x0000000000000000        0x0 .build/obj_Dactylv2led_rev2_Default/quantum/led_tables.o
 .bss           0x0000000000000000        0x0 .build/obj_Dactylv2led_rev2_Default/quantum/led_tables.o
 .progmem.data.LED_BREATHING_TABLE
                0x0000000000000000      0x100 .build/obj_Dactylv2led_rev2_Default/quantum/led_tables.o
 .text          0x0000000000000000        0x0 .build/obj_Dactylv2led_rev2_Default/common/host.o
 .bss           0x0000000000000000        0x0 .build/obj_Dactylv2led_rev2_Default/common/host.o
 .text.host_get_driver
                0x0000000000000000        0xa .build/obj_Dactylv2led_rev2_Default/common/host.o
 .text.host_last_system_report
                0x0000000000000000        0xa .build/obj_Dactylv2led_rev2_Default/common/host.o
 .text.host_last_consumer_report
                0x0000000000000000        0xa .build/obj_Dactylv2led_rev2_Default/common/host.o
 .text          0x0000000000000000        0x0 .build/obj_Dactylv2led_rev2_Default/common/keyboard.o
 .bss           0x0000000000000000        0x0 .build/obj_Dactylv2led_rev2_Default/common/keyboard.o
 .text.matrix_setup
                0x0000000000000000        0x2 .build/obj_Dactylv2led_rev2_Default/common/keyboard.o
 .text.keyboard_set_leds
                0x0000000000000000        0x4 .build/obj_Dactylv2led_rev2_Default/common/keyboard.o
 .text          0x0000000000000000        0x0 .build/obj_Dactylv2led_rev2_Default/common/action.o
 .bss           0x0000000000000000        0x0 .build/obj_Dactylv2led_rev2_Default/common/action.o
 .text.process_record_quantum
                0x0000000000000000        0x4 .build/obj_Dactylv2led_rev2_Default/common/action.o
 .text.process_record_nocache
                0x0000000000000000        0x4 .build/obj_Dactylv2led_rev2_Default/common/action.o
 .text.debug_action
                0x0000000000000000        0x2 .build/obj_Dactylv2led_rev2_Default/common/action.o
 .text          0x0000000000000000        0x0 .build/obj_Dactylv2led_rev2_Default/common/action_tapping.o
 .bss           0x0000000000000000        0x0 .build/obj_Dactylv2led_rev2_Default/common/action_tapping.o
 .text          0x0000000000000000        0x0 .build/obj_Dactylv2led_rev2_Default/common/action_macro.o
 .bss           0x0000000000000000        0x0 .build/obj_Dactylv2led_rev2_Default/common/action_macro.o
 .text          0x0000000000000000        0x0 .build/obj_Dactylv2led_rev2_Default/common/action_layer.o
 .bss           0x0000000000000000        0x0 .build/obj_Dactylv2led_rev2_Default/common/action_layer.o
 .text.layer_state_cmp
                0x0000000000000000       0x2a .build/obj_Dactylv2led_rev2_Default/common/action_layer.o
 .text.layer_state_is
                0x0000000000000000       0x16 .build/obj_Dactylv2led_rev2_Default/common/action_layer.o
 .text          0x0000000000000000        0x0 .build/obj_Dactylv2led_rev2_Default/common/action_util.o
 .bss           0x0000000000000000        0x0 .build/obj_Dactylv2led_rev2_Default/common/action_util.o
 .text.add_key  0x0000000000000000        0xe .build/obj_Dactylv2led_rev2_Default/common/action_util.o
 .text.del_key  0x0000000000000000        0xe .build/obj_Dactylv2led_rev2_Default/common/action_util.o
 .text.clear_keys
                0x0000000000000000        0xc .build/obj_Dactylv2led_rev2_Default/common/action_util.o
 .text.get_oneshot_locked_mods
                0x0000000000000000        0x6 .build/obj_Dactylv2led_rev2_Default/common/action_util.o
 .text.set_oneshot_locked_mods
                0x0000000000000000        0x6 .build/obj_Dactylv2led_rev2_Default/common/action_util.o
 .text.clear_oneshot_locked_mods
                0x0000000000000000        0x6 .build/obj_Dactylv2led_rev2_Default/common/action_util.o
 .text.has_oneshot_mods_timed_out
                0x0000000000000000        0x4 .build/obj_Dactylv2led_rev2_Default/common/action_util.o
 .text.reset_oneshot_layer
                0x0000000000000000        0x6 .build/obj_Dactylv2led_rev2_Default/common/action_util.o
 .text.set_mods
                0x0000000000000000        0x6 .build/obj_Dactylv2led_rev2_Default/common/action_util.o
 .text.set_weak_mods
                0x0000000000000000        0x6 .build/obj_Dactylv2led_rev2_Default/common/action_util.o
 .text.get_macro_mods
                0x0000000000000000        0x6 .build/obj_Dactylv2led_rev2_Default/common/action_util.o
 .text.set_macro_mods
                0x0000000000000000        0x6 .build/obj_Dactylv2led_rev2_Default/common/action_util.o
 .text.has_anymod
                0x0000000000000000        0x8 .build/obj_Dactylv2led_rev2_Default/common/action_util.o
 .bss.oneshot_locked_mods
                0x0000000000000000        0x1 .build/obj_Dactylv2led_rev2_Default/common/action_util.o
 .text          0x0000000000000000        0x0 .build/obj_Dactylv2led_rev2_Default/common/print.o
 .bss           0x0000000000000000        0x0 .build/obj_Dactylv2led_rev2_Default/common/print.o
 .text          0x0000000000000000        0x0 .build/obj_Dactylv2led_rev2_Default/common/debug.o
 .bss           0x0000000000000000        0x0 .build/obj_Dactylv2led_rev2_Default/common/debug.o
 .text          0x0000000000000000        0x0 .build/obj_Dactylv2led_rev2_Default/common/util.o
 .bss           0x0000000000000000        0x0 .build/obj_Dactylv2led_rev2_Default/common/util.o
 .text.bitpop   0x0000000000000000       0x14 .build/obj_Dactylv2led_rev2_Default/common/util.o
 .text.bitpop16
                0x0000000000000000       0x18 .build/obj_Dactylv2led_rev2_Default/common/util.o
 .text.bitpop32
                0x0000000000000000       0x30 .build/obj_Dactylv2led_rev2_Default/common/util.o
 .text.biton    0x0000000000000000       0x24 .build/obj_Dactylv2led_rev2_Default/common/util.o
 .text.biton16  0x0000000000000000       0x48 .build/obj_Dactylv2led_rev2_Default/common/util.o
 .text.biton32  0x0000000000000000       0xa6 .build/obj_Dactylv2led_rev2_Default/common/util.o
 .text.bitrev   0x0000000000000000       0x24 .build/obj_Dactylv2led_rev2_Default/common/util.o
 .text.bitrev16
                0x0000000000000000       0x34 .build/obj_Dactylv2led_rev2_Default/common/util.o
 .text.bitrev32
                0x0000000000000000       0x44 .build/obj_Dactylv2led_rev2_Default/common/util.o
 .text          0x0000000000000000        0x0 .build/obj_Dactylv2led_rev2_Default/common/eeconfig.o
 .bss           0x0000000000000000        0x0 .build/obj_Dactylv2led_rev2_Default/common/eeconfig.o
 .text.eeconfig_enable
                0x0000000000000000        0xc .build/obj_Dactylv2led_rev2_Default/common/eeconfig.o
 .text.eeconfig_disable
                0x0000000000000000        0xc .build/obj_Dactylv2led_rev2_Default/common/eeconfig.o
 .text.eeconfig_update_debug
                0x0000000000000000        0xa .build/obj_Dactylv2led_rev2_Default/common/eeconfig.o
 .text          0x0000000000000000        0x0 .build/obj_Dactylv2led_rev2_Default/common/report.o
 .bss           0x0000000000000000        0x0 .build/obj_Dactylv2led_rev2_Default/common/report.o
 .text.get_first_key
                0x0000000000000000        0x6 .build/obj_Dactylv2led_rev2_Default/common/report.o
 .text          0x0000000000000000        0x0 .build/obj_Dactylv2led_rev2_Default/common/avr/suspend.o
 .bss           0x0000000000000000        0x0 .build/obj_Dactylv2led_rev2_Default/common/avr/suspend.o
 .text.suspend_idle
                0x0000000000000000       0x1a .build/obj_Dactylv2led_rev2_Default/common/avr/suspend.o
 .text          0x0000000000000000        0x0 .build/obj_Dactylv2led_rev2_Default/common/avr/timer.o
 .bss           0x0000000000000000        0x0 .build/obj_Dactylv2led_rev2_Default/common/avr/timer.o
 .text.timer_clear
                0x0000000000000000       0x18 .build/obj_Dactylv2led_rev2_Default/common/avr/timer.o
 .text.timer_read32
                0x0000000000000000       0x18 .build/obj_Dactylv2led_rev2_Default/common/avr/timer.o
 .text.timer_elapsed32
                0x0000000000000000       0x58 .build/obj_Dactylv2led_rev2_Default/common/avr/timer.o
 .text          0x0000000000000000        0x0 .build/obj_Dactylv2led_rev2_Default/common/avr/bootloader.o
 .bss           0x0000000000000000        0x0 .build/obj_Dactylv2led_rev2_Default/common/avr/bootloader.o
 .text          0x0000000000000000      0x15c .build/obj_Dactylv2led_rev2_Default/common/avr/xprintf.o
 .bss           0x0000000000000000        0x2 .build/obj_Dactylv2led_rev2_Default/common/avr/xprintf.o
 .text          0x0000000000000000        0x0 .build/obj_Dactylv2led_rev2_Default/common/magic.o
 .bss           0x0000000000000000        0x0 .build/obj_Dactylv2led_rev2_Default/common/magic.o
 .text          0x0000000000000000        0x0 .build/obj_Dactylv2led_rev2_Default/common/mousekey.o
 .bss           0x0000000000000000        0x0 .build/obj_Dactylv2led_rev2_Default/common/mousekey.o
 .text          0x0000000000000000        0x0 .build/obj_Dactylv2led_rev2_Default/common/command.o
 .bss           0x0000000000000000        0x0 .build/obj_Dactylv2led_rev2_Default/common/command.o
 .text          0x0000000000000000        0x0 .build/obj_Dactylv2led_rev2_Default/lufa.o
 .bss           0x0000000000000000        0x0 .build/obj_Dactylv2led_rev2_Default/lufa.o
 .text.sendchar
                0x0000000000000000        0x4 .build/obj_Dactylv2led_rev2_Default/lufa.o
 .text          0x0000000000000000        0x0 .build/obj_Dactylv2led_rev2_Default/usb_descriptor.o
 .bss           0x0000000000000000        0x0 .build/obj_Dactylv2led_rev2_Default/usb_descriptor.o
 .text          0x0000000000000000        0x0 .build/obj_Dactylv2led_rev2_Default/outputselect.o
 .bss           0x0000000000000000        0x0 .build/obj_Dactylv2led_rev2_Default/outputselect.o
 .text          0x0000000000000000        0x0 .build/obj_Dactylv2led_rev2_Default/./lib/lufa/LUFA/Drivers/USB/Class/Common/HIDParser.o
 .bss           0x0000000000000000        0x0 .build/obj_Dactylv2led_rev2_Default/./lib/lufa/LUFA/Drivers/USB/Class/Common/HIDParser.o
 .text.USB_ProcessHIDReport
                0x0000000000000000      0x754 .build/obj_Dactylv2led_rev2_Default/./lib/lufa/LUFA/Drivers/USB/Class/Common/HIDParser.o
 .text.USB_GetHIDReportItemInfo
                0x0000000000000000       0xbc .build/obj_Dactylv2led_rev2_Default/./lib/lufa/LUFA/Drivers/USB/Class/Common/HIDParser.o
 .text.USB_SetHIDReportItemInfo
                0x0000000000000000       0xc4 .build/obj_Dactylv2led_rev2_Default/./lib/lufa/LUFA/Drivers/USB/Class/Common/HIDParser.o
 .text.USB_GetHIDReportSize
                0x0000000000000000       0x60 .build/obj_Dactylv2led_rev2_Default/./lib/lufa/LUFA/Drivers/USB/Class/Common/HIDParser.o
 .text          0x0000000000000000        0x0 .build/obj_Dactylv2led_rev2_Default/./lib/lufa/LUFA/Drivers/USB/Core/AVR8/Device_AVR8.o
 .bss           0x0000000000000000        0x0 .build/obj_Dactylv2led_rev2_Default/./lib/lufa/LUFA/Drivers/USB/Core/AVR8/Device_AVR8.o
 .text          0x0000000000000000        0x0 .build/obj_Dactylv2led_rev2_Default/./lib/lufa/LUFA/Drivers/USB/Core/AVR8/EndpointStream_AVR8.o
 .bss           0x0000000000000000        0x0 .build/obj_Dactylv2led_rev2_Default/./lib/lufa/LUFA/Drivers/USB/Core/AVR8/EndpointStream_AVR8.o
 .text.Endpoint_Discard_Stream
                0x0000000000000000       0x7e .build/obj_Dactylv2led_rev2_Default/./lib/lufa/LUFA/Drivers/USB/Core/AVR8/EndpointStream_AVR8.o
 .text.Endpoint_Null_Stream
                0x0000000000000000       0x7e .build/obj_Dactylv2led_rev2_Default/./lib/lufa/LUFA/Drivers/USB/Core/AVR8/EndpointStream_AVR8.o
 .text.Endpoint_Write_Stream_BE
                0x0000000000000000       0xa0 .build/obj_Dactylv2led_rev2_Default/./lib/lufa/LUFA/Drivers/USB/Core/AVR8/EndpointStream_AVR8.o
 .text.Endpoint_Read_Stream_LE
                0x0000000000000000       0x92 .build/obj_Dactylv2led_rev2_Default/./lib/lufa/LUFA/Drivers/USB/Core/AVR8/EndpointStream_AVR8.o
 .text.Endpoint_Read_Stream_BE
                0x0000000000000000       0xa0 .build/obj_Dactylv2led_rev2_Default/./lib/lufa/LUFA/Drivers/USB/Core/AVR8/EndpointStream_AVR8.o
 .text.Endpoint_Write_PStream_LE
                0x0000000000000000       0x96 .build/obj_Dactylv2led_rev2_Default/./lib/lufa/LUFA/Drivers/USB/Core/AVR8/EndpointStream_AVR8.o
 .text.Endpoint_Write_PStream_BE
                0x0000000000000000       0xa2 .build/obj_Dactylv2led_rev2_Default/./lib/lufa/LUFA/Drivers/USB/Core/AVR8/EndpointStream_AVR8.o
 .text.Endpoint_Write_EStream_LE
                0x0000000000000000       0x98 .build/obj_Dactylv2led_rev2_Default/./lib/lufa/LUFA/Drivers/USB/Core/AVR8/EndpointStream_AVR8.o
 .text.Endpoint_Write_EStream_BE
                0x0000000000000000       0xa4 .build/obj_Dactylv2led_rev2_Default/./lib/lufa/LUFA/Drivers/USB/Core/AVR8/EndpointStream_AVR8.o
 .text.Endpoint_Read_EStream_LE
                0x0000000000000000       0x98 .build/obj_Dactylv2led_rev2_Default/./lib/lufa/LUFA/Drivers/USB/Core/AVR8/EndpointStream_AVR8.o
 .text.Endpoint_Read_EStream_BE
                0x0000000000000000       0xa4 .build/obj_Dactylv2led_rev2_Default/./lib/lufa/LUFA/Drivers/USB/Core/AVR8/EndpointStream_AVR8.o
 .text.Endpoint_Write_Control_Stream_BE
                0x0000000000000000       0xce .build/obj_Dactylv2led_rev2_Default/./lib/lufa/LUFA/Drivers/USB/Core/AVR8/EndpointStream_AVR8.o
 .text.Endpoint_Read_Control_Stream_LE
                0x0000000000000000       0x80 .build/obj_Dactylv2led_rev2_Default/./lib/lufa/LUFA/Drivers/USB/Core/AVR8/EndpointStream_AVR8.o
 .text.Endpoint_Read_Control_Stream_BE
                0x0000000000000000       0x84 .build/obj_Dactylv2led_rev2_Default/./lib/lufa/LUFA/Drivers/USB/Core/AVR8/EndpointStream_AVR8.o
 .text.Endpoint_Write_Control_PStream_BE
                0x0000000000000000       0xce .build/obj_Dactylv2led_rev2_Default/./lib/lufa/LUFA/Drivers/USB/Core/AVR8/EndpointStream_AVR8.o
 .text.Endpoint_Write_Control_EStream_LE
                0x0000000000000000       0xee .build/obj_Dactylv2led_rev2_Default/./lib/lufa/LUFA/Drivers/USB/Core/AVR8/EndpointStream_AVR8.o
 .text.Endpoint_Write_Control_EStream_BE
                0x0000000000000000       0xf8 .build/obj_Dactylv2led_rev2_Default/./lib/lufa/LUFA/Drivers/USB/Core/AVR8/EndpointStream_AVR8.o
 .text.Endpoint_Read_Control_EStream_LE
                0x0000000000000000       0x98 .build/obj_Dactylv2led_rev2_Default/./lib/lufa/LUFA/Drivers/USB/Core/AVR8/EndpointStream_AVR8.o
 .text.Endpoint_Read_Control_EStream_BE
                0x0000000000000000       0x96 .build/obj_Dactylv2led_rev2_Default/./lib/lufa/LUFA/Drivers/USB/Core/AVR8/EndpointStream_AVR8.o
 .text          0x0000000000000000        0x0 .build/obj_Dactylv2led_rev2_Default/./lib/lufa/LUFA/Drivers/USB/Core/AVR8/Endpoint_AVR8.o
 .bss           0x0000000000000000        0x0 .build/obj_Dactylv2led_rev2_Default/./lib/lufa/LUFA/Drivers/USB/Core/AVR8/Endpoint_AVR8.o
 .text.Endpoint_ConfigureEndpointTable
                0x0000000000000000       0x7c .build/obj_Dactylv2led_rev2_Default/./lib/lufa/LUFA/Drivers/USB/Core/AVR8/Endpoint_AVR8.o
 .text.Endpoint_ClearEndpoints
                0x0000000000000000       0x28 .build/obj_Dactylv2led_rev2_Default/./lib/lufa/LUFA/Drivers/USB/Core/AVR8/Endpoint_AVR8.o
 .text          0x0000000000000000        0x0 .build/obj_Dactylv2led_rev2_Default/./lib/lufa/LUFA/Drivers/USB/Core/AVR8/Host_AVR8.o
 .bss           0x0000000000000000        0x0 .build/obj_Dactylv2led_rev2_Default/./lib/lufa/LUFA/Drivers/USB/Core/AVR8/Host_AVR8.o
 .text          0x0000000000000000        0x0 .build/obj_Dactylv2led_rev2_Default/./lib/lufa/LUFA/Drivers/USB/Core/AVR8/PipeStream_AVR8.o
 .bss           0x0000000000000000        0x0 .build/obj_Dactylv2led_rev2_Default/./lib/lufa/LUFA/Drivers/USB/Core/AVR8/PipeStream_AVR8.o
 .text          0x0000000000000000        0x0 .build/obj_Dactylv2led_rev2_Default/./lib/lufa/LUFA/Drivers/USB/Core/AVR8/Pipe_AVR8.o
 .bss           0x0000000000000000        0x0 .build/obj_Dactylv2led_rev2_Default/./lib/lufa/LUFA/Drivers/USB/Core/AVR8/Pipe_AVR8.o
 .text          0x0000000000000000        0x0 .build/obj_Dactylv2led_rev2_Default/./lib/lufa/LUFA/Drivers/USB/Core/AVR8/USBController_AVR8.o
 .bss           0x0000000000000000        0x0 .build/obj_Dactylv2led_rev2_Default/./lib/lufa/LUFA/Drivers/USB/Core/AVR8/USBController_AVR8.o
 .text          0x0000000000000000        0x0 .build/obj_Dactylv2led_rev2_Default/./lib/lufa/LUFA/Drivers/USB/Core/AVR8/USBInterrupt_AVR8.o
 .bss           0x0000000000000000        0x0 .build/obj_Dactylv2led_rev2_Default/./lib/lufa/LUFA/Drivers/USB/Core/AVR8/USBInterrupt_AVR8.o
 .text          0x0000000000000000        0x0 .build/obj_Dactylv2led_rev2_Default/./lib/lufa/LUFA/Drivers/USB/Core/ConfigDescriptors.o
 .bss           0x0000000000000000        0x0 .build/obj_Dactylv2led_rev2_Default/./lib/lufa/LUFA/Drivers/USB/Core/ConfigDescriptors.o
 .text.USB_GetNextDescriptor
                0x0000000000000000       0x38 .build/obj_Dactylv2led_rev2_Default/./lib/lufa/LUFA/Drivers/USB/Core/ConfigDescriptors.o
 .text.USB_GetNextDescriptorOfType
                0x0000000000000000       0x48 .build/obj_Dactylv2led_rev2_Default/./lib/lufa/LUFA/Drivers/USB/Core/ConfigDescriptors.o
 .text.USB_GetNextDescriptorOfTypeBefore
                0x0000000000000000       0x58 .build/obj_Dactylv2led_rev2_Default/./lib/lufa/LUFA/Drivers/USB/Core/ConfigDescriptors.o
 .text.USB_GetNextDescriptorOfTypeAfter
                0x0000000000000000       0x3e .build/obj_Dactylv2led_rev2_Default/./lib/lufa/LUFA/Drivers/USB/Core/ConfigDescriptors.o
 .text.USB_GetNextDescriptorComp
                0x0000000000000000       0x66 .build/obj_Dactylv2led_rev2_Default/./lib/lufa/LUFA/Drivers/USB/Core/ConfigDescriptors.o
 .text          0x0000000000000000        0x0 .build/obj_Dactylv2led_rev2_Default/./lib/lufa/LUFA/Drivers/USB/Core/DeviceStandardReq.o
 .bss           0x0000000000000000        0x0 .build/obj_Dactylv2led_rev2_Default/./lib/lufa/LUFA/Drivers/USB/Core/DeviceStandardReq.o
 .text          0x0000000000000000        0x0 .build/obj_Dactylv2led_rev2_Default/./lib/lufa/LUFA/Drivers/USB/Core/Events.o
 .bss           0x0000000000000000        0x0 .build/obj_Dactylv2led_rev2_Default/./lib/lufa/LUFA/Drivers/USB/Core/Events.o
 .text          0x0000000000000000        0x0 .build/obj_Dactylv2led_rev2_Default/./lib/lufa/LUFA/Drivers/USB/Core/HostStandardReq.o
 .bss           0x0000000000000000        0x0 .build/obj_Dactylv2led_rev2_Default/./lib/lufa/LUFA/Drivers/USB/Core/HostStandardReq.o
 .text          0x0000000000000000        0x0 .build/obj_Dactylv2led_rev2_Default/./lib/lufa/LUFA/Drivers/USB/Core/USBTask.o
 .bss           0x0000000000000000        0x0 .build/obj_Dactylv2led_rev2_Default/./lib/lufa/LUFA/Drivers/USB/Core/USBTask.o
 .text          0x0000000000000000        0x0 /usr/lib/gcc/avr/4.8.2/../../../avr/lib/avr5/libm.a(addsf3.o)
 .bss           0x0000000000000000        0x0 /usr/lib/gcc/avr/4.8.2/../../../avr/lib/avr5/libm.a(addsf3.o)
 .text          0x0000000000000000        0x0 /usr/lib/gcc/avr/4.8.2/../../../avr/lib/avr5/libm.a(addsf3x.o)
 .bss           0x0000000000000000        0x0 /usr/lib/gcc/avr/4.8.2/../../../avr/lib/avr5/libm.a(addsf3x.o)
 .text          0x0000000000000000        0x0 /usr/lib/gcc/avr/4.8.2/../../../avr/lib/avr5/libm.a(divsf3.o)
 .bss           0x0000000000000000        0x0 /usr/lib/gcc/avr/4.8.2/../../../avr/lib/avr5/libm.a(divsf3.o)
 .text          0x0000000000000000        0x0 /usr/lib/gcc/avr/4.8.2/../../../avr/lib/avr5/libm.a(divsf3x.o)
 .bss           0x0000000000000000        0x0 /usr/lib/gcc/avr/4.8.2/../../../avr/lib/avr5/libm.a(divsf3x.o)
 .text          0x0000000000000000        0x0 /usr/lib/gcc/avr/4.8.2/../../../avr/lib/avr5/libm.a(exp.o)
 .bss           0x0000000000000000        0x0 /usr/lib/gcc/avr/4.8.2/../../../avr/lib/avr5/libm.a(exp.o)
 .text          0x0000000000000000        0x0 /usr/lib/gcc/avr/4.8.2/../../../avr/lib/avr5/libm.a(fixunssfsi.o)
 .bss           0x0000000000000000        0x0 /usr/lib/gcc/avr/4.8.2/../../../avr/lib/avr5/libm.a(fixunssfsi.o)
 .text          0x0000000000000000        0x0 /usr/lib/gcc/avr/4.8.2/../../../avr/lib/avr5/libm.a(floatsisf.o)
 .bss           0x0000000000000000        0x0 /usr/lib/gcc/avr/4.8.2/../../../avr/lib/avr5/libm.a(floatsisf.o)
 .text          0x0000000000000000        0x0 /usr/lib/gcc/avr/4.8.2/../../../avr/lib/avr5/libm.a(fp_inf.o)
 .bss           0x0000000000000000        0x0 /usr/lib/gcc/avr/4.8.2/../../../avr/lib/avr5/libm.a(fp_inf.o)
 .text          0x0000000000000000        0x0 /usr/lib/gcc/avr/4.8.2/../../../avr/lib/avr5/libm.a(fp_nan.o)
 .bss           0x0000000000000000        0x0 /usr/lib/gcc/avr/4.8.2/../../../avr/lib/avr5/libm.a(fp_nan.o)
 .text          0x0000000000000000        0x0 /usr/lib/gcc/avr/4.8.2/../../../avr/lib/avr5/libm.a(fp_powser.o)
 .bss           0x0000000000000000        0x0 /usr/lib/gcc/avr/4.8.2/../../../avr/lib/avr5/libm.a(fp_powser.o)
 .text          0x0000000000000000        0x0 /usr/lib/gcc/avr/4.8.2/../../../avr/lib/avr5/libm.a(fp_pscA.o)
 .bss           0x0000000000000000        0x0 /usr/lib/gcc/avr/4.8.2/../../../avr/lib/avr5/libm.a(fp_pscA.o)
 .text          0x0000000000000000        0x0 /usr/lib/gcc/avr/4.8.2/../../../avr/lib/avr5/libm.a(fp_pscB.o)
 .bss           0x0000000000000000        0x0 /usr/lib/gcc/avr/4.8.2/../../../avr/lib/avr5/libm.a(fp_pscB.o)
 .text          0x0000000000000000        0x0 /usr/lib/gcc/avr/4.8.2/../../../avr/lib/avr5/libm.a(fp_round.o)
 .bss           0x0000000000000000        0x0 /usr/lib/gcc/avr/4.8.2/../../../avr/lib/avr5/libm.a(fp_round.o)
 .text          0x0000000000000000        0x0 /usr/lib/gcc/avr/4.8.2/../../../avr/lib/avr5/libm.a(fp_split3.o)
 .bss           0x0000000000000000        0x0 /usr/lib/gcc/avr/4.8.2/../../../avr/lib/avr5/libm.a(fp_split3.o)
 .text          0x0000000000000000        0x0 /usr/lib/gcc/avr/4.8.2/../../../avr/lib/avr5/libm.a(fp_zero.o)
 .bss           0x0000000000000000        0x0 /usr/lib/gcc/avr/4.8.2/../../../avr/lib/avr5/libm.a(fp_zero.o)
 .text          0x0000000000000000        0x0 /usr/lib/gcc/avr/4.8.2/../../../avr/lib/avr5/libm.a(inverse.o)
 .bss           0x0000000000000000        0x0 /usr/lib/gcc/avr/4.8.2/../../../avr/lib/avr5/libm.a(inverse.o)
 .text          0x0000000000000000        0x0 /usr/lib/gcc/avr/4.8.2/../../../avr/lib/avr5/libm.a(ldexp.o)
 .bss           0x0000000000000000        0x0 /usr/lib/gcc/avr/4.8.2/../../../avr/lib/avr5/libm.a(ldexp.o)
 .text          0x0000000000000000        0x0 /usr/lib/gcc/avr/4.8.2/../../../avr/lib/avr5/libm.a(modf.o)
 .bss           0x0000000000000000        0x0 /usr/lib/gcc/avr/4.8.2/../../../avr/lib/avr5/libm.a(modf.o)
 .text          0x0000000000000000        0x0 /usr/lib/gcc/avr/4.8.2/../../../avr/lib/avr5/libm.a(mulsf3.o)
 .bss           0x0000000000000000        0x0 /usr/lib/gcc/avr/4.8.2/../../../avr/lib/avr5/libm.a(mulsf3.o)
 .text          0x0000000000000000        0x0 /usr/lib/gcc/avr/4.8.2/../../../avr/lib/avr5/libm.a(mulsf3x.o)
 .bss           0x0000000000000000        0x0 /usr/lib/gcc/avr/4.8.2/../../../avr/lib/avr5/libm.a(mulsf3x.o)
 .text          0x0000000000000000        0x0 /usr/lib/gcc/avr/4.8.2/../../../avr/lib/avr5/libm.a(sin.o)
 .bss           0x0000000000000000        0x0 /usr/lib/gcc/avr/4.8.2/../../../avr/lib/avr5/libm.a(sin.o)
 .text          0x0000000000000000        0x0 /usr/lib/gcc/avr/4.8.2/../../../avr/lib/avr5/libm.a(fp_mpack.o)
 .bss           0x0000000000000000        0x0 /usr/lib/gcc/avr/4.8.2/../../../avr/lib/avr5/libm.a(fp_mpack.o)
 .text          0x0000000000000000        0x0 /usr/lib/gcc/avr/4.8.2/../../../avr/lib/avr5/libm.a(fp_rempio2.o)
 .bss           0x0000000000000000        0x0 /usr/lib/gcc/avr/4.8.2/../../../avr/lib/avr5/libm.a(fp_rempio2.o)
 .text          0x0000000000000000        0x0 /usr/lib/gcc/avr/4.8.2/../../../avr/lib/avr5/libm.a(fp_sinus.o)
 .bss           0x0000000000000000        0x0 /usr/lib/gcc/avr/4.8.2/../../../avr/lib/avr5/libm.a(fp_sinus.o)
 .text          0x0000000000000000        0x0 /usr/lib/gcc/avr/4.8.2/../../../avr/lib/avr5/libm.a(fp_powsodd.o)
 .bss           0x0000000000000000        0x0 /usr/lib/gcc/avr/4.8.2/../../../avr/lib/avr5/libm.a(fp_powsodd.o)
 .text          0x0000000000000000        0x0 /usr/lib/gcc/avr/4.8.2/avr5/libgcc.a(_udivmodhi4.o)
 .bss           0x0000000000000000        0x0 /usr/lib/gcc/avr/4.8.2/avr5/libgcc.a(_udivmodhi4.o)
 .text.libgcc.mul
                0x0000000000000000        0x0 /usr/lib/gcc/avr/4.8.2/avr5/libgcc.a(_udivmodhi4.o)
 .text.libgcc   0x0000000000000000        0x0 /usr/lib/gcc/avr/4.8.2/avr5/libgcc.a(_udivmodhi4.o)
 .text.libgcc.prologue
                0x0000000000000000        0x0 /usr/lib/gcc/avr/4.8.2/avr5/libgcc.a(_udivmodhi4.o)
 .text.libgcc.builtins
                0x0000000000000000        0x0 /usr/lib/gcc/avr/4.8.2/avr5/libgcc.a(_udivmodhi4.o)
 .text.libgcc.fmul
                0x0000000000000000        0x0 /usr/lib/gcc/avr/4.8.2/avr5/libgcc.a(_udivmodhi4.o)
 .text.libgcc.fixed
                0x0000000000000000        0x0 /usr/lib/gcc/avr/4.8.2/avr5/libgcc.a(_udivmodhi4.o)
 .text          0x0000000000000000        0x0 /usr/lib/gcc/avr/4.8.2/avr5/libgcc.a(_divmodhi4.o)
 .bss           0x0000000000000000        0x0 /usr/lib/gcc/avr/4.8.2/avr5/libgcc.a(_divmodhi4.o)
 .text.libgcc.mul
                0x0000000000000000        0x0 /usr/lib/gcc/avr/4.8.2/avr5/libgcc.a(_divmodhi4.o)
 .text.libgcc   0x0000000000000000        0x0 /usr/lib/gcc/avr/4.8.2/avr5/libgcc.a(_divmodhi4.o)
 .text.libgcc.prologue
                0x0000000000000000        0x0 /usr/lib/gcc/avr/4.8.2/avr5/libgcc.a(_divmodhi4.o)
 .text.libgcc.builtins
                0x0000000000000000        0x0 /usr/lib/gcc/avr/4.8.2/avr5/libgcc.a(_divmodhi4.o)
 .text.libgcc.fmul
                0x0000000000000000        0x0 /usr/lib/gcc/avr/4.8.2/avr5/libgcc.a(_divmodhi4.o)
 .text.libgcc.fixed
                0x0000000000000000        0x0 /usr/lib/gcc/avr/4.8.2/avr5/libgcc.a(_divmodhi4.o)
 .text          0x0000000000000000        0x0 /usr/lib/gcc/avr/4.8.2/avr5/libgcc.a(_exit.o)
 .bss           0x0000000000000000        0x0 /usr/lib/gcc/avr/4.8.2/avr5/libgcc.a(_exit.o)
 .text.libgcc.mul
                0x0000000000000000        0x0 /usr/lib/gcc/avr/4.8.2/avr5/libgcc.a(_exit.o)
 .text.libgcc.div
                0x0000000000000000        0x0 /usr/lib/gcc/avr/4.8.2/avr5/libgcc.a(_exit.o)
 .text.libgcc   0x0000000000000000        0x0 /usr/lib/gcc/avr/4.8.2/avr5/libgcc.a(_exit.o)
 .text.libgcc.prologue
                0x0000000000000000        0x0 /usr/lib/gcc/avr/4.8.2/avr5/libgcc.a(_exit.o)
 .text.libgcc.builtins
                0x0000000000000000        0x0 /usr/lib/gcc/avr/4.8.2/avr5/libgcc.a(_exit.o)
 .text.libgcc.fmul
                0x0000000000000000        0x0 /usr/lib/gcc/avr/4.8.2/avr5/libgcc.a(_exit.o)
 .text.libgcc.fixed
                0x0000000000000000        0x0 /usr/lib/gcc/avr/4.8.2/avr5/libgcc.a(_exit.o)
 .text          0x0000000000000000        0x0 /usr/lib/gcc/avr/4.8.2/avr5/libgcc.a(_tablejump.o)
 .bss           0x0000000000000000        0x0 /usr/lib/gcc/avr/4.8.2/avr5/libgcc.a(_tablejump.o)
 .text.libgcc.mul
                0x0000000000000000        0x0 /usr/lib/gcc/avr/4.8.2/avr5/libgcc.a(_tablejump.o)
 .text.libgcc.div
                0x0000000000000000        0x0 /usr/lib/gcc/avr/4.8.2/avr5/libgcc.a(_tablejump.o)
 .text.libgcc.prologue
                0x0000000000000000        0x0 /usr/lib/gcc/avr/4.8.2/avr5/libgcc.a(_tablejump.o)
 .text.libgcc.builtins
                0x0000000000000000        0x0 /usr/lib/gcc/avr/4.8.2/avr5/libgcc.a(_tablejump.o)
 .text.libgcc.fmul
                0x0000000000000000        0x0 /usr/lib/gcc/avr/4.8.2/avr5/libgcc.a(_tablejump.o)
 .text.libgcc.fixed
                0x0000000000000000        0x0 /usr/lib/gcc/avr/4.8.2/avr5/libgcc.a(_tablejump.o)
 .text          0x0000000000000000        0x0 /usr/lib/gcc/avr/4.8.2/avr5/libgcc.a(_copy_data.o)
 .bss           0x0000000000000000        0x0 /usr/lib/gcc/avr/4.8.2/avr5/libgcc.a(_copy_data.o)
 .text.libgcc.mul
                0x0000000000000000        0x0 /usr/lib/gcc/avr/4.8.2/avr5/libgcc.a(_copy_data.o)
 .text.libgcc.div
                0x0000000000000000        0x0 /usr/lib/gcc/avr/4.8.2/avr5/libgcc.a(_copy_data.o)
 .text.libgcc   0x0000000000000000        0x0 /usr/lib/gcc/avr/4.8.2/avr5/libgcc.a(_copy_data.o)
 .text.libgcc.prologue
                0x0000000000000000        0x0 /usr/lib/gcc/avr/4.8.2/avr5/libgcc.a(_copy_data.o)
 .text.libgcc.builtins
                0x0000000000000000        0x0 /usr/lib/gcc/avr/4.8.2/avr5/libgcc.a(_copy_data.o)
 .text.libgcc.fmul
                0x0000000000000000        0x0 /usr/lib/gcc/avr/4.8.2/avr5/libgcc.a(_copy_data.o)
 .text.libgcc.fixed
                0x0000000000000000        0x0 /usr/lib/gcc/avr/4.8.2/avr5/libgcc.a(_copy_data.o)
 .text          0x0000000000000000        0x0 /usr/lib/gcc/avr/4.8.2/avr5/libgcc.a(_clear_bss.o)
 .bss           0x0000000000000000        0x0 /usr/lib/gcc/avr/4.8.2/avr5/libgcc.a(_clear_bss.o)
 .text.libgcc.mul
                0x0000000000000000        0x0 /usr/lib/gcc/avr/4.8.2/avr5/libgcc.a(_clear_bss.o)
 .text.libgcc.div
                0x0000000000000000        0x0 /usr/lib/gcc/avr/4.8.2/avr5/libgcc.a(_clear_bss.o)
 .text.libgcc   0x0000000000000000        0x0 /usr/lib/gcc/avr/4.8.2/avr5/libgcc.a(_clear_bss.o)
 .text.libgcc.prologue
                0x0000000000000000        0x0 /usr/lib/gcc/avr/4.8.2/avr5/libgcc.a(_clear_bss.o)
 .text.libgcc.builtins
                0x0000000000000000        0x0 /usr/lib/gcc/avr/4.8.2/avr5/libgcc.a(_clear_bss.o)
 .text.libgcc.fmul
                0x0000000000000000        0x0 /usr/lib/gcc/avr/4.8.2/avr5/libgcc.a(_clear_bss.o)
 .text.libgcc.fixed
                0x0000000000000000        0x0 /usr/lib/gcc/avr/4.8.2/avr5/libgcc.a(_clear_bss.o)
 .text          0x0000000000000000        0x0 /usr/lib/gcc/avr/4.8.2/../../../avr/lib/avr5/libc.a(memmove.o)
 .bss           0x0000000000000000        0x0 /usr/lib/gcc/avr/4.8.2/../../../avr/lib/avr5/libc.a(memmove.o)
 .text.avr-libc
                0x0000000000000000       0x24 /usr/lib/gcc/avr/4.8.2/../../../avr/lib/avr5/libc.a(memmove.o)
 .text          0x0000000000000000        0x0 /usr/lib/gcc/avr/4.8.2/../../../avr/lib/avr5/libc.a(eerd_byte_atmega32u4.o)
 .bss           0x0000000000000000        0x0 /usr/lib/gcc/avr/4.8.2/../../../avr/lib/avr5/libc.a(eerd_byte_atmega32u4.o)
 .text          0x0000000000000000        0x0 /usr/lib/gcc/avr/4.8.2/../../../avr/lib/avr5/libc.a(eerd_dword_atmega32u4.o)
 .bss           0x0000000000000000        0x0 /usr/lib/gcc/avr/4.8.2/../../../avr/lib/avr5/libc.a(eerd_dword_atmega32u4.o)
 .text          0x0000000000000000        0x0 /usr/lib/gcc/avr/4.8.2/../../../avr/lib/avr5/libc.a(eerd_word_atmega32u4.o)
 .bss           0x0000000000000000        0x0 /usr/lib/gcc/avr/4.8.2/../../../avr/lib/avr5/libc.a(eerd_word_atmega32u4.o)
 .text          0x0000000000000000        0x0 /usr/lib/gcc/avr/4.8.2/../../../avr/lib/avr5/libc.a(eeupd_byte_atmega32u4.o)
 .bss           0x0000000000000000        0x0 /usr/lib/gcc/avr/4.8.2/../../../avr/lib/avr5/libc.a(eeupd_byte_atmega32u4.o)
 .text          0x0000000000000000        0x0 /usr/lib/gcc/avr/4.8.2/../../../avr/lib/avr5/libc.a(eeupd_dword_atmega32u4.o)
 .bss           0x0000000000000000        0x0 /usr/lib/gcc/avr/4.8.2/../../../avr/lib/avr5/libc.a(eeupd_dword_atmega32u4.o)
 .text          0x0000000000000000        0x0 /usr/lib/gcc/avr/4.8.2/../../../avr/lib/avr5/libc.a(eeupd_word_atmega32u4.o)
 .bss           0x0000000000000000        0x0 /usr/lib/gcc/avr/4.8.2/../../../avr/lib/avr5/libc.a(eeupd_word_atmega32u4.o)
 .text          0x0000000000000000        0x0 /usr/lib/gcc/avr/4.8.2/../../../avr/lib/avr5/libc.a(memcpy.o)
 .bss           0x0000000000000000        0x0 /usr/lib/gcc/avr/4.8.2/../../../avr/lib/avr5/libc.a(memcpy.o)
 .text.avr-libc
                0x0000000000000000       0x12 /usr/lib/gcc/avr/4.8.2/../../../avr/lib/avr5/libc.a(memcpy.o)
 .text          0x0000000000000000        0x0 /usr/lib/gcc/avr/4.8.2/../../../avr/lib/avr5/libc.a(eerd_block_atmega32u4.o)
 .bss           0x0000000000000000        0x0 /usr/lib/gcc/avr/4.8.2/../../../avr/lib/avr5/libc.a(eerd_block_atmega32u4.o)

Memory Configuration

Name             Origin             Length             Attributes
text             0x0000000000000000 0x0000000000020000 xr
data             0x0000000000800060 0x000000000000ffa0 rw !x
eeprom           0x0000000000810000 0x0000000000010000 rw !x
fuse             0x0000000000820000 0x0000000000000400 rw !x
lock             0x0000000000830000 0x0000000000000400 rw !x
signature        0x0000000000840000 0x0000000000000400 rw !x
user_signatures  0x0000000000850000 0x0000000000000400 rw !x
*default*        0x0000000000000000 0xffffffffffffffff

Linker script and memory map

Address of section .data set to 0x800100
LOAD /usr/lib/gcc/avr/4.8.2/../../../avr/lib/avr5/crtm32u4.o
LOAD .build/obj_Dactylv2led_rev2_Default/matrix.o
LOAD .build/obj_Dactylv2led_rev2_Default/i2c.o
LOAD .build/obj_Dactylv2led_rev2_Default/split_util.o
LOAD .build/obj_Dactylv2led_rev2_Default/serial.o
LOAD .build/obj_Dactylv2led_rev2_Default/ssd1306.o
LOAD .build/obj_Dactylv2led_rev2_Default/keyboards/Dactylv2led/rev2/rev2.o
LOAD .build/obj_Dactylv2led_rev2_Default/keyboards/Dactylv2led/keymaps/Default/keymap.o
LOAD .build/obj_Dactylv2led_rev2_Default/quantum/quantum.o
LOAD .build/obj_Dactylv2led_rev2_Default/quantum/keymap_common.o
LOAD .build/obj_Dactylv2led_rev2_Default/quantum/keycode_config.o
LOAD .build/obj_Dactylv2led_rev2_Default/quantum/process_keycode/process_leader.o
LOAD .build/obj_Dactylv2led_rev2_Default/quantum/rgblight.o
LOAD .build/obj_Dactylv2led_rev2_Default/ws2812.o
LOAD .build/obj_Dactylv2led_rev2_Default/quantum/process_keycode/process_tap_dance.o
LOAD .build/obj_Dactylv2led_rev2_Default/quantum/led_tables.o
LOAD .build/obj_Dactylv2led_rev2_Default/common/host.o
LOAD .build/obj_Dactylv2led_rev2_Default/common/keyboard.o
LOAD .build/obj_Dactylv2led_rev2_Default/common/action.o
LOAD .build/obj_Dactylv2led_rev2_Default/common/action_tapping.o
LOAD .build/obj_Dactylv2led_rev2_Default/common/action_macro.o
LOAD .build/obj_Dactylv2led_rev2_Default/common/action_layer.o
LOAD .build/obj_Dactylv2led_rev2_Default/common/action_util.o
LOAD .build/obj_Dactylv2led_rev2_Default/common/print.o
LOAD .build/obj_Dactylv2led_rev2_Default/common/debug.o
LOAD .build/obj_Dactylv2led_rev2_Default/common/util.o
LOAD .build/obj_Dactylv2led_rev2_Default/common/eeconfig.o
LOAD .build/obj_Dactylv2led_rev2_Default/common/report.o
LOAD .build/obj_Dactylv2led_rev2_Default/common/avr/suspend.o
LOAD .build/obj_Dactylv2led_rev2_Default/common/avr/timer.o
LOAD .build/obj_Dactylv2led_rev2_Default/common/avr/bootloader.o
LOAD .build/obj_Dactylv2led_rev2_Default/common/avr/xprintf.o
LOAD .build/obj_Dactylv2led_rev2_Default/common/magic.o
LOAD .build/obj_Dactylv2led_rev2_Default/common/mousekey.o
LOAD .build/obj_Dactylv2led_rev2_Default/common/command.o
LOAD .build/obj_Dactylv2led_rev2_Default/lufa.o
LOAD .build/obj_Dactylv2led_rev2_Default/usb_descriptor.o
LOAD .build/obj_Dactylv2led_rev2_Default/outputselect.o
LOAD .build/obj_Dactylv2led_rev2_Default/./lib/lufa/LUFA/Drivers/USB/Class/Common/HIDParser.o
LOAD .build/obj_Dactylv2led_rev2_Default/./lib/lufa/LUFA/Drivers/USB/Core/AVR8/Device_AVR8.o
LOAD .build/obj_Dactylv2led_rev2_Default/./lib/lufa/LUFA/Drivers/USB/Core/AVR8/EndpointStream_AVR8.o
LOAD .build/obj_Dactylv2led_rev2_Default/./lib/lufa/LUFA/Drivers/USB/Core/AVR8/Endpoint_AVR8.o
LOAD .build/obj_Dactylv2led_rev2_Default/./lib/lufa/LUFA/Drivers/USB/Core/AVR8/Host_AVR8.o
LOAD .build/obj_Dactylv2led_rev2_Default/./lib/lufa/LUFA/Drivers/USB/Core/AVR8/PipeStream_AVR8.o
LOAD .build/obj_Dactylv2led_rev2_Default/./lib/lufa/LUFA/Drivers/USB/Core/AVR8/Pipe_AVR8.o
LOAD .build/obj_Dactylv2led_rev2_Default/./lib/lufa/LUFA/Drivers/USB/Core/AVR8/USBController_AVR8.o
LOAD .build/obj_Dactylv2led_rev2_Default/./lib/lufa/LUFA/Drivers/USB/Core/AVR8/USBInterrupt_AVR8.o
LOAD .build/obj_Dactylv2led_rev2_Default/./lib/lufa/LUFA/Drivers/USB/Core/ConfigDescriptors.o
LOAD .build/obj_Dactylv2led_rev2_Default/./lib/lufa/LUFA/Drivers/USB/Core/DeviceStandardReq.o
LOAD .build/obj_Dactylv2led_rev2_Default/./lib/lufa/LUFA/Drivers/USB/Core/Events.o
LOAD .build/obj_Dactylv2led_rev2_Default/./lib/lufa/LUFA/Drivers/USB/Core/HostStandardReq.o
LOAD .build/obj_Dactylv2led_rev2_Default/./lib/lufa/LUFA/Drivers/USB/Core/USBTask.o
LOAD /usr/lib/gcc/avr/4.8.2/../../../avr/lib/avr5/libm.a
START GROUP
LOAD /usr/lib/gcc/avr/4.8.2/avr5/libgcc.a
LOAD /usr/lib/gcc/avr/4.8.2/../../../avr/lib/avr5/libm.a
LOAD /usr/lib/gcc/avr/4.8.2/../../../avr/lib/avr5/libc.a
END GROUP

.hash
 *(.hash)

.dynsym
 *(.dynsym)

.dynstr
 *(.dynstr)

.gnu.version
 *(.gnu.version)

.gnu.version_d
 *(.gnu.version_d)

.gnu.version_r
 *(.gnu.version_r)

.rel.init
 *(.rel.init)

.rela.init
 *(.rela.init)

.rel.text
 *(.rel.text)
 *(.rel.text.*)
 *(.rel.gnu.linkonce.t*)

.rela.text
 *(.rela.text)
 *(.rela.text.*)
 *(.rela.gnu.linkonce.t*)

.rel.fini
 *(.rel.fini)

.rela.fini
 *(.rela.fini)

.rel.rodata
 *(.rel.rodata)
 *(.rel.rodata.*)
 *(.rel.gnu.linkonce.r*)

.rela.rodata
 *(.rela.rodata)
 *(.rela.rodata.*)
 *(.rela.gnu.linkonce.r*)

.rel.data
 *(.rel.data)
 *(.rel.data.*)
 *(.rel.gnu.linkonce.d*)

.rela.data
 *(.rela.data)
 *(.rela.data.*)
 *(.rela.gnu.linkonce.d*)

.rel.ctors
 *(.rel.ctors)

.rela.ctors
 *(.rela.ctors)

.rel.dtors
 *(.rel.dtors)

.rela.dtors
 *(.rela.dtors)

.rel.got
 *(.rel.got)

.rela.got
 *(.rela.got)

.rel.bss
 *(.rel.bss)

.rela.bss
 *(.rela.bss)

.rel.plt
 *(.rel.plt)

.rela.plt
 *(.rela.plt)

.text           0x0000000000000000     0x6dc8
 *(.vectors)
 .vectors       0x0000000000000000       0xac /usr/lib/gcc/avr/4.8.2/../../../avr/lib/avr5/crtm32u4.o
                0x0000000000000000                __vectors
                0x0000000000000000                __vector_default
 *(.vectors)
 *(.progmem.gcc*)
 .progmem.gcc_sw_table.action_get_macro
                0x00000000000000ac       0x20 .build/obj_Dactylv2led_rev2_Default/keyboards/Dactylv2led/keymaps/Default/keymap.o
 .progmem.gcc_sw_table.process_record_quantum
                0x00000000000000cc       0x24 .build/obj_Dactylv2led_rev2_Default/quantum/quantum.o
 .progmem.gcc_sw_table.process_action
                0x00000000000000f0       0x4a .build/obj_Dactylv2led_rev2_Default/common/action.o
 .progmem.gcc_sw_table.is_tap_key
                0x000000000000013a       0x1c .build/obj_Dactylv2led_rev2_Default/common/action.o
 .progmem.gcc_sw_table.USB_Device_ProcessControlRequest
                0x0000000000000156       0x14 .build/obj_Dactylv2led_rev2_Default/./lib/lufa/LUFA/Drivers/USB/Core/DeviceStandardReq.o
 .progmem.gcc_fplib
                0x000000000000016a       0x28 /usr/lib/gcc/avr/4.8.2/../../../avr/lib/avr5/libm.a(exp.o)
 .progmem.gcc_fplib
                0x0000000000000192       0x1e /usr/lib/gcc/avr/4.8.2/../../../avr/lib/avr5/libm.a(fp_sinus.o)
 *(.progmem*)
 .progmem.data.__m.3372
                0x00000000000001b0        0xd .build/obj_Dactylv2led_rev2_Default/keyboards/Dactylv2led/keymaps/Default/keymap.o
 .progmem.data.__m.3370
                0x00000000000001bd        0xd .build/obj_Dactylv2led_rev2_Default/keyboards/Dactylv2led/keymaps/Default/keymap.o
 .progmem.data.__m.3360
                0x00000000000001ca       0x3b .build/obj_Dactylv2led_rev2_Default/keyboards/Dactylv2led/keymaps/Default/keymap.o
 .progmem.data.__m.3358
                0x0000000000000205       0x55 .build/obj_Dactylv2led_rev2_Default/keyboards/Dactylv2led/keymaps/Default/keymap.o
 .progmem.data.__m.3356
                0x000000000000025a       0x1d .build/obj_Dactylv2led_rev2_Default/keyboards/Dactylv2led/keymaps/Default/keymap.o
 .progmem.data.__m.3350
                0x0000000000000277        0xd .build/obj_Dactylv2led_rev2_Default/keyboards/Dactylv2led/keymaps/Default/keymap.o
 .progmem.data.__m.3348
                0x0000000000000284        0x9 .build/obj_Dactylv2led_rev2_Default/keyboards/Dactylv2led/keymaps/Default/keymap.o
 .progmem.data.__m.3346
                0x000000000000028d        0x9 .build/obj_Dactylv2led_rev2_Default/keyboards/Dactylv2led/keymaps/Default/keymap.o
 .progmem.data.__c.3340
                0x0000000000000296       0x13 .build/obj_Dactylv2led_rev2_Default/keyboards/Dactylv2led/keymaps/Default/keymap.o
 .progmem.data.__m.3337
                0x00000000000002a9       0x33 .build/obj_Dactylv2led_rev2_Default/keyboards/Dactylv2led/keymaps/Default/keymap.o
 .progmem.data.__m.3334
                0x00000000000002dc       0x33 .build/obj_Dactylv2led_rev2_Default/keyboards/Dactylv2led/keymaps/Default/keymap.o
 .progmem.data.__m.3331
                0x000000000000030f       0x33 .build/obj_Dactylv2led_rev2_Default/keyboards/Dactylv2led/keymaps/Default/keymap.o
 .progmem.data.__c.3328
                0x0000000000000342        0xe .build/obj_Dactylv2led_rev2_Default/keyboards/Dactylv2led/keymaps/Default/keymap.o
 .progmem.data.__c.3325
                0x0000000000000350        0x1 .build/obj_Dactylv2led_rev2_Default/keyboards/Dactylv2led/keymaps/Default/keymap.o
 .progmem.data.__m.3322
                0x0000000000000351       0x1b .build/obj_Dactylv2led_rev2_Default/keyboards/Dactylv2led/keymaps/Default/keymap.o
 .progmem.data.__m.3318
                0x000000000000036c        0x5 .build/obj_Dactylv2led_rev2_Default/keyboards/Dactylv2led/keymaps/Default/keymap.o
 .progmem.data.__m.3314
                0x0000000000000371       0x13 .build/obj_Dactylv2led_rev2_Default/keyboards/Dactylv2led/keymaps/Default/keymap.o
 .progmem.data.__c.3311
                0x0000000000000384       0x18 .build/obj_Dactylv2led_rev2_Default/keyboards/Dactylv2led/keymaps/Default/keymap.o
 .progmem.data.__c.3308
                0x000000000000039c        0x6 .build/obj_Dactylv2led_rev2_Default/keyboards/Dactylv2led/keymaps/Default/keymap.o
 .progmem.data.__m.3305
                0x00000000000003a2       0x31 .build/obj_Dactylv2led_rev2_Default/keyboards/Dactylv2led/keymaps/Default/keymap.o
 .progmem.data.__m.3302
                0x00000000000003d3        0x9 .build/obj_Dactylv2led_rev2_Default/keyboards/Dactylv2led/keymaps/Default/keymap.o
 .progmem.data.keymaps
                0x00000000000003dc      0xb28 .build/obj_Dactylv2led_rev2_Default/keyboards/Dactylv2led/keymaps/Default/keymap.o
                0x00000000000003dc                keymaps
 .progmem.data.ascii_to_keycode_lut
                0x0000000000000f04       0x80 .build/obj_Dactylv2led_rev2_Default/quantum/quantum.o
                0x0000000000000f04                ascii_to_keycode_lut
 .progmem.data.ascii_to_shift_lut
                0x0000000000000f84       0x80 .build/obj_Dactylv2led_rev2_Default/quantum/quantum.o
                0x0000000000000f84                ascii_to_shift_lut
 .progmem.data.fn_actions
                0x0000000000001004        0x0 .build/obj_Dactylv2led_rev2_Default/quantum/keymap_common.o
                0x0000000000001004                fn_actions
 .progmem.data.RGBLED_GRADIENT_RANGES
                0x0000000000001004        0xa .build/obj_Dactylv2led_rev2_Default/quantum/rgblight.o
                0x0000000000001004                RGBLED_GRADIENT_RANGES
 .progmem.data.RGBLED_KNIGHT_INTERVALS
                0x000000000000100e        0x3 .build/obj_Dactylv2led_rev2_Default/quantum/rgblight.o
                0x000000000000100e                RGBLED_KNIGHT_INTERVALS
 .progmem.data.RGBLED_SNAKE_INTERVALS
                0x0000000000001011        0x3 .build/obj_Dactylv2led_rev2_Default/quantum/rgblight.o
                0x0000000000001011                RGBLED_SNAKE_INTERVALS
 .progmem.data.RGBLED_RAINBOW_SWIRL_INTERVALS
                0x0000000000001014        0x3 .build/obj_Dactylv2led_rev2_Default/quantum/rgblight.o
                0x0000000000001014                RGBLED_RAINBOW_SWIRL_INTERVALS
 .progmem.data.RGBLED_RAINBOW_MOOD_INTERVALS
                0x0000000000001017        0x3 .build/obj_Dactylv2led_rev2_Default/quantum/rgblight.o
                0x0000000000001017                RGBLED_RAINBOW_MOOD_INTERVALS
 .progmem.data.RGBLED_BREATHING_INTERVALS
                0x000000000000101a        0x4 .build/obj_Dactylv2led_rev2_Default/quantum/rgblight.o
                0x000000000000101a                RGBLED_BREATHING_INTERVALS
 .progmem.data.CIE1931_CURVE
                0x000000000000101e      0x100 .build/obj_Dactylv2led_rev2_Default/quantum/led_tables.o
                0x000000000000101e                CIE1931_CURVE
 .progmem.data.SerialNumberString
                0x000000000000111e        0x6 .build/obj_Dactylv2led_rev2_Default/usb_descriptor.o
                0x000000000000111e                SerialNumberString
 .progmem.data.ProductString
                0x0000000000001124       0x10 .build/obj_Dactylv2led_rev2_Default/usb_descriptor.o
                0x0000000000001124                ProductString
 .progmem.data.ManufacturerString
                0x0000000000001134       0x18 .build/obj_Dactylv2led_rev2_Default/usb_descriptor.o
                0x0000000000001134                ManufacturerString
 .progmem.data.LanguageString
                0x000000000000114c        0x4 .build/obj_Dactylv2led_rev2_Default/usb_descriptor.o
                0x000000000000114c                LanguageString
 .progmem.data.ConfigurationDescriptor
                0x0000000000001150       0x54 .build/obj_Dactylv2led_rev2_Default/usb_descriptor.o
                0x0000000000001150                ConfigurationDescriptor
 .progmem.data.DeviceDescriptor
                0x00000000000011a4       0x12 .build/obj_Dactylv2led_rev2_Default/usb_descriptor.o
                0x00000000000011a4                DeviceDescriptor
 .progmem.data.ExtrakeyReport
                0x00000000000011b6       0x36 .build/obj_Dactylv2led_rev2_Default/usb_descriptor.o
                0x00000000000011b6                ExtrakeyReport
 .progmem.data.MouseReport
                0x00000000000011ec       0x4d .build/obj_Dactylv2led_rev2_Default/usb_descriptor.o
                0x00000000000011ec                MouseReport
 .progmem.data.KeyboardReport
                0x0000000000001239       0x40 .build/obj_Dactylv2led_rev2_Default/usb_descriptor.o
                0x0000000000001239                KeyboardReport
                0x000000000000127a                . = ALIGN (0x2)
 *fill*         0x0000000000001279        0x1 
                0x000000000000127a                __trampolines_start = .
 *(.trampolines)
 .trampolines   0x000000000000127a        0x0 linker stubs
 *(.trampolines*)
                0x000000000000127a                __trampolines_end = .
 *(.jumptables)
 *(.jumptables*)
 *(.lowtext)
 *(.lowtext*)
                0x000000000000127a                __ctors_start = .
 *(.ctors)
                0x000000000000127a                __ctors_end = .
                0x000000000000127a                __dtors_start = .
 *(.dtors)
                0x000000000000127a                __dtors_end = .
 SORT(*)(.ctors)
 SORT(*)(.dtors)
 *(.init0)
 .init0         0x000000000000127a        0x0 /usr/lib/gcc/avr/4.8.2/../../../avr/lib/avr5/crtm32u4.o
                0x000000000000127a                __init
 *(.init0)
 *(.init1)
 *(.init1)
 *(.init2)
 .init2         0x000000000000127a        0xc /usr/lib/gcc/avr/4.8.2/../../../avr/lib/avr5/crtm32u4.o
 *(.init2)
 *(.init3)
 .init3         0x0000000000001286       0x4e .build/obj_Dactylv2led_rev2_Default/common/avr/bootloader.o
                0x0000000000001286                bootloader_jump_after_watchdog_reset
 *(.init3)
 *(.init4)
 .init4         0x00000000000012d4       0x16 /usr/lib/gcc/avr/4.8.2/avr5/libgcc.a(_copy_data.o)
                0x00000000000012d4                __do_copy_data
 .init4         0x00000000000012ea       0x10 /usr/lib/gcc/avr/4.8.2/avr5/libgcc.a(_clear_bss.o)
                0x00000000000012ea                __do_clear_bss
 *(.init4)
 *(.init5)
 *(.init5)
 *(.init6)
 *(.init6)
 *(.init7)
 *(.init7)
 *(.init8)
 *(.init8)
 *(.init9)
 .init9         0x00000000000012fa        0x8 /usr/lib/gcc/avr/4.8.2/../../../avr/lib/avr5/crtm32u4.o
 *(.init9)
 *(.text)
 .text          0x0000000000001302        0x4 /usr/lib/gcc/avr/4.8.2/../../../avr/lib/avr5/crtm32u4.o
                0x0000000000001302                __vector_38
                0x0000000000001302                __vector_22
                0x0000000000001302                __vector_28
                0x0000000000001302                __vector_32
                0x0000000000001302                __vector_34
                0x0000000000001302                __vector_24
                0x0000000000001302                __bad_interrupt
                0x0000000000001302                __vector_6
                0x0000000000001302                __vector_31
                0x0000000000001302                __vector_35
                0x0000000000001302                __vector_39
                0x0000000000001302                __vector_3
                0x0000000000001302                __vector_23
                0x0000000000001302                __vector_30
                0x0000000000001302                __vector_25
                0x0000000000001302                __vector_13
                0x0000000000001302                __vector_17
                0x0000000000001302                __vector_19
                0x0000000000001302                __vector_7
                0x0000000000001302                __vector_41
                0x0000000000001302                __vector_27
                0x0000000000001302                __vector_5
                0x0000000000001302                __vector_33
                0x0000000000001302                __vector_37
                0x0000000000001302                __vector_4
                0x0000000000001302                __vector_9
                0x0000000000001302                __vector_2
                0x0000000000001302                __vector_15
                0x0000000000001302                __vector_36
                0x0000000000001302                __vector_29
                0x0000000000001302                __vector_40
                0x0000000000001302                __vector_8
                0x0000000000001302                __vector_26
                0x0000000000001302                __vector_14
                0x0000000000001302                __vector_16
                0x0000000000001302                __vector_18
                0x0000000000001302                __vector_20
                0x0000000000001302                __vector_42
                0x0000000000001306                . = ALIGN (0x2)
 *(.text.*)
 .text.matrix_scan_kb
                0x0000000000001306        0x4 .build/obj_Dactylv2led_rev2_Default/matrix.o
                0x0000000000001306                matrix_scan_kb
 .text.matrix_init
                0x000000000000130a       0x9c .build/obj_Dactylv2led_rev2_Default/matrix.o
                0x000000000000130a                matrix_init
 .text._matrix_scan
                0x00000000000013a6      0x17c .build/obj_Dactylv2led_rev2_Default/matrix.o
                0x00000000000013a6                _matrix_scan
 .text.serial_transaction
                0x0000000000001522       0x4c .build/obj_Dactylv2led_rev2_Default/matrix.o
                0x0000000000001522                serial_transaction
 .text.matrix_scan
                0x000000000000156e       0x5e .build/obj_Dactylv2led_rev2_Default/matrix.o
                0x000000000000156e                matrix_scan
 .text.matrix_slave_scan
                0x00000000000015cc       0x38 .build/obj_Dactylv2led_rev2_Default/matrix.o
                0x00000000000015cc                matrix_slave_scan
 .text.matrix_get_row
                0x0000000000001604        0xc .build/obj_Dactylv2led_rev2_Default/matrix.o
                0x0000000000001604                matrix_get_row
 .text.matrix_print
                0x0000000000001610        0x2 .build/obj_Dactylv2led_rev2_Default/matrix.o
                0x0000000000001610                matrix_print
 .text.has_usb  0x0000000000001612       0x1a .build/obj_Dactylv2led_rev2_Default/split_util.o
                0x0000000000001612                has_usb
 .text.split_keyboard_setup
                0x000000000000162c       0x2e .build/obj_Dactylv2led_rev2_Default/split_util.o
                0x000000000000162c                split_keyboard_setup
 .text.keyboard_slave_loop
                0x000000000000165a        0xa .build/obj_Dactylv2led_rev2_Default/split_util.o
                0x000000000000165a                keyboard_slave_loop
 .text.matrix_setup
                0x0000000000001664       0x12 .build/obj_Dactylv2led_rev2_Default/split_util.o
                0x0000000000001664                matrix_setup
 .text.serial_output
                0x0000000000001676        0x4 .build/obj_Dactylv2led_rev2_Default/serial.o
 .text.serial_input
                0x000000000000167a        0x6 .build/obj_Dactylv2led_rev2_Default/serial.o
 .text.serial_high
                0x0000000000001680        0x4 .build/obj_Dactylv2led_rev2_Default/serial.o
 .text.serial_write_byte
                0x0000000000001684       0x3e .build/obj_Dactylv2led_rev2_Default/serial.o
 .text.sync_recv
                0x00000000000016c2       0x10 .build/obj_Dactylv2led_rev2_Default/serial.o
 .text.serial_read_byte
                0x00000000000016d2       0x24 .build/obj_Dactylv2led_rev2_Default/serial.o
 .text.sync_send
                0x00000000000016f6       0x10 .build/obj_Dactylv2led_rev2_Default/serial.o
 .text.serial_master_init
                0x0000000000001706        0x8 .build/obj_Dactylv2led_rev2_Default/serial.o
                0x0000000000001706                serial_master_init
 .text.serial_slave_init
                0x000000000000170e       0x12 .build/obj_Dactylv2led_rev2_Default/serial.o
                0x000000000000170e                serial_slave_init
 .text.__vector_1
                0x0000000000001720       0xe4 .build/obj_Dactylv2led_rev2_Default/serial.o
                0x0000000000001720                __vector_1
 .text.serial_update_buffers
                0x0000000000001804       0xb6 .build/obj_Dactylv2led_rev2_Default/serial.o
                0x0000000000001804                serial_update_buffers
 .text.matrix_init_kb
                0x00000000000018ba        0x4 .build/obj_Dactylv2led_rev2_Default/keyboards/Dactylv2led/rev2/rev2.o
                0x00000000000018ba                matrix_init_kb
 .text.cmd_commands
                0x00000000000018be       0x20 .build/obj_Dactylv2led_rev2_Default/keyboards/Dactylv2led/keymaps/Default/keymap.o
                0x00000000000018be                cmd_commands
 .text.cmd      0x00000000000018de       0x20 .build/obj_Dactylv2led_rev2_Default/keyboards/Dactylv2led/keymaps/Default/keymap.o
                0x00000000000018de                cmd
 .text.VirtualDesktop
                0x00000000000018fe       0x1c .build/obj_Dactylv2led_rev2_Default/keyboards/Dactylv2led/keymaps/Default/keymap.o
                0x00000000000018fe                VirtualDesktop
 .text.SLSH_BSLSH
                0x000000000000191a       0x1e .build/obj_Dactylv2led_rev2_Default/keyboards/Dactylv2led/keymaps/Default/keymap.o
                0x000000000000191a                SLSH_BSLSH
 .text.persistent_default_layer_set
                0x0000000000001938       0x18 .build/obj_Dactylv2led_rev2_Default/keyboards/Dactylv2led/keymaps/Default/keymap.o
                0x0000000000001938                persistent_default_layer_set
 .text.action_get_macro
                0x0000000000001950      0x11c .build/obj_Dactylv2led_rev2_Default/keyboards/Dactylv2led/keymaps/Default/keymap.o
                0x0000000000001950                action_get_macro
 .text.matrix_init_user
                0x0000000000001a6c        0x2 .build/obj_Dactylv2led_rev2_Default/keyboards/Dactylv2led/keymaps/Default/keymap.o
                0x0000000000001a6c                matrix_init_user
 .text.matrix_scan_user
                0x0000000000001a6e        0x2 .build/obj_Dactylv2led_rev2_Default/keyboards/Dactylv2led/keymaps/Default/keymap.o
                0x0000000000001a6e                matrix_scan_user
 .text.process_record_user
                0x0000000000001a70       0xa4 .build/obj_Dactylv2led_rev2_Default/keyboards/Dactylv2led/keymaps/Default/keymap.o
                0x0000000000001a70                process_record_user
 .text.process_action_kb
                0x0000000000001b14        0x4 .build/obj_Dactylv2led_rev2_Default/quantum/quantum.o
                0x0000000000001b14                process_action_kb
 .text.process_record_kb
                0x0000000000001b18        0x4 .build/obj_Dactylv2led_rev2_Default/quantum/quantum.o
                0x0000000000001b18                process_record_kb
 .text.reset_keyboard
                0x0000000000001b1c       0x26 .build/obj_Dactylv2led_rev2_Default/quantum/quantum.o
                0x0000000000001b1c                reset_keyboard
 .text.process_record_quantum
                0x0000000000001b42      0x56e .build/obj_Dactylv2led_rev2_Default/quantum/quantum.o
                0x0000000000001b42                process_record_quantum
 .text.send_char
                0x00000000000020b0       0x3e .build/obj_Dactylv2led_rev2_Default/quantum/quantum.o
                0x00000000000020b0                send_char
 .text.send_string_with_delay_P
                0x00000000000020ee       0x74 .build/obj_Dactylv2led_rev2_Default/quantum/quantum.o
                0x00000000000020ee                send_string_with_delay_P
 .text.send_string_P
                0x0000000000002162        0x6 .build/obj_Dactylv2led_rev2_Default/quantum/quantum.o
                0x0000000000002162                send_string_P
 .text.update_tri_layer_state
                0x0000000000002168       0xc0 .build/obj_Dactylv2led_rev2_Default/quantum/quantum.o
                0x0000000000002168                update_tri_layer_state
 .text.update_tri_layer
                0x0000000000002228       0x24 .build/obj_Dactylv2led_rev2_Default/quantum/quantum.o
                0x0000000000002228                update_tri_layer
 .text.matrix_init_quantum
                0x000000000000224c        0x4 .build/obj_Dactylv2led_rev2_Default/quantum/quantum.o
                0x000000000000224c                matrix_init_quantum
 .text.matrix_scan_quantum
                0x0000000000002250        0x8 .build/obj_Dactylv2led_rev2_Default/quantum/quantum.o
                0x0000000000002250                matrix_scan_quantum
 .text.led_set_user
                0x0000000000002258        0x2 .build/obj_Dactylv2led_rev2_Default/quantum/quantum.o
                0x0000000000002258                led_set_user
 .text.led_set_kb
                0x000000000000225a        0x4 .build/obj_Dactylv2led_rev2_Default/quantum/quantum.o
                0x000000000000225a                led_set_kb
 .text.led_set  0x000000000000225e        0x4 .build/obj_Dactylv2led_rev2_Default/quantum/quantum.o
                0x000000000000225e                led_set
 .text.action_function
                0x0000000000002262        0x2 .build/obj_Dactylv2led_rev2_Default/quantum/keymap_common.o
                0x0000000000002262                action_function
 .text.keymap_key_to_keycode
                0x0000000000002264       0x24 .build/obj_Dactylv2led_rev2_Default/quantum/keymap_common.o
                0x0000000000002264                keymap_key_to_keycode
 .text.keymap_function_id_to_action
                0x0000000000002288       0x10 .build/obj_Dactylv2led_rev2_Default/quantum/keymap_common.o
                0x0000000000002288                keymap_function_id_to_action
 .text.action_for_key
                0x0000000000002298      0x34e .build/obj_Dactylv2led_rev2_Default/quantum/keymap_common.o
                0x0000000000002298                action_for_key
 .text.keycode_config
                0x00000000000025e6       0xf8 .build/obj_Dactylv2led_rev2_Default/quantum/keycode_config.o
                0x00000000000025e6                keycode_config
 .text.mod_config
                0x00000000000026de       0x46 .build/obj_Dactylv2led_rev2_Default/quantum/keycode_config.o
                0x00000000000026de                mod_config
 .text.leader_start
                0x0000000000002724        0x2 .build/obj_Dactylv2led_rev2_Default/quantum/process_keycode/process_leader.o
                0x0000000000002724                leader_start
 .text.process_leader
                0x0000000000002726       0x98 .build/obj_Dactylv2led_rev2_Default/quantum/process_keycode/process_leader.o
                0x0000000000002726                process_leader
 .text.sethsv   0x00000000000027be       0xf0 .build/obj_Dactylv2led_rev2_Default/quantum/rgblight.o
                0x00000000000027be                sethsv
 .text.eeconfig_read_rgblight
                0x00000000000028ae        0x8 .build/obj_Dactylv2led_rev2_Default/quantum/rgblight.o
                0x00000000000028ae                eeconfig_read_rgblight
 .text.eeconfig_update_rgblight
                0x00000000000028b6        0xc .build/obj_Dactylv2led_rev2_Default/quantum/rgblight.o
                0x00000000000028b6                eeconfig_update_rgblight
 .text.eeconfig_update_rgblight_default
                0x00000000000028c2       0x26 .build/obj_Dactylv2led_rev2_Default/quantum/rgblight.o
                0x00000000000028c2                eeconfig_update_rgblight_default
 .text.rgblight_get_mode
                0x00000000000028e8       0x1c .build/obj_Dactylv2led_rev2_Default/quantum/rgblight.o
                0x00000000000028e8                rgblight_get_mode
 .text.rgblight_increase_speed
                0x0000000000002904       0x2a .build/obj_Dactylv2led_rev2_Default/quantum/rgblight.o
                0x0000000000002904                rgblight_increase_speed
 .text.rgblight_decrease_speed
                0x000000000000292e       0x32 .build/obj_Dactylv2led_rev2_Default/quantum/rgblight.o
                0x000000000000292e                rgblight_decrease_speed
 .text.rgblight_set
                0x0000000000002960       0x32 .build/obj_Dactylv2led_rev2_Default/quantum/rgblight.o
                0x0000000000002960                rgblight_set
 .text.rgblight_setrgb
                0x0000000000002992       0x2a .build/obj_Dactylv2led_rev2_Default/quantum/rgblight.o
                0x0000000000002992                rgblight_setrgb
 .text.rgblight_sethsv_noeeprom
                0x00000000000029bc       0x9c .build/obj_Dactylv2led_rev2_Default/quantum/rgblight.o
                0x00000000000029bc                rgblight_sethsv_noeeprom
 .text.rgblight_sethsv
                0x0000000000002a58      0x152 .build/obj_Dactylv2led_rev2_Default/quantum/rgblight.o
                0x0000000000002a58                rgblight_sethsv
 .text.rgblight_increase_hue
                0x0000000000002baa       0x32 .build/obj_Dactylv2led_rev2_Default/quantum/rgblight.o
                0x0000000000002baa                rgblight_increase_hue
 .text.rgblight_decrease_hue
                0x0000000000002bdc       0x3e .build/obj_Dactylv2led_rev2_Default/quantum/rgblight.o
                0x0000000000002bdc                rgblight_decrease_hue
 .text.rgblight_increase_sat
                0x0000000000002c1a       0x36 .build/obj_Dactylv2led_rev2_Default/quantum/rgblight.o
                0x0000000000002c1a                rgblight_increase_sat
 .text.rgblight_decrease_sat
                0x0000000000002c50       0x34 .build/obj_Dactylv2led_rev2_Default/quantum/rgblight.o
                0x0000000000002c50                rgblight_decrease_sat
 .text.rgblight_increase_val
                0x0000000000002c84       0x36 .build/obj_Dactylv2led_rev2_Default/quantum/rgblight.o
                0x0000000000002c84                rgblight_increase_val
 .text.rgblight_decrease_val
                0x0000000000002cba       0x34 .build/obj_Dactylv2led_rev2_Default/quantum/rgblight.o
                0x0000000000002cba                rgblight_decrease_val
 .text.rgblight_mode
                0x0000000000002cee       0x92 .build/obj_Dactylv2led_rev2_Default/quantum/rgblight.o
                0x0000000000002cee                rgblight_mode
 .text.rgblight_init
                0x0000000000002d80       0x68 .build/obj_Dactylv2led_rev2_Default/quantum/rgblight.o
                0x0000000000002d80                rgblight_init
 .text.rgblight_step
                0x0000000000002de8       0x14 .build/obj_Dactylv2led_rev2_Default/quantum/rgblight.o
                0x0000000000002de8                rgblight_step
 .text.rgblight_step_reverse
                0x0000000000002dfc       0x12 .build/obj_Dactylv2led_rev2_Default/quantum/rgblight.o
                0x0000000000002dfc                rgblight_step_reverse
 .text.rgblight_enable
                0x0000000000002e0e       0x28 .build/obj_Dactylv2led_rev2_Default/quantum/rgblight.o
                0x0000000000002e0e                rgblight_enable
 .text.rgblight_disable
                0x0000000000002e36       0x30 .build/obj_Dactylv2led_rev2_Default/quantum/rgblight.o
                0x0000000000002e36                rgblight_disable
 .text.rgblight_toggle
                0x0000000000002e66        0xe .build/obj_Dactylv2led_rev2_Default/quantum/rgblight.o
                0x0000000000002e66                rgblight_toggle
 .text.rgblight_effect_breathing
                0x0000000000002e74       0xac .build/obj_Dactylv2led_rev2_Default/quantum/rgblight.o
                0x0000000000002e74                rgblight_effect_breathing
 .text.rgblight_effect_rainbow_mood
                0x0000000000002f20       0x60 .build/obj_Dactylv2led_rev2_Default/quantum/rgblight.o
                0x0000000000002f20                rgblight_effect_rainbow_mood
 .text.rgblight_effect_rainbow_swirl
                0x0000000000002f80       0xbc .build/obj_Dactylv2led_rev2_Default/quantum/rgblight.o
                0x0000000000002f80                rgblight_effect_rainbow_swirl
 .text.rgblight_effect_snake
                0x000000000000303c      0x126 .build/obj_Dactylv2led_rev2_Default/quantum/rgblight.o
                0x000000000000303c                rgblight_effect_snake
 .text.rgblight_effect_knight
                0x0000000000003162      0x108 .build/obj_Dactylv2led_rev2_Default/quantum/rgblight.o
                0x0000000000003162                rgblight_effect_knight
 .text.rgblight_effect_christmas
                0x000000000000326a       0x9e .build/obj_Dactylv2led_rev2_Default/quantum/rgblight.o
                0x000000000000326a                rgblight_effect_christmas
 .text.rgblight_task
                0x0000000000003308       0x6e .build/obj_Dactylv2led_rev2_Default/quantum/rgblight.o
                0x0000000000003308                rgblight_task
 .text.ws2812_sendarray_mask
                0x0000000000003376       0x42 .build/obj_Dactylv2led_rev2_Default/ws2812.o
                0x0000000000003376                ws2812_sendarray_mask
 .text.ws2812_setleds_pin
                0x00000000000033b8       0x24 .build/obj_Dactylv2led_rev2_Default/ws2812.o
                0x00000000000033b8                ws2812_setleds_pin
 .text.ws2812_setleds
                0x00000000000033dc        0x6 .build/obj_Dactylv2led_rev2_Default/ws2812.o
                0x00000000000033dc                ws2812_setleds
 .text.process_tap_dance_action_on_dance_finished
                0x00000000000033e2       0x3c .build/obj_Dactylv2led_rev2_Default/quantum/process_keycode/process_tap_dance.o
 .text.reset_tap_dance
                0x000000000000341e       0x64 .build/obj_Dactylv2led_rev2_Default/quantum/process_keycode/process_tap_dance.o
                0x000000000000341e                reset_tap_dance
 .text.preprocess_tap_dance
                0x0000000000003482       0x82 .build/obj_Dactylv2led_rev2_Default/quantum/process_keycode/process_tap_dance.o
                0x0000000000003482                preprocess_tap_dance
 .text.process_tap_dance
                0x0000000000003504       0xae .build/obj_Dactylv2led_rev2_Default/quantum/process_keycode/process_tap_dance.o
                0x0000000000003504                process_tap_dance
 .text.matrix_scan_tap_dance
                0x00000000000035b2       0x7e .build/obj_Dactylv2led_rev2_Default/quantum/process_keycode/process_tap_dance.o
                0x00000000000035b2                matrix_scan_tap_dance
 .text.host_set_driver
                0x0000000000003630        0xa .build/obj_Dactylv2led_rev2_Default/common/host.o
                0x0000000000003630                host_set_driver
 .text.host_keyboard_leds
                0x000000000000363a       0x18 .build/obj_Dactylv2led_rev2_Default/common/host.o
                0x000000000000363a                host_keyboard_leds
 .text.host_keyboard_send
                0x0000000000003652       0x16 .build/obj_Dactylv2led_rev2_Default/common/host.o
                0x0000000000003652                host_keyboard_send
 .text.host_mouse_send
                0x0000000000003668       0x16 .build/obj_Dactylv2led_rev2_Default/common/host.o
                0x0000000000003668                host_mouse_send
 .text.host_system_send
                0x000000000000367e       0x2c .build/obj_Dactylv2led_rev2_Default/common/host.o
                0x000000000000367e                host_system_send
 .text.host_consumer_send
                0x00000000000036aa       0x2c .build/obj_Dactylv2led_rev2_Default/common/host.o
                0x00000000000036aa                host_consumer_send
 .text.keyboard_setup
                0x00000000000036d6        0x4 .build/obj_Dactylv2led_rev2_Default/common/keyboard.o
                0x00000000000036d6                keyboard_setup
 .text.is_keyboard_master
                0x00000000000036da        0x4 .build/obj_Dactylv2led_rev2_Default/common/keyboard.o
                0x00000000000036da                is_keyboard_master
 .text.keyboard_init
                0x00000000000036de       0x10 .build/obj_Dactylv2led_rev2_Default/common/keyboard.o
                0x00000000000036de                keyboard_init
 .text.keyboard_task
                0x00000000000036ee      0x150 .build/obj_Dactylv2led_rev2_Default/common/keyboard.o
                0x00000000000036ee                keyboard_task
 .text.action_exec
                0x000000000000383e       0x5c .build/obj_Dactylv2led_rev2_Default/common/action.o
                0x000000000000383e                action_exec
 .text.process_record_tap_hint
                0x000000000000389a        0xc .build/obj_Dactylv2led_rev2_Default/common/action.o
                0x000000000000389a                process_record_tap_hint
 .text.register_code
                0x00000000000038a6      0x21e .build/obj_Dactylv2led_rev2_Default/common/action.o
                0x00000000000038a6                register_code
 .text.unregister_code
                0x0000000000003ac4       0xc2 .build/obj_Dactylv2led_rev2_Default/common/action.o
                0x0000000000003ac4                unregister_code
 .text.register_mods
                0x0000000000003b86        0xe .build/obj_Dactylv2led_rev2_Default/common/action.o
                0x0000000000003b86                register_mods
 .text.unregister_mods
                0x0000000000003b94        0xe .build/obj_Dactylv2led_rev2_Default/common/action.o
                0x0000000000003b94                unregister_mods
 .text.process_action
                0x0000000000003ba2      0x51c .build/obj_Dactylv2led_rev2_Default/common/action.o
                0x0000000000003ba2                process_action
 .text.process_record
                0x00000000000040be       0x58 .build/obj_Dactylv2led_rev2_Default/common/action.o
                0x00000000000040be                process_record
 .text.clear_keyboard_but_mods
                0x0000000000004116       0x30 .build/obj_Dactylv2led_rev2_Default/common/action.o
                0x0000000000004116                clear_keyboard_but_mods
 .text.clear_keyboard
                0x0000000000004146        0x8 .build/obj_Dactylv2led_rev2_Default/common/action.o
                0x0000000000004146                clear_keyboard
 .text.is_tap_key
                0x000000000000414e       0x46 .build/obj_Dactylv2led_rev2_Default/common/action.o
                0x000000000000414e                is_tap_key
 .text.debug_event
                0x0000000000004194       0x1e .build/obj_Dactylv2led_rev2_Default/common/action.o
                0x0000000000004194                debug_event
 .text.debug_record
                0x00000000000041b2       0x20 .build/obj_Dactylv2led_rev2_Default/common/action.o
                0x00000000000041b2                debug_record
 .text.debug_waiting_buffer
                0x00000000000041d2       0x42 .build/obj_Dactylv2led_rev2_Default/common/action_tapping.o
 .text.debug_tapping_key
                0x0000000000004214       0x1c .build/obj_Dactylv2led_rev2_Default/common/action_tapping.o
 .text.waiting_buffer_typed.isra.1
                0x0000000000004230       0x40 .build/obj_Dactylv2led_rev2_Default/common/action_tapping.o
 .text.waiting_buffer_scan_tap
                0x0000000000004270       0xd0 .build/obj_Dactylv2led_rev2_Default/common/action_tapping.o
 .text.process_tapping
                0x0000000000004340      0x40c .build/obj_Dactylv2led_rev2_Default/common/action_tapping.o
 .text.action_tapping_process
                0x000000000000474c      0x15a .build/obj_Dactylv2led_rev2_Default/common/action_tapping.o
                0x000000000000474c                action_tapping_process
 .text.action_macro_play
                0x00000000000048a6      0x104 .build/obj_Dactylv2led_rev2_Default/common/action_macro.o
                0x00000000000048a6                action_macro_play
 .text.default_layer_state_set_kb
                0x00000000000049aa        0x2 .build/obj_Dactylv2led_rev2_Default/common/action_layer.o
                0x00000000000049aa                default_layer_state_set_kb
 .text.default_layer_state_set
                0x00000000000049ac       0x18 .build/obj_Dactylv2led_rev2_Default/common/action_layer.o
 .text.default_layer_debug
                0x00000000000049c4        0x2 .build/obj_Dactylv2led_rev2_Default/common/action_layer.o
                0x00000000000049c4                default_layer_debug
 .text.default_layer_set
                0x00000000000049c6        0x4 .build/obj_Dactylv2led_rev2_Default/common/action_layer.o
                0x00000000000049c6                default_layer_set
 .text.default_layer_or
                0x00000000000049ca       0x24 .build/obj_Dactylv2led_rev2_Default/common/action_layer.o
                0x00000000000049ca                default_layer_or
 .text.default_layer_and
                0x00000000000049ee       0x24 .build/obj_Dactylv2led_rev2_Default/common/action_layer.o
                0x00000000000049ee                default_layer_and
 .text.default_layer_xor
                0x0000000000004a12       0x24 .build/obj_Dactylv2led_rev2_Default/common/action_layer.o
                0x0000000000004a12                default_layer_xor
 .text.layer_state_set_user
                0x0000000000004a36        0x2 .build/obj_Dactylv2led_rev2_Default/common/action_layer.o
                0x0000000000004a36                layer_state_set_user
 .text.layer_state_set_kb
                0x0000000000004a38        0x4 .build/obj_Dactylv2led_rev2_Default/common/action_layer.o
                0x0000000000004a38                layer_state_set_kb
 .text.layer_state_set
                0x0000000000004a3c       0x18 .build/obj_Dactylv2led_rev2_Default/common/action_layer.o
                0x0000000000004a3c                layer_state_set
 .text.layer_clear
                0x0000000000004a54        0xa .build/obj_Dactylv2led_rev2_Default/common/action_layer.o
                0x0000000000004a54                layer_clear
 .text.layer_move
                0x0000000000004a5e       0x1e .build/obj_Dactylv2led_rev2_Default/common/action_layer.o
                0x0000000000004a5e                layer_move
 .text.layer_on
                0x0000000000004a7c       0x36 .build/obj_Dactylv2led_rev2_Default/common/action_layer.o
                0x0000000000004a7c                layer_on
 .text.layer_off
                0x0000000000004ab2       0x3e .build/obj_Dactylv2led_rev2_Default/common/action_layer.o
                0x0000000000004ab2                layer_off
 .text.layer_invert
                0x0000000000004af0       0x36 .build/obj_Dactylv2led_rev2_Default/common/action_layer.o
                0x0000000000004af0                layer_invert
 .text.layer_or
                0x0000000000004b26       0x24 .build/obj_Dactylv2led_rev2_Default/common/action_layer.o
                0x0000000000004b26                layer_or
 .text.layer_and
                0x0000000000004b4a       0x24 .build/obj_Dactylv2led_rev2_Default/common/action_layer.o
                0x0000000000004b4a                layer_and
 .text.layer_xor
                0x0000000000004b6e       0x24 .build/obj_Dactylv2led_rev2_Default/common/action_layer.o
                0x0000000000004b6e                layer_xor
 .text.layer_debug
                0x0000000000004b92        0x2 .build/obj_Dactylv2led_rev2_Default/common/action_layer.o
                0x0000000000004b92                layer_debug
 .text.layer_switch_get_layer
                0x0000000000004b94       0x80 .build/obj_Dactylv2led_rev2_Default/common/action_layer.o
                0x0000000000004b94                layer_switch_get_layer
 .text.layer_switch_get_action
                0x0000000000004c14       0x16 .build/obj_Dactylv2led_rev2_Default/common/action_layer.o
                0x0000000000004c14                layer_switch_get_action
 .text.store_or_get_action
                0x0000000000004c2a        0x8 .build/obj_Dactylv2led_rev2_Default/common/action_layer.o
                0x0000000000004c2a                store_or_get_action
 .text.get_oneshot_layer
                0x0000000000004c32        0xc .build/obj_Dactylv2led_rev2_Default/common/action_util.o
                0x0000000000004c32                get_oneshot_layer
 .text.get_oneshot_layer_state
                0x0000000000004c3e        0x8 .build/obj_Dactylv2led_rev2_Default/common/action_util.o
                0x0000000000004c3e                get_oneshot_layer_state
 .text.set_oneshot_layer
                0x0000000000004c46       0x12 .build/obj_Dactylv2led_rev2_Default/common/action_util.o
                0x0000000000004c46                set_oneshot_layer
 .text.clear_oneshot_layer_state
                0x0000000000004c58       0x2e .build/obj_Dactylv2led_rev2_Default/common/action_util.o
                0x0000000000004c58                clear_oneshot_layer_state
 .text.is_oneshot_layer_active
                0x0000000000004c86        0xe .build/obj_Dactylv2led_rev2_Default/common/action_util.o
                0x0000000000004c86                is_oneshot_layer_active
 .text.send_keyboard_report
                0x0000000000004c94       0x66 .build/obj_Dactylv2led_rev2_Default/common/action_util.o
                0x0000000000004c94                send_keyboard_report
 .text.get_mods
                0x0000000000004cfa        0x6 .build/obj_Dactylv2led_rev2_Default/common/action_util.o
                0x0000000000004cfa                get_mods
 .text.add_mods
                0x0000000000004d00        0xc .build/obj_Dactylv2led_rev2_Default/common/action_util.o
                0x0000000000004d00                add_mods
 .text.del_mods
                0x0000000000004d0c        0xe .build/obj_Dactylv2led_rev2_Default/common/action_util.o
                0x0000000000004d0c                del_mods
 .text.clear_mods
                0x0000000000004d1a        0x6 .build/obj_Dactylv2led_rev2_Default/common/action_util.o
                0x0000000000004d1a                clear_mods
 .text.get_weak_mods
                0x0000000000004d20        0x6 .build/obj_Dactylv2led_rev2_Default/common/action_util.o
                0x0000000000004d20                get_weak_mods
 .text.add_weak_mods
                0x0000000000004d26        0xc .build/obj_Dactylv2led_rev2_Default/common/action_util.o
                0x0000000000004d26                add_weak_mods
 .text.del_weak_mods
                0x0000000000004d32        0xe .build/obj_Dactylv2led_rev2_Default/common/action_util.o
                0x0000000000004d32                del_weak_mods
 .text.clear_weak_mods
                0x0000000000004d40        0x6 .build/obj_Dactylv2led_rev2_Default/common/action_util.o
                0x0000000000004d40                clear_weak_mods
 .text.add_macro_mods
                0x0000000000004d46        0xc .build/obj_Dactylv2led_rev2_Default/common/action_util.o
                0x0000000000004d46                add_macro_mods
 .text.del_macro_mods
                0x0000000000004d52        0xe .build/obj_Dactylv2led_rev2_Default/common/action_util.o
                0x0000000000004d52                del_macro_mods
 .text.clear_macro_mods
                0x0000000000004d60        0x6 .build/obj_Dactylv2led_rev2_Default/common/action_util.o
                0x0000000000004d60                clear_macro_mods
 .text.set_oneshot_mods
                0x0000000000004d66        0x6 .build/obj_Dactylv2led_rev2_Default/common/action_util.o
                0x0000000000004d66                set_oneshot_mods
 .text.clear_oneshot_mods
                0x0000000000004d6c        0x6 .build/obj_Dactylv2led_rev2_Default/common/action_util.o
                0x0000000000004d6c                clear_oneshot_mods
 .text.get_oneshot_mods
                0x0000000000004d72        0x6 .build/obj_Dactylv2led_rev2_Default/common/action_util.o
                0x0000000000004d72                get_oneshot_mods
 .text.eeconfig_init
                0x0000000000004d78       0x42 .build/obj_Dactylv2led_rev2_Default/common/eeconfig.o
                0x0000000000004d78                eeconfig_init
 .text.eeconfig_is_enabled
                0x0000000000004dba       0x16 .build/obj_Dactylv2led_rev2_Default/common/eeconfig.o
                0x0000000000004dba                eeconfig_is_enabled
 .text.eeconfig_read_debug
                0x0000000000004dd0        0x8 .build/obj_Dactylv2led_rev2_Default/common/eeconfig.o
                0x0000000000004dd0                eeconfig_read_debug
 .text.eeconfig_read_default_layer
                0x0000000000004dd8        0x8 .build/obj_Dactylv2led_rev2_Default/common/eeconfig.o
                0x0000000000004dd8                eeconfig_read_default_layer
 .text.eeconfig_update_default_layer
                0x0000000000004de0        0xa .build/obj_Dactylv2led_rev2_Default/common/eeconfig.o
                0x0000000000004de0                eeconfig_update_default_layer
 .text.eeconfig_read_keymap
                0x0000000000004dea        0x8 .build/obj_Dactylv2led_rev2_Default/common/eeconfig.o
                0x0000000000004dea                eeconfig_read_keymap
 .text.eeconfig_update_keymap
                0x0000000000004df2        0xa .build/obj_Dactylv2led_rev2_Default/common/eeconfig.o
                0x0000000000004df2                eeconfig_update_keymap
 .text.has_anykey
                0x0000000000004dfc       0x20 .build/obj_Dactylv2led_rev2_Default/common/report.o
                0x0000000000004dfc                has_anykey
 .text.add_key_byte
                0x0000000000004e1c       0x3a .build/obj_Dactylv2led_rev2_Default/common/report.o
                0x0000000000004e1c                add_key_byte
 .text.del_key_byte
                0x0000000000004e56       0x1e .build/obj_Dactylv2led_rev2_Default/common/report.o
                0x0000000000004e56                del_key_byte
 .text.add_key_to_report
                0x0000000000004e74        0x4 .build/obj_Dactylv2led_rev2_Default/common/report.o
                0x0000000000004e74                add_key_to_report
 .text.del_key_from_report
                0x0000000000004e78        0x4 .build/obj_Dactylv2led_rev2_Default/common/report.o
                0x0000000000004e78                del_key_from_report
 .text.clear_keys_from_report
                0x0000000000004e7c       0x18 .build/obj_Dactylv2led_rev2_Default/common/report.o
                0x0000000000004e7c                clear_keys_from_report
 .text.suspend_power_down
                0x0000000000004e94       0x52 .build/obj_Dactylv2led_rev2_Default/common/avr/suspend.o
                0x0000000000004e94                suspend_power_down
 .text.matrix_power_up
                0x0000000000004ee6        0x2 .build/obj_Dactylv2led_rev2_Default/common/avr/suspend.o
                0x0000000000004ee6                matrix_power_up
 .text.matrix_power_down
                0x0000000000004ee8        0x2 .build/obj_Dactylv2led_rev2_Default/common/avr/suspend.o
                0x0000000000004ee8                matrix_power_down
 .text.suspend_wakeup_condition
                0x0000000000004eea       0x2a .build/obj_Dactylv2led_rev2_Default/common/avr/suspend.o
                0x0000000000004eea                suspend_wakeup_condition
 .text.suspend_wakeup_init
                0x0000000000004f14        0xc .build/obj_Dactylv2led_rev2_Default/common/avr/suspend.o
                0x0000000000004f14                suspend_wakeup_init
 .text.__vector_12
                0x0000000000004f20       0x52 .build/obj_Dactylv2led_rev2_Default/common/avr/suspend.o
                0x0000000000004f20                __vector_12
 .text.timer_init
                0x0000000000004f72       0x12 .build/obj_Dactylv2led_rev2_Default/common/avr/timer.o
                0x0000000000004f72                timer_init
 .text.timer_read
                0x0000000000004f84       0x18 .build/obj_Dactylv2led_rev2_Default/common/avr/timer.o
                0x0000000000004f84                timer_read
 .text.timer_elapsed
                0x0000000000004f9c       0x52 .build/obj_Dactylv2led_rev2_Default/common/avr/timer.o
                0x0000000000004f9c                timer_elapsed
 .text.__vector_21
                0x0000000000004fee       0x4c .build/obj_Dactylv2led_rev2_Default/common/avr/timer.o
                0x0000000000004fee                __vector_21
 .text.bootloader_jump
                0x000000000000503a       0x24 .build/obj_Dactylv2led_rev2_Default/common/avr/bootloader.o
                0x000000000000503a                bootloader_jump
 .text.magic    0x000000000000505e       0x32 .build/obj_Dactylv2led_rev2_Default/common/magic.o
                0x000000000000505e                magic
 .text.move_unit
                0x0000000000005090       0x90 .build/obj_Dactylv2led_rev2_Default/common/mousekey.o
 .text.wheel_unit
                0x0000000000005120       0x72 .build/obj_Dactylv2led_rev2_Default/common/mousekey.o
 .text.mousekey_on
                0x0000000000005192       0xd0 .build/obj_Dactylv2led_rev2_Default/common/mousekey.o
                0x0000000000005192                mousekey_on
 .text.mousekey_off
                0x0000000000005262      0x10a .build/obj_Dactylv2led_rev2_Default/common/mousekey.o
                0x0000000000005262                mousekey_off
 .text.mousekey_send
                0x000000000000536c       0x16 .build/obj_Dactylv2led_rev2_Default/common/mousekey.o
                0x000000000000536c                mousekey_send
 .text.mousekey_task
                0x0000000000005382      0x112 .build/obj_Dactylv2led_rev2_Default/common/mousekey.o
                0x0000000000005382                mousekey_task
 .text.mousekey_clear
                0x0000000000005494       0x18 .build/obj_Dactylv2led_rev2_Default/common/mousekey.o
                0x0000000000005494                mousekey_clear
 .text.mousekey_param_inc
                0x00000000000054ac       0xec .build/obj_Dactylv2led_rev2_Default/common/command.o
 .text.mousekey_param_dec
                0x0000000000005598       0xa0 .build/obj_Dactylv2led_rev2_Default/common/command.o
 .text.command_common
                0x0000000000005638      0x144 .build/obj_Dactylv2led_rev2_Default/common/command.o
 .text.command_extra
                0x000000000000577c        0x4 .build/obj_Dactylv2led_rev2_Default/common/command.o
                0x000000000000577c                command_extra
 .text.command_console_extra
                0x0000000000005780        0x4 .build/obj_Dactylv2led_rev2_Default/common/command.o
                0x0000000000005780                command_console_extra
 .text.numkey2num
                0x0000000000005784       0x16 .build/obj_Dactylv2led_rev2_Default/common/command.o
                0x0000000000005784                numkey2num
 .text.command_proc
                0x000000000000579a      0x128 .build/obj_Dactylv2led_rev2_Default/common/command.o
                0x000000000000579a                command_proc
 .text.keyboard_leds
                0x00000000000058c2        0x6 .build/obj_Dactylv2led_rev2_Default/lufa.o
 .text.send_consumer
                0x00000000000058c8       0x74 .build/obj_Dactylv2led_rev2_Default/lufa.o
 .text.send_system
                0x000000000000593c       0x6c .build/obj_Dactylv2led_rev2_Default/lufa.o
 .text.send_mouse
                0x00000000000059a8       0x56 .build/obj_Dactylv2led_rev2_Default/lufa.o
 .text.send_keyboard
                0x00000000000059fe       0x66 .build/obj_Dactylv2led_rev2_Default/lufa.o
 .text.EVENT_USB_Device_Connect
                0x0000000000005a64       0x1c .build/obj_Dactylv2led_rev2_Default/lufa.o
                0x0000000000005a64                EVENT_USB_Device_Connect
 .text.EVENT_USB_Device_Disconnect
                0x0000000000005a80        0x6 .build/obj_Dactylv2led_rev2_Default/lufa.o
                0x0000000000005a80                EVENT_USB_Device_Disconnect
 .text.EVENT_USB_Device_Reset
                0x0000000000005a86        0x2 .build/obj_Dactylv2led_rev2_Default/lufa.o
                0x0000000000005a86                EVENT_USB_Device_Reset
 .text.EVENT_USB_Device_Suspend
                0x0000000000005a88        0x2 .build/obj_Dactylv2led_rev2_Default/lufa.o
                0x0000000000005a88                EVENT_USB_Device_Suspend
 .text.EVENT_USB_Device_WakeUp
                0x0000000000005a8a        0x4 .build/obj_Dactylv2led_rev2_Default/lufa.o
                0x0000000000005a8a                EVENT_USB_Device_WakeUp
 .text.EVENT_USB_Device_ConfigurationChanged
                0x0000000000005a8e       0x1e .build/obj_Dactylv2led_rev2_Default/lufa.o
                0x0000000000005a8e                EVENT_USB_Device_ConfigurationChanged
 .text.EVENT_USB_Device_ControlRequest
                0x0000000000005aac      0x160 .build/obj_Dactylv2led_rev2_Default/lufa.o
                0x0000000000005aac                EVENT_USB_Device_ControlRequest
 .text.startup.main
                0x0000000000005c0c       0x74 .build/obj_Dactylv2led_rev2_Default/lufa.o
                0x0000000000005c0c                main
 .text.CALLBACK_USB_GetDescriptor
                0x0000000000005c80        0x4 .build/obj_Dactylv2led_rev2_Default/lufa.o
                0x0000000000005c80                CALLBACK_USB_GetDescriptor
 .text.get_usb_descriptor
                0x0000000000005c84       0xbe .build/obj_Dactylv2led_rev2_Default/usb_descriptor.o
                0x0000000000005c84                get_usb_descriptor
 .text.set_output_user
                0x0000000000005d42        0x2 .build/obj_Dactylv2led_rev2_Default/outputselect.o
                0x0000000000005d42                set_output_user
 .text.set_output
                0x0000000000005d44       0x10 .build/obj_Dactylv2led_rev2_Default/outputselect.o
                0x0000000000005d44                set_output
 .text.auto_detect_output
                0x0000000000005d54       0x10 .build/obj_Dactylv2led_rev2_Default/outputselect.o
                0x0000000000005d54                auto_detect_output
 .text.where_to_send
                0x0000000000005d64        0xe .build/obj_Dactylv2led_rev2_Default/outputselect.o
                0x0000000000005d64                where_to_send
 .text.USB_Device_SendRemoteWakeup
                0x0000000000005d72       0x2c .build/obj_Dactylv2led_rev2_Default/./lib/lufa/LUFA/Drivers/USB/Core/AVR8/Device_AVR8.o
                0x0000000000005d72                USB_Device_SendRemoteWakeup
 .text.Endpoint_Write_Stream_LE
                0x0000000000005d9e       0x92 .build/obj_Dactylv2led_rev2_Default/./lib/lufa/LUFA/Drivers/USB/Core/AVR8/EndpointStream_AVR8.o
                0x0000000000005d9e                Endpoint_Write_Stream_LE
 .text.Endpoint_Write_Control_Stream_LE
                0x0000000000005e30       0xc2 .build/obj_Dactylv2led_rev2_Default/./lib/lufa/LUFA/Drivers/USB/Core/AVR8/EndpointStream_AVR8.o
                0x0000000000005e30                Endpoint_Write_Control_Stream_LE
 .text.Endpoint_Write_Control_PStream_LE
                0x0000000000005ef2       0xc4 .build/obj_Dactylv2led_rev2_Default/./lib/lufa/LUFA/Drivers/USB/Core/AVR8/EndpointStream_AVR8.o
                0x0000000000005ef2                Endpoint_Write_Control_PStream_LE
 .text.Endpoint_ConfigureEndpoint_Prv
                0x0000000000005fb6       0x6a .build/obj_Dactylv2led_rev2_Default/./lib/lufa/LUFA/Drivers/USB/Core/AVR8/Endpoint_AVR8.o
                0x0000000000005fb6                Endpoint_ConfigureEndpoint_Prv
 .text.Endpoint_ClearStatusStage
                0x0000000000006020       0x42 .build/obj_Dactylv2led_rev2_Default/./lib/lufa/LUFA/Drivers/USB/Core/AVR8/Endpoint_AVR8.o
                0x0000000000006020                Endpoint_ClearStatusStage
 .text.Endpoint_WaitUntilReady
                0x0000000000006062       0x60 .build/obj_Dactylv2led_rev2_Default/./lib/lufa/LUFA/Drivers/USB/Core/AVR8/Endpoint_AVR8.o
                0x0000000000006062                Endpoint_WaitUntilReady
 .text.USB_Disable
                0x00000000000060c2       0x34 .build/obj_Dactylv2led_rev2_Default/./lib/lufa/LUFA/Drivers/USB/Core/AVR8/USBController_AVR8.o
                0x00000000000060c2                USB_Disable
 .text.USB_ResetInterface
                0x00000000000060f6       0x86 .build/obj_Dactylv2led_rev2_Default/./lib/lufa/LUFA/Drivers/USB/Core/AVR8/USBController_AVR8.o
                0x00000000000060f6                USB_ResetInterface
 .text.USB_Init
                0x000000000000617c       0x22 .build/obj_Dactylv2led_rev2_Default/./lib/lufa/LUFA/Drivers/USB/Core/AVR8/USBController_AVR8.o
                0x000000000000617c                USB_Init
 .text.USB_INT_DisableAllInterrupts
                0x000000000000619e       0x10 .build/obj_Dactylv2led_rev2_Default/./lib/lufa/LUFA/Drivers/USB/Core/AVR8/USBInterrupt_AVR8.o
                0x000000000000619e                USB_INT_DisableAllInterrupts
 .text.USB_INT_ClearAllInterrupts
                0x00000000000061ae        0xa .build/obj_Dactylv2led_rev2_Default/./lib/lufa/LUFA/Drivers/USB/Core/AVR8/USBInterrupt_AVR8.o
                0x00000000000061ae                USB_INT_ClearAllInterrupts
 .text.__vector_10
                0x00000000000061b8      0x1a4 .build/obj_Dactylv2led_rev2_Default/./lib/lufa/LUFA/Drivers/USB/Core/AVR8/USBInterrupt_AVR8.o
                0x00000000000061b8                __vector_10
 .text.__vector_11
                0x000000000000635c       0x78 .build/obj_Dactylv2led_rev2_Default/./lib/lufa/LUFA/Drivers/USB/Core/AVR8/USBInterrupt_AVR8.o
                0x000000000000635c                __vector_11
 .text.USB_Device_ProcessControlRequest
                0x00000000000063d4      0x2ac .build/obj_Dactylv2led_rev2_Default/./lib/lufa/LUFA/Drivers/USB/Core/DeviceStandardReq.o
                0x00000000000063d4                USB_Device_ProcessControlRequest
 .text.USB_Event_Stub
                0x0000000000006680        0x2 .build/obj_Dactylv2led_rev2_Default/./lib/lufa/LUFA/Drivers/USB/Core/Events.o
                0x0000000000006680                USB_Event_Stub
                0x0000000000006680                EVENT_USB_Device_StartOfFrame
 .text.USB_USBTask
                0x0000000000006682       0x3a .build/obj_Dactylv2led_rev2_Default/./lib/lufa/LUFA/Drivers/USB/Core/USBTask.o
                0x0000000000006682                USB_USBTask
 .text.avr-libc.fplib
                0x00000000000066bc        0xa /usr/lib/gcc/avr/4.8.2/../../../avr/lib/avr5/libm.a(addsf3.o)
                0x00000000000066bc                __subsf3
                0x00000000000066be                __addsf3
 .text.avr-libc.fplib
                0x00000000000066c6       0xc0 /usr/lib/gcc/avr/4.8.2/../../../avr/lib/avr5/libm.a(addsf3x.o)
                0x00000000000066e0                __addsf3x
 .text.avr-libc.fplib
                0x0000000000006786        0x4 /usr/lib/gcc/avr/4.8.2/../../../avr/lib/avr5/libm.a(divsf3.o)
                0x0000000000006786                __divsf3
 .text.avr-libc.fplib
                0x000000000000678a       0xcc /usr/lib/gcc/avr/4.8.2/../../../avr/lib/avr5/libm.a(divsf3x.o)
                0x00000000000067a0                __divsf3x
                0x00000000000067a4                __divsf3_pse
 .text.avr-libc.fplib
                0x0000000000006856       0x62 /usr/lib/gcc/avr/4.8.2/../../../avr/lib/avr5/libm.a(exp.o)
                0x0000000000006860                exp
 .text.avr-libc.fplib
                0x00000000000068b8       0x58 /usr/lib/gcc/avr/4.8.2/../../../avr/lib/avr5/libm.a(fixunssfsi.o)
                0x00000000000068b8                __fixunssfsi
 .text.avr-libc.fplib
                0x0000000000006910       0x7a /usr/lib/gcc/avr/4.8.2/../../../avr/lib/avr5/libm.a(floatsisf.o)
                0x0000000000006910                __floatunsisf
                0x0000000000006914                __floatsisf
 .text.avr-libc.fplib
                0x000000000000698a        0xc /usr/lib/gcc/avr/4.8.2/../../../avr/lib/avr5/libm.a(fp_inf.o)
                0x000000000000698a                __fp_inf
 .text.avr-libc.fplib
                0x0000000000006996        0x6 /usr/lib/gcc/avr/4.8.2/../../../avr/lib/avr5/libm.a(fp_nan.o)
                0x0000000000006996                __fp_nan
 .text.avr-libc.fplib
                0x000000000000699c       0x4a /usr/lib/gcc/avr/4.8.2/../../../avr/lib/avr5/libm.a(fp_powser.o)
                0x000000000000699c                __fp_powser
 .text.avr-libc.fplib
                0x00000000000069e6        0xe /usr/lib/gcc/avr/4.8.2/../../../avr/lib/avr5/libm.a(fp_pscA.o)
                0x00000000000069e6                __fp_pscA
 .text.avr-libc.fplib
                0x00000000000069f4        0xe /usr/lib/gcc/avr/4.8.2/../../../avr/lib/avr5/libm.a(fp_pscB.o)
                0x00000000000069f4                __fp_pscB
 .text.avr-libc.fplib
                0x0000000000006a02       0x22 /usr/lib/gcc/avr/4.8.2/../../../avr/lib/avr5/libm.a(fp_round.o)
                0x0000000000006a02                __fp_round
 .text.avr-libc.fplib
                0x0000000000006a24       0x44 /usr/lib/gcc/avr/4.8.2/../../../avr/lib/avr5/libm.a(fp_split3.o)
                0x0000000000006a24                __fp_split3
                0x0000000000006a34                __fp_splitA
 .text.avr-libc.fplib
                0x0000000000006a68        0xe /usr/lib/gcc/avr/4.8.2/../../../avr/lib/avr5/libm.a(fp_zero.o)
                0x0000000000006a68                __fp_zero
                0x0000000000006a6a                __fp_szero
 .text.avr-libc.fplib
                0x0000000000006a76        0xe /usr/lib/gcc/avr/4.8.2/../../../avr/lib/avr5/libm.a(inverse.o)
                0x0000000000006a76                inverse
 .text.avr-libc.fplib
                0x0000000000006a84       0x6c /usr/lib/gcc/avr/4.8.2/../../../avr/lib/avr5/libm.a(ldexp.o)
                0x0000000000006a88                ldexp
 .text.avr-libc.fplib
                0x0000000000006af0       0x66 /usr/lib/gcc/avr/4.8.2/../../../avr/lib/avr5/libm.a(modf.o)
                0x0000000000006af0                modff
                0x0000000000006af0                modf
 .text.avr-libc.fplib
                0x0000000000006b56        0x4 /usr/lib/gcc/avr/4.8.2/../../../avr/lib/avr5/libm.a(mulsf3.o)
                0x0000000000006b56                __mulsf3
 .text.avr-libc.fplib
                0x0000000000006b5a       0xc2 /usr/lib/gcc/avr/4.8.2/../../../avr/lib/avr5/libm.a(mulsf3x.o)
                0x0000000000006b6e                __mulsf3x
                0x0000000000006b72                __mulsf3_pse
 .text.avr-libc.fplib
                0x0000000000006c1c        0xc /usr/lib/gcc/avr/4.8.2/../../../avr/lib/avr5/libm.a(sin.o)
                0x0000000000006c1c                sin
 .text.avr-libc.fplib
                0x0000000000006c28       0x1c /usr/lib/gcc/avr/4.8.2/../../../avr/lib/avr5/libm.a(fp_mpack.o)
                0x0000000000006c28                __fp_mpack
                0x0000000000006c2c                __fp_mpack_finite
 .text.avr-libc.fplib
                0x0000000000006c44       0x50 /usr/lib/gcc/avr/4.8.2/../../../avr/lib/avr5/libm.a(fp_rempio2.o)
                0x0000000000006c46                __fp_rempio2
 .text.avr-libc.fplib
                0x0000000000006c94       0x22 /usr/lib/gcc/avr/4.8.2/../../../avr/lib/avr5/libm.a(fp_sinus.o)
                0x0000000000006c94                __fp_sinus
 .text.avr-libc.fplib
                0x0000000000006cb6       0x22 /usr/lib/gcc/avr/4.8.2/../../../avr/lib/avr5/libm.a(fp_powsodd.o)
                0x0000000000006cb6                __fp_powsodd
 .text.libgcc.div
                0x0000000000006cd8       0x28 /usr/lib/gcc/avr/4.8.2/avr5/libgcc.a(_udivmodhi4.o)
                0x0000000000006cd8                __udivmodhi4
 .text.libgcc.div
                0x0000000000006d00       0x28 /usr/lib/gcc/avr/4.8.2/avr5/libgcc.a(_divmodhi4.o)
                0x0000000000006d00                __divmodhi4
                0x0000000000006d00                _div
 .text.libgcc   0x0000000000006d28        0xc /usr/lib/gcc/avr/4.8.2/avr5/libgcc.a(_tablejump.o)
                0x0000000000006d28                __tablejump2__
                0x0000000000006d2c                __tablejump__
 .text.avr-libc
                0x0000000000006d34       0x10 /usr/lib/gcc/avr/4.8.2/../../../avr/lib/avr5/libc.a(eerd_byte_atmega32u4.o)
                0x0000000000006d34                __eerd_byte_m32u4
 .text.avr-libc
                0x0000000000006d44        0xc /usr/lib/gcc/avr/4.8.2/../../../avr/lib/avr5/libc.a(eerd_dword_atmega32u4.o)
                0x0000000000006d44                __eerd_dword_m32u4
                0x0000000000006d44                __eerd_float_m32u4
 .text.avr-libc
                0x0000000000006d50        0xc /usr/lib/gcc/avr/4.8.2/../../../avr/lib/avr5/libc.a(eerd_word_atmega32u4.o)
                0x0000000000006d50                __eerd_word_m32u4
 .text.avr-libc
                0x0000000000006d5c       0x24 /usr/lib/gcc/avr/4.8.2/../../../avr/lib/avr5/libc.a(eeupd_byte_atmega32u4.o)
                0x0000000000006d5c                __eeupd_byte_m32u4
                0x0000000000006d5e                __eeupd_r18_m32u4
 .text.avr-libc
                0x0000000000006d80       0x18 /usr/lib/gcc/avr/4.8.2/../../../avr/lib/avr5/libc.a(eeupd_dword_atmega32u4.o)
                0x0000000000006d80                __eeupd_float_m32u4
                0x0000000000006d80                __eeupd_dword_m32u4
 .text.avr-libc
                0x0000000000006d98        0xc /usr/lib/gcc/avr/4.8.2/../../../avr/lib/avr5/libc.a(eeupd_word_atmega32u4.o)
                0x0000000000006d98                __eeupd_word_m32u4
 .text.avr-libc
                0x0000000000006da4       0x20 /usr/lib/gcc/avr/4.8.2/../../../avr/lib/avr5/libc.a(eerd_block_atmega32u4.o)
                0x0000000000006da4                __eerd_block_m32u4
                0x0000000000006da8                __eerd_blraw_m32u4
                0x0000000000006dc4                . = ALIGN (0x2)
 *(.fini9)
 .fini9         0x0000000000006dc4        0x0 /usr/lib/gcc/avr/4.8.2/avr5/libgcc.a(_exit.o)
                0x0000000000006dc4                exit
                0x0000000000006dc4                _exit
 *(.fini9)
 *(.fini8)
 *(.fini8)
 *(.fini7)
 *(.fini7)
 *(.fini6)
 *(.fini6)
 *(.fini5)
 *(.fini5)
 *(.fini4)
 *(.fini4)
 *(.fini3)
 *(.fini3)
 *(.fini2)
 *(.fini2)
 *(.fini1)
 *(.fini1)
 *(.fini0)
 .fini0         0x0000000000006dc4        0x4 /usr/lib/gcc/avr/4.8.2/avr5/libgcc.a(_exit.o)
 *(.fini0)
                0x0000000000006dc8                _etext = .

.data           0x0000000000800100       0x94 load address 0x0000000000006dc8
                0x0000000000800100                PROVIDE (__data_start, .)
 *(.data)
 .data          0x0000000000800100        0x0 /usr/lib/gcc/avr/4.8.2/../../../avr/lib/avr5/crtm32u4.o
 .data          0x0000000000800100        0x0 .build/obj_Dactylv2led_rev2_Default/matrix.o
 .data          0x0000000000800100        0x0 .build/obj_Dactylv2led_rev2_Default/i2c.o
 .data          0x0000000000800100        0x0 .build/obj_Dactylv2led_rev2_Default/split_util.o
 .data          0x0000000000800100        0x0 .build/obj_Dactylv2led_rev2_Default/serial.o
 .data          0x0000000000800100        0x0 .build/obj_Dactylv2led_rev2_Default/ssd1306.o
 .data          0x0000000000800100        0x0 .build/obj_Dactylv2led_rev2_Default/keyboards/Dactylv2led/rev2/rev2.o
 .data          0x0000000000800100        0x0 .build/obj_Dactylv2led_rev2_Default/keyboards/Dactylv2led/keymaps/Default/keymap.o
 .data          0x0000000000800100        0x0 .build/obj_Dactylv2led_rev2_Default/quantum/quantum.o
 .data          0x0000000000800100        0x0 .build/obj_Dactylv2led_rev2_Default/quantum/keymap_common.o
 .data          0x0000000000800100        0x0 .build/obj_Dactylv2led_rev2_Default/quantum/keycode_config.o
 .data          0x0000000000800100        0x0 .build/obj_Dactylv2led_rev2_Default/quantum/process_keycode/process_leader.o
 .data          0x0000000000800100        0x0 .build/obj_Dactylv2led_rev2_Default/quantum/rgblight.o
 .data          0x0000000000800100        0x0 .build/obj_Dactylv2led_rev2_Default/ws2812.o
 .data          0x0000000000800100        0x0 .build/obj_Dactylv2led_rev2_Default/quantum/process_keycode/process_tap_dance.o
 .data          0x0000000000800100        0x0 .build/obj_Dactylv2led_rev2_Default/quantum/led_tables.o
 .data          0x0000000000800100        0x0 .build/obj_Dactylv2led_rev2_Default/common/host.o
 .data          0x0000000000800100        0x0 .build/obj_Dactylv2led_rev2_Default/common/keyboard.o
 .data          0x0000000000800100        0x0 .build/obj_Dactylv2led_rev2_Default/common/action.o
 .data          0x0000000000800100        0x0 .build/obj_Dactylv2led_rev2_Default/common/action_tapping.o
 .data          0x0000000000800100        0x0 .build/obj_Dactylv2led_rev2_Default/common/action_macro.o
 .data          0x0000000000800100        0x0 .build/obj_Dactylv2led_rev2_Default/common/action_layer.o
 .data          0x0000000000800100        0x0 .build/obj_Dactylv2led_rev2_Default/common/action_util.o
 .data          0x0000000000800100        0x0 .build/obj_Dactylv2led_rev2_Default/common/print.o
 .data          0x0000000000800100        0x0 .build/obj_Dactylv2led_rev2_Default/common/debug.o
 .data          0x0000000000800100        0x0 .build/obj_Dactylv2led_rev2_Default/common/util.o
 .data          0x0000000000800100        0x0 .build/obj_Dactylv2led_rev2_Default/common/eeconfig.o
 .data          0x0000000000800100        0x0 .build/obj_Dactylv2led_rev2_Default/common/report.o
 .data          0x0000000000800100        0x0 .build/obj_Dactylv2led_rev2_Default/common/avr/suspend.o
 .data          0x0000000000800100        0x0 .build/obj_Dactylv2led_rev2_Default/common/avr/timer.o
 .data          0x0000000000800100        0x0 .build/obj_Dactylv2led_rev2_Default/common/avr/bootloader.o
 .data          0x0000000000800100        0x0 .build/obj_Dactylv2led_rev2_Default/common/avr/xprintf.o
 .data          0x0000000000800100        0x0 .build/obj_Dactylv2led_rev2_Default/common/magic.o
 .data          0x0000000000800100        0x0 .build/obj_Dactylv2led_rev2_Default/common/mousekey.o
 .data          0x0000000000800100        0x0 .build/obj_Dactylv2led_rev2_Default/common/command.o
 .data          0x0000000000800100        0x0 .build/obj_Dactylv2led_rev2_Default/lufa.o
 .data          0x0000000000800100        0x0 .build/obj_Dactylv2led_rev2_Default/usb_descriptor.o
 .data          0x0000000000800100        0x0 .build/obj_Dactylv2led_rev2_Default/outputselect.o
 .data          0x0000000000800100        0x0 .build/obj_Dactylv2led_rev2_Default/./lib/lufa/LUFA/Drivers/USB/Class/Common/HIDParser.o
 .data          0x0000000000800100        0x0 .build/obj_Dactylv2led_rev2_Default/./lib/lufa/LUFA/Drivers/USB/Core/AVR8/Device_AVR8.o
 .data          0x0000000000800100        0x0 .build/obj_Dactylv2led_rev2_Default/./lib/lufa/LUFA/Drivers/USB/Core/AVR8/EndpointStream_AVR8.o
 .data          0x0000000000800100        0x0 .build/obj_Dactylv2led_rev2_Default/./lib/lufa/LUFA/Drivers/USB/Core/AVR8/Endpoint_AVR8.o
 .data          0x0000000000800100        0x0 .build/obj_Dactylv2led_rev2_Default/./lib/lufa/LUFA/Drivers/USB/Core/AVR8/Host_AVR8.o
 .data          0x0000000000800100        0x0 .build/obj_Dactylv2led_rev2_Default/./lib/lufa/LUFA/Drivers/USB/Core/AVR8/PipeStream_AVR8.o
 .data          0x0000000000800100        0x0 .build/obj_Dactylv2led_rev2_Default/./lib/lufa/LUFA/Drivers/USB/Core/AVR8/Pipe_AVR8.o
 .data          0x0000000000800100        0x0 .build/obj_Dactylv2led_rev2_Default/./lib/lufa/LUFA/Drivers/USB/Core/AVR8/USBController_AVR8.o
 .data          0x0000000000800100        0x0 .build/obj_Dactylv2led_rev2_Default/./lib/lufa/LUFA/Drivers/USB/Core/AVR8/USBInterrupt_AVR8.o
 .data          0x0000000000800100        0x0 .build/obj_Dactylv2led_rev2_Default/./lib/lufa/LUFA/Drivers/USB/Core/ConfigDescriptors.o
 .data          0x0000000000800100        0x0 .build/obj_Dactylv2led_rev2_Default/./lib/lufa/LUFA/Drivers/USB/Core/DeviceStandardReq.o
 .data          0x0000000000800100        0x0 .build/obj_Dactylv2led_rev2_Default/./lib/lufa/LUFA/Drivers/USB/Core/Events.o
 .data          0x0000000000800100        0x0 .build/obj_Dactylv2led_rev2_Default/./lib/lufa/LUFA/Drivers/USB/Core/HostStandardReq.o
 .data          0x0000000000800100        0x0 .build/obj_Dactylv2led_rev2_Default/./lib/lufa/LUFA/Drivers/USB/Core/USBTask.o
 .data          0x0000000000800100        0x0 /usr/lib/gcc/avr/4.8.2/../../../avr/lib/avr5/libm.a(addsf3.o)
 .data          0x0000000000800100        0x0 /usr/lib/gcc/avr/4.8.2/../../../avr/lib/avr5/libm.a(addsf3x.o)
 .data          0x0000000000800100        0x0 /usr/lib/gcc/avr/4.8.2/../../../avr/lib/avr5/libm.a(divsf3.o)
 .data          0x0000000000800100        0x0 /usr/lib/gcc/avr/4.8.2/../../../avr/lib/avr5/libm.a(divsf3x.o)
 .data          0x0000000000800100        0x0 /usr/lib/gcc/avr/4.8.2/../../../avr/lib/avr5/libm.a(exp.o)
 .data          0x0000000000800100        0x0 /usr/lib/gcc/avr/4.8.2/../../../avr/lib/avr5/libm.a(fixunssfsi.o)
 .data          0x0000000000800100        0x0 /usr/lib/gcc/avr/4.8.2/../../../avr/lib/avr5/libm.a(floatsisf.o)
 .data          0x0000000000800100        0x0 /usr/lib/gcc/avr/4.8.2/../../../avr/lib/avr5/libm.a(fp_inf.o)
 .data          0x0000000000800100        0x0 /usr/lib/gcc/avr/4.8.2/../../../avr/lib/avr5/libm.a(fp_nan.o)
 .data          0x0000000000800100        0x0 /usr/lib/gcc/avr/4.8.2/../../../avr/lib/avr5/libm.a(fp_powser.o)
 .data          0x0000000000800100        0x0 /usr/lib/gcc/avr/4.8.2/../../../avr/lib/avr5/libm.a(fp_pscA.o)
 .data          0x0000000000800100        0x0 /usr/lib/gcc/avr/4.8.2/../../../avr/lib/avr5/libm.a(fp_pscB.o)
 .data          0x0000000000800100        0x0 /usr/lib/gcc/avr/4.8.2/../../../avr/lib/avr5/libm.a(fp_round.o)
 .data          0x0000000000800100        0x0 /usr/lib/gcc/avr/4.8.2/../../../avr/lib/avr5/libm.a(fp_split3.o)
 .data          0x0000000000800100        0x0 /usr/lib/gcc/avr/4.8.2/../../../avr/lib/avr5/libm.a(fp_zero.o)
 .data          0x0000000000800100        0x0 /usr/lib/gcc/avr/4.8.2/../../../avr/lib/avr5/libm.a(inverse.o)
 .data          0x0000000000800100        0x0 /usr/lib/gcc/avr/4.8.2/../../../avr/lib/avr5/libm.a(ldexp.o)
 .data          0x0000000000800100        0x0 /usr/lib/gcc/avr/4.8.2/../../../avr/lib/avr5/libm.a(modf.o)
 .data          0x0000000000800100        0x0 /usr/lib/gcc/avr/4.8.2/../../../avr/lib/avr5/libm.a(mulsf3.o)
 .data          0x0000000000800100        0x0 /usr/lib/gcc/avr/4.8.2/../../../avr/lib/avr5/libm.a(mulsf3x.o)
 .data          0x0000000000800100        0x0 /usr/lib/gcc/avr/4.8.2/../../../avr/lib/avr5/libm.a(sin.o)
 .data          0x0000000000800100        0x0 /usr/lib/gcc/avr/4.8.2/../../../avr/lib/avr5/libm.a(fp_mpack.o)
 .data          0x0000000000800100        0x0 /usr/lib/gcc/avr/4.8.2/../../../avr/lib/avr5/libm.a(fp_rempio2.o)
 .data          0x0000000000800100        0x0 /usr/lib/gcc/avr/4.8.2/../../../avr/lib/avr5/libm.a(fp_sinus.o)
 .data          0x0000000000800100        0x0 /usr/lib/gcc/avr/4.8.2/../../../avr/lib/avr5/libm.a(fp_powsodd.o)
 .data          0x0000000000800100        0x0 /usr/lib/gcc/avr/4.8.2/avr5/libgcc.a(_udivmodhi4.o)
 .data          0x0000000000800100        0x0 /usr/lib/gcc/avr/4.8.2/avr5/libgcc.a(_divmodhi4.o)
 .data          0x0000000000800100        0x0 /usr/lib/gcc/avr/4.8.2/avr5/libgcc.a(_exit.o)
 .data          0x0000000000800100        0x0 /usr/lib/gcc/avr/4.8.2/avr5/libgcc.a(_tablejump.o)
 .data          0x0000000000800100        0x0 /usr/lib/gcc/avr/4.8.2/avr5/libgcc.a(_copy_data.o)
 .data          0x0000000000800100        0x0 /usr/lib/gcc/avr/4.8.2/avr5/libgcc.a(_clear_bss.o)
 .data          0x0000000000800100        0x0 /usr/lib/gcc/avr/4.8.2/../../../avr/lib/avr5/libc.a(memmove.o)
 .data          0x0000000000800100        0x0 /usr/lib/gcc/avr/4.8.2/../../../avr/lib/avr5/libc.a(eerd_byte_atmega32u4.o)
 .data          0x0000000000800100        0x0 /usr/lib/gcc/avr/4.8.2/../../../avr/lib/avr5/libc.a(eerd_dword_atmega32u4.o)
 .data          0x0000000000800100        0x0 /usr/lib/gcc/avr/4.8.2/../../../avr/lib/avr5/libc.a(eerd_word_atmega32u4.o)
 .data          0x0000000000800100        0x0 /usr/lib/gcc/avr/4.8.2/../../../avr/lib/avr5/libc.a(eeupd_byte_atmega32u4.o)
 .data          0x0000000000800100        0x0 /usr/lib/gcc/avr/4.8.2/../../../avr/lib/avr5/libc.a(eeupd_dword_atmega32u4.o)
 .data          0x0000000000800100        0x0 /usr/lib/gcc/avr/4.8.2/../../../avr/lib/avr5/libc.a(eeupd_word_atmega32u4.o)
 .data          0x0000000000800100        0x0 /usr/lib/gcc/avr/4.8.2/../../../avr/lib/avr5/libc.a(memcpy.o)
 .data          0x0000000000800100        0x0 /usr/lib/gcc/avr/4.8.2/../../../avr/lib/avr5/libc.a(eerd_block_atmega32u4.o)
 *(.data*)
 .data.isLeftHand
                0x0000000000800100        0x1 .build/obj_Dactylv2led_rev2_Default/split_util.o
                0x0000000000800100                isLeftHand
 .data.tap_dance_actions
                0x0000000000800101       0x50 .build/obj_Dactylv2led_rev2_Default/keyboards/Dactylv2led/keymaps/Default/keymap.o
                0x0000000000800101                tap_dance_actions
 .data.increment.2325
                0x0000000000800151        0x1 .build/obj_Dactylv2led_rev2_Default/quantum/rgblight.o
 .data.high_bound.2324
                0x0000000000800152        0x1 .build/obj_Dactylv2led_rev2_Default/quantum/rgblight.o
 .data.highest_td
                0x0000000000800153        0x1 .build/obj_Dactylv2led_rev2_Default/quantum/process_keycode/process_tap_dance.o
 .data.keyboard_report
                0x0000000000800154        0x2 .build/obj_Dactylv2led_rev2_Default/common/action_util.o
                0x0000000000800154                keyboard_report
 .data.mk_wheel_time_to_max
                0x0000000000800156        0x1 .build/obj_Dactylv2led_rev2_Default/common/mousekey.o
                0x0000000000800156                mk_wheel_time_to_max
 .data.mk_wheel_max_speed
                0x0000000000800157        0x1 .build/obj_Dactylv2led_rev2_Default/common/mousekey.o
                0x0000000000800157                mk_wheel_max_speed
 .data.mk_time_to_max
                0x0000000000800158        0x1 .build/obj_Dactylv2led_rev2_Default/common/mousekey.o
                0x0000000000800158                mk_time_to_max
 .data.mk_max_speed
                0x0000000000800159        0x1 .build/obj_Dactylv2led_rev2_Default/common/mousekey.o
                0x0000000000800159                mk_max_speed
 .data.mk_interval
                0x000000000080015a        0x1 .build/obj_Dactylv2led_rev2_Default/common/mousekey.o
                0x000000000080015a                mk_interval
 .data.mk_delay
                0x000000000080015b        0x1 .build/obj_Dactylv2led_rev2_Default/common/mousekey.o
                0x000000000080015b                mk_delay
 .data.lufa_driver
                0x000000000080015c        0xa .build/obj_Dactylv2led_rev2_Default/lufa.o
                0x000000000080015c                lufa_driver
 .data.keyboard_protocol
                0x0000000000800166        0x1 .build/obj_Dactylv2led_rev2_Default/lufa.o
                0x0000000000800166                keyboard_protocol
 *(.rodata)
 *(.rodata*)
 .rodata.col_pins
                0x0000000000800167        0x6 .build/obj_Dactylv2led_rev2_Default/matrix.o
 .rodata.row_pins
                0x000000000080016d        0xe .build/obj_Dactylv2led_rev2_Default/matrix.o
 .rodata.CSWTCH.46
                0x000000000080017b        0xa .build/obj_Dactylv2led_rev2_Default/common/command.o
 .rodata.CSWTCH.3
                0x0000000000800185        0x3 .build/obj_Dactylv2led_rev2_Default/usb_descriptor.o
 .rodata.CSWTCH.2
                0x0000000000800188        0x6 .build/obj_Dactylv2led_rev2_Default/usb_descriptor.o
 .rodata.CSWTCH.1
                0x000000000080018e        0x6 .build/obj_Dactylv2led_rev2_Default/usb_descriptor.o
 *(.gnu.linkonce.d*)
                0x0000000000800194                . = ALIGN (0x2)
                0x0000000000800194                _edata = .
                0x0000000000800194                PROVIDE (__data_end, .)

.bss            0x0000000000800194      0x120
                0x0000000000800194                PROVIDE (__bss_start, .)
 *(.bss)
 *(.bss*)
 .bss.matrix    0x0000000000800194        0xe .build/obj_Dactylv2led_rev2_Default/matrix.o
 .bss.error_count
                0x00000000008001a2        0x1 .build/obj_Dactylv2led_rev2_Default/matrix.o
 .bss.matrix_debouncing
                0x00000000008001a3        0xe .build/obj_Dactylv2led_rev2_Default/matrix.o
 .bss.debouncing
                0x00000000008001b1        0x1 .build/obj_Dactylv2led_rev2_Default/matrix.o
 .bss.debouncing_time
                0x00000000008001b2        0x2 .build/obj_Dactylv2led_rev2_Default/matrix.o
 .bss.status    0x00000000008001b4        0x1 .build/obj_Dactylv2led_rev2_Default/serial.o
                0x00000000008001b4                status
 .bss.serial_master_buffer
                0x00000000008001b5        0x1 .build/obj_Dactylv2led_rev2_Default/serial.o
                0x00000000008001b5                serial_master_buffer
 .bss.serial_slave_buffer
                0x00000000008001b6        0x7 .build/obj_Dactylv2led_rev2_Default/serial.o
                0x00000000008001b6                serial_slave_buffer
 .bss.grave_esc_was_shifted
                0x00000000008001bd        0x1 .build/obj_Dactylv2led_rev2_Default/quantum/quantum.o
 .bss.scs_timer
                0x00000000008001be        0x4 .build/obj_Dactylv2led_rev2_Default/quantum/quantum.o
 .bss.shift_interrupted
                0x00000000008001c2        0x2 .build/obj_Dactylv2led_rev2_Default/quantum/quantum.o
 .bss.leader_sequence_size
                0x00000000008001c4        0x1 .build/obj_Dactylv2led_rev2_Default/quantum/process_keycode/process_leader.o
                0x00000000008001c4                leader_sequence_size
 .bss.leader_sequence
                0x00000000008001c5        0xa .build/obj_Dactylv2led_rev2_Default/quantum/process_keycode/process_leader.o
                0x00000000008001c5                leader_sequence
 .bss.leader_time
                0x00000000008001cf        0x2 .build/obj_Dactylv2led_rev2_Default/quantum/process_keycode/process_leader.o
                0x00000000008001cf                leader_time
 .bss.leading   0x00000000008001d1        0x1 .build/obj_Dactylv2led_rev2_Default/quantum/process_keycode/process_leader.o
                0x00000000008001d1                leading
 .bss.current_offset.2337
                0x00000000008001d2        0x2 .build/obj_Dactylv2led_rev2_Default/quantum/rgblight.o
 .bss.last_timer.2338
                0x00000000008001d4        0x2 .build/obj_Dactylv2led_rev2_Default/quantum/rgblight.o
 .bss.low_bound.2323
                0x00000000008001d6        0x1 .build/obj_Dactylv2led_rev2_Default/quantum/rgblight.o
 .bss.last_timer.2319
                0x00000000008001d7        0x2 .build/obj_Dactylv2led_rev2_Default/quantum/rgblight.o
 .bss.pos.2301  0x00000000008001d9        0x1 .build/obj_Dactylv2led_rev2_Default/quantum/rgblight.o
 .bss.last_timer.2302
                0x00000000008001da        0x2 .build/obj_Dactylv2led_rev2_Default/quantum/rgblight.o
 .bss.current_hue.2288
                0x00000000008001dc        0x2 .build/obj_Dactylv2led_rev2_Default/quantum/rgblight.o
 .bss.last_timer.2289
                0x00000000008001de        0x2 .build/obj_Dactylv2led_rev2_Default/quantum/rgblight.o
 .bss.current_hue.2280
                0x00000000008001e0        0x2 .build/obj_Dactylv2led_rev2_Default/quantum/rgblight.o
 .bss.last_timer.2281
                0x00000000008001e2        0x2 .build/obj_Dactylv2led_rev2_Default/quantum/rgblight.o
 .bss.pos.2271  0x00000000008001e4        0x1 .build/obj_Dactylv2led_rev2_Default/quantum/rgblight.o
 .bss.last_timer.2272
                0x00000000008001e5        0x2 .build/obj_Dactylv2led_rev2_Default/quantum/rgblight.o
 .bss.rgblight_timer_enabled
                0x00000000008001e7        0x1 .build/obj_Dactylv2led_rev2_Default/quantum/rgblight.o
                0x00000000008001e7                rgblight_timer_enabled
 .bss.rgblight_inited
                0x00000000008001e8        0x1 .build/obj_Dactylv2led_rev2_Default/quantum/rgblight.o
                0x00000000008001e8                rgblight_inited
 .bss.last_td   0x00000000008001e9        0x2 .build/obj_Dactylv2led_rev2_Default/quantum/process_keycode/process_tap_dance.o
 .bss.last_consumer_report
                0x00000000008001eb        0x2 .build/obj_Dactylv2led_rev2_Default/common/host.o
 .bss.last_system_report
                0x00000000008001ed        0x2 .build/obj_Dactylv2led_rev2_Default/common/host.o
 .bss.driver    0x00000000008001ef        0x2 .build/obj_Dactylv2led_rev2_Default/common/host.o
 .bss.led_status.2891
                0x00000000008001f1        0x1 .build/obj_Dactylv2led_rev2_Default/common/keyboard.o
 .bss.matrix_prev.2890
                0x00000000008001f2        0xe .build/obj_Dactylv2led_rev2_Default/common/keyboard.o
 .bss.waiting_buffer_tail
                0x0000000000800200        0x1 .build/obj_Dactylv2led_rev2_Default/common/action_tapping.o
 .bss.waiting_buffer_head
                0x0000000000800201        0x1 .build/obj_Dactylv2led_rev2_Default/common/action_tapping.o
 .bss.waiting_buffer
                0x0000000000800202       0x30 .build/obj_Dactylv2led_rev2_Default/common/action_tapping.o
 .bss.tapping_key
                0x0000000000800232        0x6 .build/obj_Dactylv2led_rev2_Default/common/action_tapping.o
 .bss.layer_state
                0x0000000000800238        0x4 .build/obj_Dactylv2led_rev2_Default/common/action_layer.o
                0x0000000000800238                layer_state
 .bss.default_layer_state
                0x000000000080023c        0x4 .build/obj_Dactylv2led_rev2_Default/common/action_layer.o
                0x000000000080023c                default_layer_state
 .bss.oneshot_layer_data
                0x0000000000800240        0x1 .build/obj_Dactylv2led_rev2_Default/common/action_util.o
 .bss.oneshot_mods
                0x0000000000800241        0x1 .build/obj_Dactylv2led_rev2_Default/common/action_util.o
 .bss.__compound_literal.0
                0x0000000000800242        0x8 .build/obj_Dactylv2led_rev2_Default/common/action_util.o
 .bss.macro_mods
                0x000000000080024a        0x1 .build/obj_Dactylv2led_rev2_Default/common/action_util.o
 .bss.weak_mods
                0x000000000080024b        0x1 .build/obj_Dactylv2led_rev2_Default/common/action_util.o
 .bss.real_mods
                0x000000000080024c        0x1 .build/obj_Dactylv2led_rev2_Default/common/action_util.o
 .bss.debug_config
                0x000000000080024d        0x1 .build/obj_Dactylv2led_rev2_Default/common/debug.o
                0x000000000080024d                debug_config
 .bss.wdt_timeout
                0x000000000080024e        0x1 .build/obj_Dactylv2led_rev2_Default/common/avr/suspend.o
 .bss.last_timer
                0x000000000080024f        0x2 .build/obj_Dactylv2led_rev2_Default/common/mousekey.o
 .bss.mousekey_accel
                0x0000000000800251        0x1 .build/obj_Dactylv2led_rev2_Default/common/mousekey.o
 .bss.mousekey_repeat
                0x0000000000800252        0x1 .build/obj_Dactylv2led_rev2_Default/common/mousekey.o
 .bss.mouse_report
                0x0000000000800253        0x5 .build/obj_Dactylv2led_rev2_Default/common/mousekey.o
 .bss.mousekey_param
                0x0000000000800258        0x1 .build/obj_Dactylv2led_rev2_Default/common/command.o
 .bss.command_state
                0x0000000000800259        0x1 .build/obj_Dactylv2led_rev2_Default/common/command.o
                0x0000000000800259                command_state
 .bss.keyboard_report_sent
                0x000000000080025a        0x8 .build/obj_Dactylv2led_rev2_Default/lufa.o
 .bss.keyboard_led_stats
                0x0000000000800262        0x1 .build/obj_Dactylv2led_rev2_Default/lufa.o
 .bss.keyboard_idle
                0x0000000000800263        0x1 .build/obj_Dactylv2led_rev2_Default/lufa.o
                0x0000000000800263                keyboard_idle
 .bss.desired_output
                0x0000000000800264        0x1 .build/obj_Dactylv2led_rev2_Default/outputselect.o
                0x0000000000800264                desired_output
 *(COMMON)
 COMMON         0x0000000000800265       0x3a .build/obj_Dactylv2led_rev2_Default/quantum/rgblight.o
                0x0000000000800265                rgblight_config
                0x000000000080026a                inmem_config
                0x000000000080026f                led
 COMMON         0x000000000080029f        0x2 .build/obj_Dactylv2led_rev2_Default/common/action.o
                0x000000000080029f                tp_buttons
 COMMON         0x00000000008002a1        0x4 .build/obj_Dactylv2led_rev2_Default/common/avr/timer.o
                0x00000000008002a1                timer_count
 COMMON         0x00000000008002a5        0x2 .build/obj_Dactylv2led_rev2_Default/common/magic.o
                0x00000000008002a5                keymap_config
 COMMON         0x00000000008002a7        0x3 .build/obj_Dactylv2led_rev2_Default/./lib/lufa/LUFA/Drivers/USB/Core/DeviceStandardReq.o
                0x00000000008002a7                USB_Device_ConfigurationNumber
                0x00000000008002a8                USB_Device_CurrentlySelfPowered
                0x00000000008002a9                USB_Device_RemoteWakeupEnabled
 COMMON         0x00000000008002aa        0xa .build/obj_Dactylv2led_rev2_Default/./lib/lufa/LUFA/Drivers/USB/Core/USBTask.o
                0x00000000008002aa                USB_IsInitialized
                0x00000000008002ab                USB_DeviceState
                0x00000000008002ac                USB_ControlRequest
                0x00000000008002b4                PROVIDE (__bss_end, .)
                0x0000000000006dc8                __data_load_start = LOADADDR (.data)
                0x0000000000006e5c                __data_load_end = (__data_load_start + SIZEOF (.data))

.noinit         0x00000000008002b4        0x4
                0x00000000008002b4                PROVIDE (__noinit_start, .)
 *(.noinit*)
 .noinit        0x00000000008002b4        0x4 .build/obj_Dactylv2led_rev2_Default/common/avr/bootloader.o
                0x00000000008002b4                reset_key
                0x00000000008002b8                PROVIDE (__noinit_end, .)
                0x00000000008002b8                _end = .
                0x00000000008002b8                PROVIDE (__heap_start, .)

.eeprom         0x0000000000810000        0x0
 *(.eeprom*)
                0x0000000000810000                __eeprom_end = .

.fuse
 *(.fuse)
 *(.lfuse)
 *(.hfuse)
 *(.efuse)

.lock
 *(.lock*)

.signature
 *(.signature*)

.user_signatures
 *(.user_signatures*)

.stab           0x0000000000000000     0x36d8
 *(.stab)
 .stab          0x0000000000000000      0x6cc /usr/lib/gcc/avr/4.8.2/../../../avr/lib/avr5/crtm32u4.o
 .stab          0x00000000000006cc       0x18 .build/obj_Dactylv2led_rev2_Default/common/avr/xprintf.o
                                        0x8b8 (size before relaxing)
 .stab          0x00000000000006e4       0x78 /usr/lib/gcc/avr/4.8.2/../../../avr/lib/avr5/libm.a(addsf3.o)
                                         0x84 (size before relaxing)
 .stab          0x000000000000075c      0x4bc /usr/lib/gcc/avr/4.8.2/../../../avr/lib/avr5/libm.a(addsf3x.o)
                                        0x4c8 (size before relaxing)
 .stab          0x0000000000000c18       0x48 /usr/lib/gcc/avr/4.8.2/../../../avr/lib/avr5/libm.a(divsf3.o)
                                         0x54 (size before relaxing)
 .stab          0x0000000000000c60      0x510 /usr/lib/gcc/avr/4.8.2/../../../avr/lib/avr5/libm.a(divsf3x.o)
                                        0x51c (size before relaxing)
 .stab          0x0000000000001170      0x288 /usr/lib/gcc/avr/4.8.2/../../../avr/lib/avr5/libm.a(exp.o)
                                        0x294 (size before relaxing)
 .stab          0x00000000000013f8      0x240 /usr/lib/gcc/avr/4.8.2/../../../avr/lib/avr5/libm.a(fixunssfsi.o)
                                        0x24c (size before relaxing)
 .stab          0x0000000000001638      0x318 /usr/lib/gcc/avr/4.8.2/../../../avr/lib/avr5/libm.a(floatsisf.o)
                                        0x324 (size before relaxing)
 .stab          0x0000000000001950       0x78 /usr/lib/gcc/avr/4.8.2/../../../avr/lib/avr5/libm.a(fp_inf.o)
                                         0x84 (size before relaxing)
 .stab          0x00000000000019c8       0x54 /usr/lib/gcc/avr/4.8.2/../../../avr/lib/avr5/libm.a(fp_nan.o)
                                         0x60 (size before relaxing)
 .stab          0x0000000000001a1c      0x1ec /usr/lib/gcc/avr/4.8.2/../../../avr/lib/avr5/libm.a(fp_powser.o)
                                        0x1f8 (size before relaxing)
 .stab          0x0000000000001c08       0x84 /usr/lib/gcc/avr/4.8.2/../../../avr/lib/avr5/libm.a(fp_pscA.o)
                                         0x90 (size before relaxing)
 .stab          0x0000000000001c8c       0x84 /usr/lib/gcc/avr/4.8.2/../../../avr/lib/avr5/libm.a(fp_pscB.o)
                                         0x90 (size before relaxing)
 .stab          0x0000000000001d10       0xfc /usr/lib/gcc/avr/4.8.2/../../../avr/lib/avr5/libm.a(fp_round.o)
                                        0x108 (size before relaxing)
 .stab          0x0000000000001e0c      0x1d4 /usr/lib/gcc/avr/4.8.2/../../../avr/lib/avr5/libm.a(fp_split3.o)
                                        0x1e0 (size before relaxing)
 .stab          0x0000000000001fe0       0x90 /usr/lib/gcc/avr/4.8.2/../../../avr/lib/avr5/libm.a(fp_zero.o)
                                         0x9c (size before relaxing)
 .stab          0x0000000000002070       0x84 /usr/lib/gcc/avr/4.8.2/../../../avr/lib/avr5/libm.a(inverse.o)
                                         0x90 (size before relaxing)
 .stab          0x00000000000020f4      0x2c4 /usr/lib/gcc/avr/4.8.2/../../../avr/lib/avr5/libm.a(ldexp.o)
                                        0x2d0 (size before relaxing)
 .stab          0x00000000000023b8      0x2a0 /usr/lib/gcc/avr/4.8.2/../../../avr/lib/avr5/libm.a(modf.o)
                                        0x2ac (size before relaxing)
 .stab          0x0000000000002658       0x48 /usr/lib/gcc/avr/4.8.2/../../../avr/lib/avr5/libm.a(mulsf3.o)
                                         0x54 (size before relaxing)
 .stab          0x00000000000026a0      0x4d4 /usr/lib/gcc/avr/4.8.2/../../../avr/lib/avr5/libm.a(mulsf3x.o)
                                        0x4e0 (size before relaxing)
 .stab          0x0000000000002b74       0x78 /usr/lib/gcc/avr/4.8.2/../../../avr/lib/avr5/libm.a(sin.o)
                                         0x84 (size before relaxing)
 .stab          0x0000000000002bec       0xe4 /usr/lib/gcc/avr/4.8.2/../../../avr/lib/avr5/libm.a(fp_mpack.o)
                                         0xf0 (size before relaxing)
 .stab          0x0000000000002cd0      0x21c /usr/lib/gcc/avr/4.8.2/../../../avr/lib/avr5/libm.a(fp_rempio2.o)
                                        0x228 (size before relaxing)
 .stab          0x0000000000002eec       0xfc /usr/lib/gcc/avr/4.8.2/../../../avr/lib/avr5/libm.a(fp_sinus.o)
                                        0x108 (size before relaxing)
 .stab          0x0000000000002fe8       0xfc /usr/lib/gcc/avr/4.8.2/../../../avr/lib/avr5/libm.a(fp_powsodd.o)
                                        0x108 (size before relaxing)
 .stab          0x00000000000030e4       0xe4 /usr/lib/gcc/avr/4.8.2/../../../avr/lib/avr5/libc.a(memmove.o)
                                         0xf0 (size before relaxing)
 .stab          0x00000000000031c8       0x90 /usr/lib/gcc/avr/4.8.2/../../../avr/lib/avr5/libc.a(eerd_byte_atmega32u4.o)
                                         0x9c (size before relaxing)
 .stab          0x0000000000003258       0x78 /usr/lib/gcc/avr/4.8.2/../../../avr/lib/avr5/libc.a(eerd_dword_atmega32u4.o)
                                         0x84 (size before relaxing)
 .stab          0x00000000000032d0       0x6c /usr/lib/gcc/avr/4.8.2/../../../avr/lib/avr5/libc.a(eerd_word_atmega32u4.o)
                                         0x78 (size before relaxing)
 .stab          0x000000000000333c      0x114 /usr/lib/gcc/avr/4.8.2/../../../avr/lib/avr5/libc.a(eeupd_byte_atmega32u4.o)
                                        0x120 (size before relaxing)
 .stab          0x0000000000003450       0x9c /usr/lib/gcc/avr/4.8.2/../../../avr/lib/avr5/libc.a(eeupd_dword_atmega32u4.o)
                                         0xa8 (size before relaxing)
 .stab          0x00000000000034ec       0x60 /usr/lib/gcc/avr/4.8.2/../../../avr/lib/avr5/libc.a(eeupd_word_atmega32u4.o)
                                         0x6c (size before relaxing)
 .stab          0x000000000000354c       0x84 /usr/lib/gcc/avr/4.8.2/../../../avr/lib/avr5/libc.a(memcpy.o)
                                         0x90 (size before relaxing)
 .stab          0x00000000000035d0      0x108 /usr/lib/gcc/avr/4.8.2/../../../avr/lib/avr5/libc.a(eerd_block_atmega32u4.o)
                                        0x114 (size before relaxing)

.stabstr        0x0000000000000000      0x6e2
 *(.stabstr)
 .stabstr       0x0000000000000000      0x6e2 /usr/lib/gcc/avr/4.8.2/../../../avr/lib/avr5/crtm32u4.o

.stab.excl
 *(.stab.excl)

.stab.exclstr
 *(.stab.exclstr)

.stab.index
 *(.stab.index)

.stab.indexstr
 *(.stab.indexstr)

.comment        0x0000000000000000       0x11
 *(.comment)
 .comment       0x0000000000000000       0x11 .build/obj_Dactylv2led_rev2_Default/matrix.o
                                         0x12 (size before relaxing)
 .comment       0x0000000000000000       0x12 .build/obj_Dactylv2led_rev2_Default/i2c.o
 .comment       0x0000000000000000       0x12 .build/obj_Dactylv2led_rev2_Default/split_util.o
 .comment       0x0000000000000000       0x12 .build/obj_Dactylv2led_rev2_Default/serial.o
 .comment       0x0000000000000000       0x12 .build/obj_Dactylv2led_rev2_Default/ssd1306.o
 .comment       0x0000000000000000       0x12 .build/obj_Dactylv2led_rev2_Default/keyboards/Dactylv2led/rev2/rev2.o
 .comment       0x0000000000000000       0x12 .build/obj_Dactylv2led_rev2_Default/keyboards/Dactylv2led/keymaps/Default/keymap.o
 .comment       0x0000000000000000       0x12 .build/obj_Dactylv2led_rev2_Default/quantum/quantum.o
 .comment       0x0000000000000000       0x12 .build/obj_Dactylv2led_rev2_Default/quantum/keymap_common.o
 .comment       0x0000000000000000       0x12 .build/obj_Dactylv2led_rev2_Default/quantum/keycode_config.o
 .comment       0x0000000000000000       0x12 .build/obj_Dactylv2led_rev2_Default/quantum/process_keycode/process_leader.o
 .comment       0x0000000000000000       0x12 .build/obj_Dactylv2led_rev2_Default/quantum/rgblight.o
 .comment       0x0000000000000000       0x12 .build/obj_Dactylv2led_rev2_Default/ws2812.o
 .comment       0x0000000000000000       0x12 .build/obj_Dactylv2led_rev2_Default/quantum/process_keycode/process_tap_dance.o
 .comment       0x0000000000000000       0x12 .build/obj_Dactylv2led_rev2_Default/quantum/led_tables.o
 .comment       0x0000000000000000       0x12 .build/obj_Dactylv2led_rev2_Default/common/host.o
 .comment       0x0000000000000000       0x12 .build/obj_Dactylv2led_rev2_Default/common/keyboard.o
 .comment       0x0000000000000000       0x12 .build/obj_Dactylv2led_rev2_Default/common/action.o
 .comment       0x0000000000000000       0x12 .build/obj_Dactylv2led_rev2_Default/common/action_tapping.o
 .comment       0x0000000000000000       0x12 .build/obj_Dactylv2led_rev2_Default/common/action_macro.o
 .comment       0x0000000000000000       0x12 .build/obj_Dactylv2led_rev2_Default/common/action_layer.o
 .comment       0x0000000000000000       0x12 .build/obj_Dactylv2led_rev2_Default/common/action_util.o
 .comment       0x0000000000000000       0x12 .build/obj_Dactylv2led_rev2_Default/common/print.o
 .comment       0x0000000000000000       0x12 .build/obj_Dactylv2led_rev2_Default/common/debug.o
 .comment       0x0000000000000000       0x12 .build/obj_Dactylv2led_rev2_Default/common/util.o
 .comment       0x0000000000000000       0x12 .build/obj_Dactylv2led_rev2_Default/common/eeconfig.o
 .comment       0x0000000000000000       0x12 .build/obj_Dactylv2led_rev2_Default/common/report.o
 .comment       0x0000000000000000       0x12 .build/obj_Dactylv2led_rev2_Default/common/avr/suspend.o
 .comment       0x0000000000000000       0x12 .build/obj_Dactylv2led_rev2_Default/common/avr/timer.o
 .comment       0x0000000000000000       0x12 .build/obj_Dactylv2led_rev2_Default/common/avr/bootloader.o
 .comment       0x0000000000000000       0x12 .build/obj_Dactylv2led_rev2_Default/common/magic.o
 .comment       0x0000000000000000       0x12 .build/obj_Dactylv2led_rev2_Default/common/mousekey.o
 .comment       0x0000000000000000       0x12 .build/obj_Dactylv2led_rev2_Default/common/command.o
 .comment       0x0000000000000000       0x12 .build/obj_Dactylv2led_rev2_Default/lufa.o
 .comment       0x0000000000000000       0x12 .build/obj_Dactylv2led_rev2_Default/usb_descriptor.o
 .comment       0x0000000000000000       0x12 .build/obj_Dactylv2led_rev2_Default/outputselect.o
 .comment       0x0000000000000000       0x12 .build/obj_Dactylv2led_rev2_Default/./lib/lufa/LUFA/Drivers/USB/Class/Common/HIDParser.o
 .comment       0x0000000000000000       0x12 .build/obj_Dactylv2led_rev2_Default/./lib/lufa/LUFA/Drivers/USB/Core/AVR8/Device_AVR8.o
 .comment       0x0000000000000000       0x12 .build/obj_Dactylv2led_rev2_Default/./lib/lufa/LUFA/Drivers/USB/Core/AVR8/EndpointStream_AVR8.o
 .comment       0x0000000000000000       0x12 .build/obj_Dactylv2led_rev2_Default/./lib/lufa/LUFA/Drivers/USB/Core/AVR8/Endpoint_AVR8.o
 .comment       0x0000000000000000       0x12 .build/obj_Dactylv2led_rev2_Default/./lib/lufa/LUFA/Drivers/USB/Core/AVR8/Host_AVR8.o
 .comment       0x0000000000000000       0x12 .build/obj_Dactylv2led_rev2_Default/./lib/lufa/LUFA/Drivers/USB/Core/AVR8/PipeStream_AVR8.o
 .comment       0x0000000000000000       0x12 .build/obj_Dactylv2led_rev2_Default/./lib/lufa/LUFA/Drivers/USB/Core/AVR8/Pipe_AVR8.o
 .comment       0x0000000000000000       0x12 .build/obj_Dactylv2led_rev2_Default/./lib/lufa/LUFA/Drivers/USB/Core/AVR8/USBController_AVR8.o
 .comment       0x0000000000000000       0x12 .build/obj_Dactylv2led_rev2_Default/./lib/lufa/LUFA/Drivers/USB/Core/AVR8/USBInterrupt_AVR8.o
 .comment       0x0000000000000000       0x12 .build/obj_Dactylv2led_rev2_Default/./lib/lufa/LUFA/Drivers/USB/Core/ConfigDescriptors.o
 .comment       0x0000000000000000       0x12 .build/obj_Dactylv2led_rev2_Default/./lib/lufa/LUFA/Drivers/USB/Core/DeviceStandardReq.o
 .comment       0x0000000000000000       0x12 .build/obj_Dactylv2led_rev2_Default/./lib/lufa/LUFA/Drivers/USB/Core/Events.o
 .comment       0x0000000000000000       0x12 .build/obj_Dactylv2led_rev2_Default/./lib/lufa/LUFA/Drivers/USB/Core/HostStandardReq.o
 .comment       0x0000000000000000       0x12 .build/obj_Dactylv2led_rev2_Default/./lib/lufa/LUFA/Drivers/USB/Core/USBTask.o

.debug
 *(.debug)

.line
 *(.line)

.debug_srcinfo
 *(.debug_srcinfo)

.debug_sfnames
 *(.debug_sfnames)

.debug_aranges  0x0000000000000000     0x1048
 *(.debug_aranges)
 .debug_aranges
                0x0000000000000000       0xa8 .build/obj_Dactylv2led_rev2_Default/matrix.o
 .debug_aranges
                0x00000000000000a8       0x18 .build/obj_Dactylv2led_rev2_Default/i2c.o
 .debug_aranges
                0x00000000000000c0       0x38 .build/obj_Dactylv2led_rev2_Default/split_util.o
 .debug_aranges
                0x00000000000000f8       0x70 .build/obj_Dactylv2led_rev2_Default/serial.o
 .debug_aranges
                0x0000000000000168       0x28 .build/obj_Dactylv2led_rev2_Default/keyboards/Dactylv2led/rev2/rev2.o
 .debug_aranges
                0x0000000000000190       0x60 .build/obj_Dactylv2led_rev2_Default/keyboards/Dactylv2led/keymaps/Default/keymap.o
 .debug_aranges
                0x00000000000001f0      0x140 .build/obj_Dactylv2led_rev2_Default/quantum/quantum.o
 .debug_aranges
                0x0000000000000330       0x40 .build/obj_Dactylv2led_rev2_Default/quantum/keymap_common.o
 .debug_aranges
                0x0000000000000370       0x28 .build/obj_Dactylv2led_rev2_Default/quantum/keycode_config.o
 .debug_aranges
                0x0000000000000398       0x30 .build/obj_Dactylv2led_rev2_Default/quantum/process_keycode/process_leader.o
 .debug_aranges
                0x00000000000003c8      0x198 .build/obj_Dactylv2led_rev2_Default/quantum/rgblight.o
 .debug_aranges
                0x0000000000000560       0x40 .build/obj_Dactylv2led_rev2_Default/ws2812.o
 .debug_aranges
                0x00000000000005a0       0x70 .build/obj_Dactylv2led_rev2_Default/quantum/process_keycode/process_tap_dance.o
 .debug_aranges
                0x0000000000000610       0x18 .build/obj_Dactylv2led_rev2_Default/quantum/led_tables.o
 .debug_aranges
                0x0000000000000628       0x60 .build/obj_Dactylv2led_rev2_Default/common/host.o
 .debug_aranges
                0x0000000000000688       0x48 .build/obj_Dactylv2led_rev2_Default/common/keyboard.o
 .debug_aranges
                0x00000000000006d0       0x98 .build/obj_Dactylv2led_rev2_Default/common/action.o
 .debug_aranges
                0x0000000000000768       0x48 .build/obj_Dactylv2led_rev2_Default/common/action_tapping.o
 .debug_aranges
                0x00000000000007b0       0x20 .build/obj_Dactylv2led_rev2_Default/common/action_macro.o
 .debug_aranges
                0x00000000000007d0       0xd8 .build/obj_Dactylv2led_rev2_Default/common/action_layer.o
 .debug_aranges
                0x00000000000008a8      0x120 .build/obj_Dactylv2led_rev2_Default/common/action_util.o
 .debug_aranges
                0x00000000000009c8       0x18 .build/obj_Dactylv2led_rev2_Default/common/print.o
 .debug_aranges
                0x00000000000009e0       0x18 .build/obj_Dactylv2led_rev2_Default/common/debug.o
 .debug_aranges
                0x00000000000009f8       0x60 .build/obj_Dactylv2led_rev2_Default/common/util.o
 .debug_aranges
                0x0000000000000a58       0x68 .build/obj_Dactylv2led_rev2_Default/common/eeconfig.o
 .debug_aranges
                0x0000000000000ac0       0x50 .build/obj_Dactylv2led_rev2_Default/common/report.o
 .debug_aranges
                0x0000000000000b10       0x50 .build/obj_Dactylv2led_rev2_Default/common/avr/suspend.o
 .debug_aranges
                0x0000000000000b60       0x50 .build/obj_Dactylv2led_rev2_Default/common/avr/timer.o
 .debug_aranges
                0x0000000000000bb0       0x28 .build/obj_Dactylv2led_rev2_Default/common/avr/bootloader.o
 .debug_aranges
                0x0000000000000bd8       0x20 .build/obj_Dactylv2led_rev2_Default/common/magic.o
 .debug_aranges
                0x0000000000000bf8       0x50 .build/obj_Dactylv2led_rev2_Default/common/mousekey.o
 .debug_aranges
                0x0000000000000c48       0x50 .build/obj_Dactylv2led_rev2_Default/common/command.o
 .debug_aranges
                0x0000000000000c98       0x90 .build/obj_Dactylv2led_rev2_Default/lufa.o
 .debug_aranges
                0x0000000000000d28       0x20 .build/obj_Dactylv2led_rev2_Default/usb_descriptor.o
 .debug_aranges
                0x0000000000000d48       0x38 .build/obj_Dactylv2led_rev2_Default/outputselect.o
 .debug_aranges
                0x0000000000000d80       0x38 .build/obj_Dactylv2led_rev2_Default/./lib/lufa/LUFA/Drivers/USB/Class/Common/HIDParser.o
 .debug_aranges
                0x0000000000000db8       0x20 .build/obj_Dactylv2led_rev2_Default/./lib/lufa/LUFA/Drivers/USB/Core/AVR8/Device_AVR8.o
 .debug_aranges
                0x0000000000000dd8       0xc8 .build/obj_Dactylv2led_rev2_Default/./lib/lufa/LUFA/Drivers/USB/Core/AVR8/EndpointStream_AVR8.o
 .debug_aranges
                0x0000000000000ea0       0x40 .build/obj_Dactylv2led_rev2_Default/./lib/lufa/LUFA/Drivers/USB/Core/AVR8/Endpoint_AVR8.o
 .debug_aranges
                0x0000000000000ee0       0x18 .build/obj_Dactylv2led_rev2_Default/./lib/lufa/LUFA/Drivers/USB/Core/AVR8/Host_AVR8.o
 .debug_aranges
                0x0000000000000ef8       0x18 .build/obj_Dactylv2led_rev2_Default/./lib/lufa/LUFA/Drivers/USB/Core/AVR8/PipeStream_AVR8.o
 .debug_aranges
                0x0000000000000f10       0x18 .build/obj_Dactylv2led_rev2_Default/./lib/lufa/LUFA/Drivers/USB/Core/AVR8/Pipe_AVR8.o
 .debug_aranges
                0x0000000000000f28       0x30 .build/obj_Dactylv2led_rev2_Default/./lib/lufa/LUFA/Drivers/USB/Core/AVR8/USBController_AVR8.o
 .debug_aranges
                0x0000000000000f58       0x38 .build/obj_Dactylv2led_rev2_Default/./lib/lufa/LUFA/Drivers/USB/Core/AVR8/USBInterrupt_AVR8.o
 .debug_aranges
                0x0000000000000f90       0x40 .build/obj_Dactylv2led_rev2_Default/./lib/lufa/LUFA/Drivers/USB/Core/ConfigDescriptors.o
 .debug_aranges
                0x0000000000000fd0       0x20 .build/obj_Dactylv2led_rev2_Default/./lib/lufa/LUFA/Drivers/USB/Core/DeviceStandardReq.o
 .debug_aranges
                0x0000000000000ff0       0x20 .build/obj_Dactylv2led_rev2_Default/./lib/lufa/LUFA/Drivers/USB/Core/Events.o
 .debug_aranges
                0x0000000000001010       0x18 .build/obj_Dactylv2led_rev2_Default/./lib/lufa/LUFA/Drivers/USB/Core/HostStandardReq.o
 .debug_aranges
                0x0000000000001028       0x20 .build/obj_Dactylv2led_rev2_Default/./lib/lufa/LUFA/Drivers/USB/Core/USBTask.o

.debug_pubnames
 *(.debug_pubnames)

.debug_info     0x0000000000000000    0x1806d
 *(.debug_info)
 .debug_info    0x0000000000000000      0x9b5 .build/obj_Dactylv2led_rev2_Default/matrix.o
 .debug_info    0x00000000000009b5       0x56 .build/obj_Dactylv2led_rev2_Default/i2c.o
 .debug_info    0x0000000000000a0b      0x29c .build/obj_Dactylv2led_rev2_Default/split_util.o
 .debug_info    0x0000000000000ca7      0x756 .build/obj_Dactylv2led_rev2_Default/serial.o
 .debug_info    0x00000000000013fd      0x14a .build/obj_Dactylv2led_rev2_Default/keyboards/Dactylv2led/rev2/rev2.o
 .debug_info    0x0000000000001547     0x1621 .build/obj_Dactylv2led_rev2_Default/keyboards/Dactylv2led/keymaps/Default/keymap.o
 .debug_info    0x0000000000002b68     0x2779 .build/obj_Dactylv2led_rev2_Default/quantum/quantum.o
 .debug_info    0x00000000000052e1     0x18b2 .build/obj_Dactylv2led_rev2_Default/quantum/keymap_common.o
 .debug_info    0x0000000000006b93      0x662 .build/obj_Dactylv2led_rev2_Default/quantum/keycode_config.o
 .debug_info    0x00000000000071f5      0xc7a .build/obj_Dactylv2led_rev2_Default/quantum/process_keycode/process_leader.o
 .debug_info    0x0000000000007e6f     0x16db .build/obj_Dactylv2led_rev2_Default/quantum/rgblight.o
 .debug_info    0x000000000000954a      0x3a9 .build/obj_Dactylv2led_rev2_Default/ws2812.o
 .debug_info    0x00000000000098f3     0x13ea .build/obj_Dactylv2led_rev2_Default/quantum/process_keycode/process_tap_dance.o
 .debug_info    0x000000000000acdd       0xa6 .build/obj_Dactylv2led_rev2_Default/quantum/led_tables.o
 .debug_info    0x000000000000ad83      0x450 .build/obj_Dactylv2led_rev2_Default/common/host.o
 .debug_info    0x000000000000b1d3      0x456 .build/obj_Dactylv2led_rev2_Default/common/keyboard.o
 .debug_info    0x000000000000b629     0x1d19 .build/obj_Dactylv2led_rev2_Default/common/action.o
 .debug_info    0x000000000000d342      0xf12 .build/obj_Dactylv2led_rev2_Default/common/action_tapping.o
 .debug_info    0x000000000000e254      0x88e .build/obj_Dactylv2led_rev2_Default/common/action_macro.o
 .debug_info    0x000000000000eae2      0x9be .build/obj_Dactylv2led_rev2_Default/common/action_layer.o
 .debug_info    0x000000000000f4a0      0x74a .build/obj_Dactylv2led_rev2_Default/common/action_util.o
 .debug_info    0x000000000000fbea       0x56 .build/obj_Dactylv2led_rev2_Default/common/print.o
 .debug_info    0x000000000000fc40       0xfc .build/obj_Dactylv2led_rev2_Default/common/debug.o
 .debug_info    0x000000000000fd3c      0x29b .build/obj_Dactylv2led_rev2_Default/common/util.o
 .debug_info    0x000000000000ffd7      0x422 .build/obj_Dactylv2led_rev2_Default/common/eeconfig.o
 .debug_info    0x00000000000103f9      0x31a .build/obj_Dactylv2led_rev2_Default/common/report.o
 .debug_info    0x0000000000010713      0x2b8 .build/obj_Dactylv2led_rev2_Default/common/avr/suspend.o
 .debug_info    0x00000000000109cb      0x39a .build/obj_Dactylv2led_rev2_Default/common/avr/timer.o
 .debug_info    0x0000000000010d65      0x120 .build/obj_Dactylv2led_rev2_Default/common/avr/bootloader.o
 .debug_info    0x0000000000010e85      0x29a .build/obj_Dactylv2led_rev2_Default/common/magic.o
 .debug_info    0x000000000001111f      0x67c .build/obj_Dactylv2led_rev2_Default/common/mousekey.o
 .debug_info    0x000000000001179b      0xa2a .build/obj_Dactylv2led_rev2_Default/common/command.o
 .debug_info    0x00000000000121c5     0x1013 .build/obj_Dactylv2led_rev2_Default/lufa.o
 .debug_info    0x00000000000131d8      0x7a2 .build/obj_Dactylv2led_rev2_Default/usb_descriptor.o
 .debug_info    0x000000000001397a      0x1a7 .build/obj_Dactylv2led_rev2_Default/outputselect.o
 .debug_info    0x0000000000013b21      0x7a3 .build/obj_Dactylv2led_rev2_Default/./lib/lufa/LUFA/Drivers/USB/Class/Common/HIDParser.o
 .debug_info    0x00000000000142c4       0xd2 .build/obj_Dactylv2led_rev2_Default/./lib/lufa/LUFA/Drivers/USB/Core/AVR8/Device_AVR8.o
 .debug_info    0x0000000000014396     0x17b4 .build/obj_Dactylv2led_rev2_Default/./lib/lufa/LUFA/Drivers/USB/Core/AVR8/EndpointStream_AVR8.o
 .debug_info    0x0000000000015b4a      0x614 .build/obj_Dactylv2led_rev2_Default/./lib/lufa/LUFA/Drivers/USB/Core/AVR8/Endpoint_AVR8.o
 .debug_info    0x000000000001615e       0x56 .build/obj_Dactylv2led_rev2_Default/./lib/lufa/LUFA/Drivers/USB/Core/AVR8/Host_AVR8.o
 .debug_info    0x00000000000161b4       0x56 .build/obj_Dactylv2led_rev2_Default/./lib/lufa/LUFA/Drivers/USB/Core/AVR8/PipeStream_AVR8.o
 .debug_info    0x000000000001620a       0x56 .build/obj_Dactylv2led_rev2_Default/./lib/lufa/LUFA/Drivers/USB/Core/AVR8/Pipe_AVR8.o
 .debug_info    0x0000000000016260      0x4cb .build/obj_Dactylv2led_rev2_Default/./lib/lufa/LUFA/Drivers/USB/Core/AVR8/USBController_AVR8.o
 .debug_info    0x000000000001672b      0x7c4 .build/obj_Dactylv2led_rev2_Default/./lib/lufa/LUFA/Drivers/USB/Core/AVR8/USBInterrupt_AVR8.o
 .debug_info    0x0000000000016eef      0x3cd .build/obj_Dactylv2led_rev2_Default/./lib/lufa/LUFA/Drivers/USB/Core/ConfigDescriptors.o
 .debug_info    0x00000000000172bc      0xa78 .build/obj_Dactylv2led_rev2_Default/./lib/lufa/LUFA/Drivers/USB/Core/DeviceStandardReq.o
 .debug_info    0x0000000000017d34       0x78 .build/obj_Dactylv2led_rev2_Default/./lib/lufa/LUFA/Drivers/USB/Core/Events.o
 .debug_info    0x0000000000017dac       0x56 .build/obj_Dactylv2led_rev2_Default/./lib/lufa/LUFA/Drivers/USB/Core/HostStandardReq.o
 .debug_info    0x0000000000017e02      0x26b .build/obj_Dactylv2led_rev2_Default/./lib/lufa/LUFA/Drivers/USB/Core/USBTask.o
 *(.gnu.linkonce.wi.*)

.debug_abbrev   0x0000000000000000     0x543e
 *(.debug_abbrev)
 .debug_abbrev  0x0000000000000000      0x3c6 .build/obj_Dactylv2led_rev2_Default/matrix.o
 .debug_abbrev  0x00000000000003c6       0x26 .build/obj_Dactylv2led_rev2_Default/i2c.o
 .debug_abbrev  0x00000000000003ec      0x17c .build/obj_Dactylv2led_rev2_Default/split_util.o
 .debug_abbrev  0x0000000000000568      0x257 .build/obj_Dactylv2led_rev2_Default/serial.o
 .debug_abbrev  0x00000000000007bf       0xf3 .build/obj_Dactylv2led_rev2_Default/keyboards/Dactylv2led/rev2/rev2.o
 .debug_abbrev  0x00000000000008b2      0x255 .build/obj_Dactylv2led_rev2_Default/keyboards/Dactylv2led/keymaps/Default/keymap.o
 .debug_abbrev  0x0000000000000b07      0x47c .build/obj_Dactylv2led_rev2_Default/quantum/quantum.o
 .debug_abbrev  0x0000000000000f83      0x259 .build/obj_Dactylv2led_rev2_Default/quantum/keymap_common.o
 .debug_abbrev  0x00000000000011dc       0xdf .build/obj_Dactylv2led_rev2_Default/quantum/keycode_config.o
 .debug_abbrev  0x00000000000012bb      0x16a .build/obj_Dactylv2led_rev2_Default/quantum/process_keycode/process_leader.o
 .debug_abbrev  0x0000000000001425      0x51d .build/obj_Dactylv2led_rev2_Default/quantum/rgblight.o
 .debug_abbrev  0x0000000000001942      0x192 .build/obj_Dactylv2led_rev2_Default/ws2812.o
 .debug_abbrev  0x0000000000001ad4      0x2a9 .build/obj_Dactylv2led_rev2_Default/quantum/process_keycode/process_tap_dance.o
 .debug_abbrev  0x0000000000001d7d       0x5d .build/obj_Dactylv2led_rev2_Default/quantum/led_tables.o
 .debug_abbrev  0x0000000000001dda      0x16f .build/obj_Dactylv2led_rev2_Default/common/host.o
 .debug_abbrev  0x0000000000001f49      0x250 .build/obj_Dactylv2led_rev2_Default/common/keyboard.o
 .debug_abbrev  0x0000000000002199      0x3c3 .build/obj_Dactylv2led_rev2_Default/common/action.o
 .debug_abbrev  0x000000000000255c      0x301 .build/obj_Dactylv2led_rev2_Default/common/action_tapping.o
 .debug_abbrev  0x000000000000285d      0x1c8 .build/obj_Dactylv2led_rev2_Default/common/action_macro.o
 .debug_abbrev  0x0000000000002a25      0x255 .build/obj_Dactylv2led_rev2_Default/common/action_layer.o
 .debug_abbrev  0x0000000000002c7a      0x259 .build/obj_Dactylv2led_rev2_Default/common/action_util.o
 .debug_abbrev  0x0000000000002ed3       0x26 .build/obj_Dactylv2led_rev2_Default/common/print.o
 .debug_abbrev  0x0000000000002ef9       0x87 .build/obj_Dactylv2led_rev2_Default/common/debug.o
 .debug_abbrev  0x0000000000002f80       0xcb .build/obj_Dactylv2led_rev2_Default/common/util.o
 .debug_abbrev  0x000000000000304b       0xef .build/obj_Dactylv2led_rev2_Default/common/eeconfig.o
 .debug_abbrev  0x000000000000313a      0x14d .build/obj_Dactylv2led_rev2_Default/common/report.o
 .debug_abbrev  0x0000000000003287      0x1be .build/obj_Dactylv2led_rev2_Default/common/avr/suspend.o
 .debug_abbrev  0x0000000000003445      0x184 .build/obj_Dactylv2led_rev2_Default/common/avr/timer.o
 .debug_abbrev  0x00000000000035c9       0xa7 .build/obj_Dactylv2led_rev2_Default/common/avr/bootloader.o
 .debug_abbrev  0x0000000000003670      0x11c .build/obj_Dactylv2led_rev2_Default/common/magic.o
 .debug_abbrev  0x000000000000378c      0x21e .build/obj_Dactylv2led_rev2_Default/common/mousekey.o
 .debug_abbrev  0x00000000000039aa      0x2c9 .build/obj_Dactylv2led_rev2_Default/common/command.o
 .debug_abbrev  0x0000000000003c73      0x3c5 .build/obj_Dactylv2led_rev2_Default/lufa.o
 .debug_abbrev  0x0000000000004038      0x180 .build/obj_Dactylv2led_rev2_Default/usb_descriptor.o
 .debug_abbrev  0x00000000000041b8      0x127 .build/obj_Dactylv2led_rev2_Default/outputselect.o
 .debug_abbrev  0x00000000000042df      0x241 .build/obj_Dactylv2led_rev2_Default/./lib/lufa/LUFA/Drivers/USB/Class/Common/HIDParser.o
 .debug_abbrev  0x0000000000004520       0x80 .build/obj_Dactylv2led_rev2_Default/./lib/lufa/LUFA/Drivers/USB/Core/AVR8/Device_AVR8.o
 .debug_abbrev  0x00000000000045a0      0x213 .build/obj_Dactylv2led_rev2_Default/./lib/lufa/LUFA/Drivers/USB/Core/AVR8/EndpointStream_AVR8.o
 .debug_abbrev  0x00000000000047b3      0x222 .build/obj_Dactylv2led_rev2_Default/./lib/lufa/LUFA/Drivers/USB/Core/AVR8/Endpoint_AVR8.o
 .debug_abbrev  0x00000000000049d5       0x26 .build/obj_Dactylv2led_rev2_Default/./lib/lufa/LUFA/Drivers/USB/Core/AVR8/Host_AVR8.o
 .debug_abbrev  0x00000000000049fb       0x26 .build/obj_Dactylv2led_rev2_Default/./lib/lufa/LUFA/Drivers/USB/Core/AVR8/PipeStream_AVR8.o
 .debug_abbrev  0x0000000000004a21       0x26 .build/obj_Dactylv2led_rev2_Default/./lib/lufa/LUFA/Drivers/USB/Core/AVR8/Pipe_AVR8.o
 .debug_abbrev  0x0000000000004a47      0x196 .build/obj_Dactylv2led_rev2_Default/./lib/lufa/LUFA/Drivers/USB/Core/AVR8/USBController_AVR8.o
 .debug_abbrev  0x0000000000004bdd      0x234 .build/obj_Dactylv2led_rev2_Default/./lib/lufa/LUFA/Drivers/USB/Core/AVR8/USBInterrupt_AVR8.o
 .debug_abbrev  0x0000000000004e11      0x183 .build/obj_Dactylv2led_rev2_Default/./lib/lufa/LUFA/Drivers/USB/Core/ConfigDescriptors.o
 .debug_abbrev  0x0000000000004f94      0x2d8 .build/obj_Dactylv2led_rev2_Default/./lib/lufa/LUFA/Drivers/USB/Core/DeviceStandardReq.o
 .debug_abbrev  0x000000000000526c       0x44 .build/obj_Dactylv2led_rev2_Default/./lib/lufa/LUFA/Drivers/USB/Core/Events.o
 .debug_abbrev  0x00000000000052b0       0x26 .build/obj_Dactylv2led_rev2_Default/./lib/lufa/LUFA/Drivers/USB/Core/HostStandardReq.o
 .debug_abbrev  0x00000000000052d6      0x168 .build/obj_Dactylv2led_rev2_Default/./lib/lufa/LUFA/Drivers/USB/Core/USBTask.o

.debug_line     0x0000000000000000     0x641b
 *(.debug_line)
 .debug_line    0x0000000000000000      0x2f2 .build/obj_Dactylv2led_rev2_Default/matrix.o
 .debug_line    0x00000000000002f2       0x1a .build/obj_Dactylv2led_rev2_Default/i2c.o
 .debug_line    0x000000000000030c      0x153 .build/obj_Dactylv2led_rev2_Default/split_util.o
 .debug_line    0x000000000000045f      0x22b .build/obj_Dactylv2led_rev2_Default/serial.o
 .debug_line    0x000000000000068a        0x0 .build/obj_Dactylv2led_rev2_Default/ssd1306.o
 .debug_line    0x000000000000068a       0xc7 .build/obj_Dactylv2led_rev2_Default/keyboards/Dactylv2led/rev2/rev2.o
 .debug_line    0x0000000000000751      0x26e .build/obj_Dactylv2led_rev2_Default/keyboards/Dactylv2led/keymaps/Default/keymap.o
 .debug_line    0x00000000000009bf      0x6af .build/obj_Dactylv2led_rev2_Default/quantum/quantum.o
 .debug_line    0x000000000000106e      0x22c .build/obj_Dactylv2led_rev2_Default/quantum/keymap_common.o
 .debug_line    0x000000000000129a       0xf3 .build/obj_Dactylv2led_rev2_Default/quantum/keycode_config.o
 .debug_line    0x000000000000138d      0x129 .build/obj_Dactylv2led_rev2_Default/quantum/process_keycode/process_leader.o
 .debug_line    0x00000000000014b6      0x620 .build/obj_Dactylv2led_rev2_Default/quantum/rgblight.o
 .debug_line    0x0000000000001ad6      0x109 .build/obj_Dactylv2led_rev2_Default/ws2812.o
 .debug_line    0x0000000000001bdf      0x26d .build/obj_Dactylv2led_rev2_Default/quantum/process_keycode/process_tap_dance.o
 .debug_line    0x0000000000001e4c       0x53 .build/obj_Dactylv2led_rev2_Default/quantum/led_tables.o
 .debug_line    0x0000000000001e9f      0x11d .build/obj_Dactylv2led_rev2_Default/common/host.o
 .debug_line    0x0000000000001fbc      0x17b .build/obj_Dactylv2led_rev2_Default/common/keyboard.o
 .debug_line    0x0000000000002137      0x4dc .build/obj_Dactylv2led_rev2_Default/common/action.o
 .debug_line    0x0000000000002613      0x276 .build/obj_Dactylv2led_rev2_Default/common/action_tapping.o
 .debug_line    0x0000000000002889      0x11b .build/obj_Dactylv2led_rev2_Default/common/action_macro.o
 .debug_line    0x00000000000029a4      0x244 .build/obj_Dactylv2led_rev2_Default/common/action_layer.o
 .debug_line    0x0000000000002be8      0x32a .build/obj_Dactylv2led_rev2_Default/common/action_util.o
 .debug_line    0x0000000000002f12       0x1a .build/obj_Dactylv2led_rev2_Default/common/print.o
 .debug_line    0x0000000000002f2c       0x63 .build/obj_Dactylv2led_rev2_Default/common/debug.o
 .debug_line    0x0000000000002f8f      0x178 .build/obj_Dactylv2led_rev2_Default/common/util.o
 .debug_line    0x0000000000003107      0x12b .build/obj_Dactylv2led_rev2_Default/common/eeconfig.o
 .debug_line    0x0000000000003232      0x103 .build/obj_Dactylv2led_rev2_Default/common/report.o
 .debug_line    0x0000000000003335      0x19c .build/obj_Dactylv2led_rev2_Default/common/avr/suspend.o
 .debug_line    0x00000000000034d1      0x184 .build/obj_Dactylv2led_rev2_Default/common/avr/timer.o
 .debug_line    0x0000000000003655       0xc1 .build/obj_Dactylv2led_rev2_Default/common/avr/bootloader.o
 .debug_line    0x0000000000003716       0xb6 .build/obj_Dactylv2led_rev2_Default/common/magic.o
 .debug_line    0x00000000000037cc      0x2b5 .build/obj_Dactylv2led_rev2_Default/common/mousekey.o
 .debug_line    0x0000000000003a81      0x22c .build/obj_Dactylv2led_rev2_Default/common/command.o
 .debug_line    0x0000000000003cad      0x5c3 .build/obj_Dactylv2led_rev2_Default/lufa.o
 .debug_line    0x0000000000004270      0x183 .build/obj_Dactylv2led_rev2_Default/usb_descriptor.o
 .debug_line    0x00000000000043f3      0x125 .build/obj_Dactylv2led_rev2_Default/outputselect.o
 .debug_line    0x0000000000004518      0x264 .build/obj_Dactylv2led_rev2_Default/./lib/lufa/LUFA/Drivers/USB/Class/Common/HIDParser.o
 .debug_line    0x000000000000477c       0xee .build/obj_Dactylv2led_rev2_Default/./lib/lufa/LUFA/Drivers/USB/Core/AVR8/Device_AVR8.o
 .debug_line    0x000000000000486a      0xbd0 .build/obj_Dactylv2led_rev2_Default/./lib/lufa/LUFA/Drivers/USB/Core/AVR8/EndpointStream_AVR8.o
 .debug_line    0x000000000000543a      0x339 .build/obj_Dactylv2led_rev2_Default/./lib/lufa/LUFA/Drivers/USB/Core/AVR8/Endpoint_AVR8.o
 .debug_line    0x0000000000005773       0x1a .build/obj_Dactylv2led_rev2_Default/./lib/lufa/LUFA/Drivers/USB/Core/AVR8/Host_AVR8.o
 .debug_line    0x000000000000578d       0x1a .build/obj_Dactylv2led_rev2_Default/./lib/lufa/LUFA/Drivers/USB/Core/AVR8/PipeStream_AVR8.o
 .debug_line    0x00000000000057a7       0x1a .build/obj_Dactylv2led_rev2_Default/./lib/lufa/LUFA/Drivers/USB/Core/AVR8/Pipe_AVR8.o
 .debug_line    0x00000000000057c1      0x261 .build/obj_Dactylv2led_rev2_Default/./lib/lufa/LUFA/Drivers/USB/Core/AVR8/USBController_AVR8.o
 .debug_line    0x0000000000005a22      0x3fc .build/obj_Dactylv2led_rev2_Default/./lib/lufa/LUFA/Drivers/USB/Core/AVR8/USBInterrupt_AVR8.o
 .debug_line    0x0000000000005e1e      0x145 .build/obj_Dactylv2led_rev2_Default/./lib/lufa/LUFA/Drivers/USB/Core/ConfigDescriptors.o
 .debug_line    0x0000000000005f63      0x30e .build/obj_Dactylv2led_rev2_Default/./lib/lufa/LUFA/Drivers/USB/Core/DeviceStandardReq.o
 .debug_line    0x0000000000006271       0x54 .build/obj_Dactylv2led_rev2_Default/./lib/lufa/LUFA/Drivers/USB/Core/Events.o
 .debug_line    0x00000000000062c5       0x1a .build/obj_Dactylv2led_rev2_Default/./lib/lufa/LUFA/Drivers/USB/Core/HostStandardReq.o
 .debug_line    0x00000000000062df      0x13c .build/obj_Dactylv2led_rev2_Default/./lib/lufa/LUFA/Drivers/USB/Core/USBTask.o

.debug_frame    0x0000000000000000     0x2840
 *(.debug_frame)
 .debug_frame   0x0000000000000000      0x1c8 .build/obj_Dactylv2led_rev2_Default/matrix.o
 .debug_frame   0x00000000000001c8       0x54 .build/obj_Dactylv2led_rev2_Default/split_util.o
 .debug_frame   0x000000000000021c      0x18c .build/obj_Dactylv2led_rev2_Default/serial.o
 .debug_frame   0x00000000000003a8       0x34 .build/obj_Dactylv2led_rev2_Default/keyboards/Dactylv2led/rev2/rev2.o
 .debug_frame   0x00000000000003dc       0xb8 .build/obj_Dactylv2led_rev2_Default/keyboards/Dactylv2led/keymaps/Default/keymap.o
 .debug_frame   0x0000000000000494      0x38c .build/obj_Dactylv2led_rev2_Default/quantum/quantum.o
 .debug_frame   0x0000000000000820       0x70 .build/obj_Dactylv2led_rev2_Default/quantum/keymap_common.o
 .debug_frame   0x0000000000000890       0x34 .build/obj_Dactylv2led_rev2_Default/quantum/keycode_config.o
 .debug_frame   0x00000000000008c4       0x50 .build/obj_Dactylv2led_rev2_Default/quantum/process_keycode/process_leader.o
 .debug_frame   0x0000000000000914      0x4bc .build/obj_Dactylv2led_rev2_Default/quantum/rgblight.o
 .debug_frame   0x0000000000000dd0       0x64 .build/obj_Dactylv2led_rev2_Default/ws2812.o
 .debug_frame   0x0000000000000e34      0x170 .build/obj_Dactylv2led_rev2_Default/quantum/process_keycode/process_tap_dance.o
 .debug_frame   0x0000000000000fa4       0xa4 .build/obj_Dactylv2led_rev2_Default/common/host.o
 .debug_frame   0x0000000000001048       0xac .build/obj_Dactylv2led_rev2_Default/common/keyboard.o
 .debug_frame   0x00000000000010f4      0x1c4 .build/obj_Dactylv2led_rev2_Default/common/action.o
 .debug_frame   0x00000000000012b8       0xe4 .build/obj_Dactylv2led_rev2_Default/common/action_tapping.o
 .debug_frame   0x000000000000139c       0x48 .build/obj_Dactylv2led_rev2_Default/common/action_macro.o
 .debug_frame   0x00000000000013e4      0x218 .build/obj_Dactylv2led_rev2_Default/common/action_layer.o
 .debug_frame   0x00000000000015fc      0x224 .build/obj_Dactylv2led_rev2_Default/common/action_util.o
 .debug_frame   0x0000000000001820      0x110 .build/obj_Dactylv2led_rev2_Default/common/util.o
 .debug_frame   0x0000000000001930       0xb4 .build/obj_Dactylv2led_rev2_Default/common/eeconfig.o
 .debug_frame   0x00000000000019e4       0x84 .build/obj_Dactylv2led_rev2_Default/common/report.o
 .debug_frame   0x0000000000001a68       0xb0 .build/obj_Dactylv2led_rev2_Default/common/avr/suspend.o
 .debug_frame   0x0000000000001b18       0xf0 .build/obj_Dactylv2led_rev2_Default/common/avr/timer.o
 .debug_frame   0x0000000000001c08       0x34 .build/obj_Dactylv2led_rev2_Default/common/avr/bootloader.o
 .debug_frame   0x0000000000001c3c       0x24 .build/obj_Dactylv2led_rev2_Default/common/magic.o
 .debug_frame   0x0000000000001c60       0x98 .build/obj_Dactylv2led_rev2_Default/common/mousekey.o
 .debug_frame   0x0000000000001cf8       0x8c .build/obj_Dactylv2led_rev2_Default/common/command.o
 .debug_frame   0x0000000000001d84      0x150 .build/obj_Dactylv2led_rev2_Default/lufa.o
 .debug_frame   0x0000000000001ed4       0x24 .build/obj_Dactylv2led_rev2_Default/usb_descriptor.o
 .debug_frame   0x0000000000001ef8       0x5c .build/obj_Dactylv2led_rev2_Default/outputselect.o
 .debug_frame   0x0000000000001f54      0x128 .build/obj_Dactylv2led_rev2_Default/./lib/lufa/LUFA/Drivers/USB/Class/Common/HIDParser.o
 .debug_frame   0x000000000000207c       0x24 .build/obj_Dactylv2led_rev2_Default/./lib/lufa/LUFA/Drivers/USB/Core/AVR8/Device_AVR8.o
 .debug_frame   0x00000000000020a0      0x414 .build/obj_Dactylv2led_rev2_Default/./lib/lufa/LUFA/Drivers/USB/Core/AVR8/EndpointStream_AVR8.o
 .debug_frame   0x00000000000024b4       0x7c .build/obj_Dactylv2led_rev2_Default/./lib/lufa/LUFA/Drivers/USB/Core/AVR8/Endpoint_AVR8.o
 .debug_frame   0x0000000000002530       0x5c .build/obj_Dactylv2led_rev2_Default/./lib/lufa/LUFA/Drivers/USB/Core/AVR8/USBController_AVR8.o
 .debug_frame   0x000000000000258c      0x104 .build/obj_Dactylv2led_rev2_Default/./lib/lufa/LUFA/Drivers/USB/Core/AVR8/USBInterrupt_AVR8.o
 .debug_frame   0x0000000000002690      0x124 .build/obj_Dactylv2led_rev2_Default/./lib/lufa/LUFA/Drivers/USB/Core/ConfigDescriptors.o
 .debug_frame   0x00000000000027b4       0x3c .build/obj_Dactylv2led_rev2_Default/./lib/lufa/LUFA/Drivers/USB/Core/DeviceStandardReq.o
 .debug_frame   0x00000000000027f0       0x24 .build/obj_Dactylv2led_rev2_Default/./lib/lufa/LUFA/Drivers/USB/Core/Events.o
 .debug_frame   0x0000000000002814       0x2c .build/obj_Dactylv2led_rev2_Default/./lib/lufa/LUFA/Drivers/USB/Core/USBTask.o

.debug_str      0x0000000000000000     0x6078
 *(.debug_str)
 .debug_str     0x0000000000000000      0x4a9 .build/obj_Dactylv2led_rev2_Default/matrix.o
                                        0x532 (size before relaxing)
 .debug_str     0x00000000000004a9       0x1c .build/obj_Dactylv2led_rev2_Default/i2c.o
                                        0x1c5 (size before relaxing)
 .debug_str     0x00000000000004c5       0xd4 .build/obj_Dactylv2led_rev2_Default/split_util.o
                                        0x312 (size before relaxing)
 .debug_str     0x0000000000000599       0xf2 .build/obj_Dactylv2led_rev2_Default/serial.o
                                        0x35f (size before relaxing)
 .debug_str     0x000000000000068b        0x0 .build/obj_Dactylv2led_rev2_Default/ssd1306.o
 .debug_str     0x000000000000068b       0x42 .build/obj_Dactylv2led_rev2_Default/keyboards/Dactylv2led/rev2/rev2.o
                                        0x245 (size before relaxing)
 .debug_str     0x00000000000006cd     0x1460 .build/obj_Dactylv2led_rev2_Default/keyboards/Dactylv2led/keymaps/Default/keymap.o
                                       0x174b (size before relaxing)
 .debug_str     0x0000000000001b2d      0x61b .build/obj_Dactylv2led_rev2_Default/quantum/quantum.o
                                       0x1c50 (size before relaxing)
 .debug_str     0x0000000000002148      0x663 .build/obj_Dactylv2led_rev2_Default/quantum/keymap_common.o
                                       0x1b2f (size before relaxing)
 .debug_str     0x00000000000027ab       0x19 .build/obj_Dactylv2led_rev2_Default/quantum/keycode_config.o
                                        0x8a2 (size before relaxing)
 .debug_str     0x00000000000027c4       0x7a .build/obj_Dactylv2led_rev2_Default/quantum/process_keycode/process_leader.o
                                        0xf05 (size before relaxing)
 .debug_str     0x000000000000283e      0x45d .build/obj_Dactylv2led_rev2_Default/quantum/rgblight.o
                                        0x863 (size before relaxing)
 .debug_str     0x0000000000002c9b       0x9d .build/obj_Dactylv2led_rev2_Default/ws2812.o
                                        0x2ce (size before relaxing)
 .debug_str     0x0000000000002d38      0x20e .build/obj_Dactylv2led_rev2_Default/quantum/process_keycode/process_tap_dance.o
                                       0x1204 (size before relaxing)
 .debug_str     0x0000000000002f46       0x29 .build/obj_Dactylv2led_rev2_Default/quantum/led_tables.o
                                        0x1f1 (size before relaxing)
 .debug_str     0x0000000000002f6f      0x115 .build/obj_Dactylv2led_rev2_Default/common/host.o
                                        0x38f (size before relaxing)
 .debug_str     0x0000000000003084       0xbe .build/obj_Dactylv2led_rev2_Default/common/keyboard.o
                                        0x38b (size before relaxing)
 .debug_str     0x0000000000003142      0x362 .build/obj_Dactylv2led_rev2_Default/common/action.o
                                       0x13ca (size before relaxing)
 .debug_str     0x00000000000034a4       0xe8 .build/obj_Dactylv2led_rev2_Default/common/action_tapping.o
                                        0xb5d (size before relaxing)
 .debug_str     0x000000000000358c       0x47 .build/obj_Dactylv2led_rev2_Default/common/action_macro.o
                                        0x8f1 (size before relaxing)
 .debug_str     0x00000000000035d3       0xb3 .build/obj_Dactylv2led_rev2_Default/common/action_layer.o
                                        0x4ef (size before relaxing)
 .debug_str     0x0000000000003686      0x114 .build/obj_Dactylv2led_rev2_Default/common/action_util.o
                                        0x576 (size before relaxing)
 .debug_str     0x000000000000379a       0x1a .build/obj_Dactylv2led_rev2_Default/common/print.o
                                        0x1c3 (size before relaxing)
 .debug_str     0x00000000000037b4       0x1a .build/obj_Dactylv2led_rev2_Default/common/debug.o
                                        0x213 (size before relaxing)
 .debug_str     0x00000000000037ce       0x51 .build/obj_Dactylv2led_rev2_Default/common/util.o
                                        0x229 (size before relaxing)
 .debug_str     0x000000000000381f       0xbc .build/obj_Dactylv2led_rev2_Default/common/eeconfig.o
                                        0x317 (size before relaxing)
 .debug_str     0x00000000000038db       0x49 .build/obj_Dactylv2led_rev2_Default/common/report.o
                                        0x292 (size before relaxing)
 .debug_str     0x0000000000003924      0x164 .build/obj_Dactylv2led_rev2_Default/common/avr/suspend.o
                                        0x39d (size before relaxing)
 .debug_str     0x0000000000003a88       0x8b .build/obj_Dactylv2led_rev2_Default/common/avr/timer.o
                                        0x27e (size before relaxing)
 .debug_str     0x0000000000003b13       0x65 .build/obj_Dactylv2led_rev2_Default/common/avr/bootloader.o
                                        0x25c (size before relaxing)
 .debug_str     0x0000000000003b78       0x1a .build/obj_Dactylv2led_rev2_Default/common/magic.o
                                        0x355 (size before relaxing)
 .debug_str     0x0000000000003b92       0xc7 .build/obj_Dactylv2led_rev2_Default/common/mousekey.o
                                        0x6b6 (size before relaxing)
 .debug_str     0x0000000000003c59       0xeb .build/obj_Dactylv2led_rev2_Default/common/command.o
                                        0x9ea (size before relaxing)
 .debug_str     0x0000000000003d44      0x537 .build/obj_Dactylv2led_rev2_Default/lufa.o
                                        0x9d5 (size before relaxing)
 .debug_str     0x000000000000427b      0x71e .build/obj_Dactylv2led_rev2_Default/usb_descriptor.o
                                        0x988 (size before relaxing)
 .debug_str     0x0000000000004999       0x5a .build/obj_Dactylv2led_rev2_Default/outputselect.o
                                        0x339 (size before relaxing)
 .debug_str     0x00000000000049f3      0x4a6 .build/obj_Dactylv2led_rev2_Default/./lib/lufa/LUFA/Drivers/USB/Class/Common/HIDParser.o
                                        0x70d (size before relaxing)
 .debug_str     0x0000000000004e99       0x5e .build/obj_Dactylv2led_rev2_Default/./lib/lufa/LUFA/Drivers/USB/Core/AVR8/Device_AVR8.o
                                        0x23a (size before relaxing)
 .debug_str     0x0000000000004ef7      0x4bc .build/obj_Dactylv2led_rev2_Default/./lib/lufa/LUFA/Drivers/USB/Core/AVR8/EndpointStream_AVR8.o
                                        0x89d (size before relaxing)
 .debug_str     0x00000000000053b3      0x254 .build/obj_Dactylv2led_rev2_Default/./lib/lufa/LUFA/Drivers/USB/Core/AVR8/Endpoint_AVR8.o
                                        0x65c (size before relaxing)
 .debug_str     0x0000000000005607       0x30 .build/obj_Dactylv2led_rev2_Default/./lib/lufa/LUFA/Drivers/USB/Core/AVR8/Host_AVR8.o
                                        0x1d9 (size before relaxing)
 .debug_str     0x0000000000005637       0x36 .build/obj_Dactylv2led_rev2_Default/./lib/lufa/LUFA/Drivers/USB/Core/AVR8/PipeStream_AVR8.o
                                        0x1df (size before relaxing)
 .debug_str     0x000000000000566d       0x30 .build/obj_Dactylv2led_rev2_Default/./lib/lufa/LUFA/Drivers/USB/Core/AVR8/Pipe_AVR8.o
                                        0x1d9 (size before relaxing)
 .debug_str     0x000000000000569d      0x1c0 .build/obj_Dactylv2led_rev2_Default/./lib/lufa/LUFA/Drivers/USB/Core/AVR8/USBController_AVR8.o
                                        0x59b (size before relaxing)
 .debug_str     0x000000000000585d      0x146 .build/obj_Dactylv2led_rev2_Default/./lib/lufa/LUFA/Drivers/USB/Core/AVR8/USBInterrupt_AVR8.o
                                        0x61a (size before relaxing)
 .debug_str     0x00000000000059a3      0x22a .build/obj_Dactylv2led_rev2_Default/./lib/lufa/LUFA/Drivers/USB/Core/ConfigDescriptors.o
                                        0x422 (size before relaxing)
 .debug_str     0x0000000000005bcd      0x3fe .build/obj_Dactylv2led_rev2_Default/./lib/lufa/LUFA/Drivers/USB/Core/DeviceStandardReq.o
                                        0xa0e (size before relaxing)
 .debug_str     0x0000000000005fcb       0x37 .build/obj_Dactylv2led_rev2_Default/./lib/lufa/LUFA/Drivers/USB/Core/Events.o
                                        0x1e0 (size before relaxing)
 .debug_str     0x0000000000006002       0x31 .build/obj_Dactylv2led_rev2_Default/./lib/lufa/LUFA/Drivers/USB/Core/HostStandardReq.o
                                        0x1da (size before relaxing)
 .debug_str     0x0000000000006033       0x45 .build/obj_Dactylv2led_rev2_Default/./lib/lufa/LUFA/Drivers/USB/Core/USBTask.o
                                        0x3c1 (size before relaxing)

.debug_loc      0x0000000000000000     0xbae0
 *(.debug_loc)
 .debug_loc     0x0000000000000000      0x55b .build/obj_Dactylv2led_rev2_Default/matrix.o
 .debug_loc     0x000000000000055b      0x42a .build/obj_Dactylv2led_rev2_Default/serial.o
 .debug_loc     0x0000000000000985      0x526 .build/obj_Dactylv2led_rev2_Default/keyboards/Dactylv2led/keymaps/Default/keymap.o
 .debug_loc     0x0000000000000eab     0x10da .build/obj_Dactylv2led_rev2_Default/quantum/quantum.o
 .debug_loc     0x0000000000001f85      0x7ae .build/obj_Dactylv2led_rev2_Default/quantum/keymap_common.o
 .debug_loc     0x0000000000002733      0x14f .build/obj_Dactylv2led_rev2_Default/quantum/keycode_config.o
 .debug_loc     0x0000000000002882       0xc7 .build/obj_Dactylv2led_rev2_Default/quantum/process_keycode/process_leader.o
 .debug_loc     0x0000000000002949     0x12f3 .build/obj_Dactylv2led_rev2_Default/quantum/rgblight.o
 .debug_loc     0x0000000000003c3c      0x220 .build/obj_Dactylv2led_rev2_Default/ws2812.o
 .debug_loc     0x0000000000003e5c      0x94b .build/obj_Dactylv2led_rev2_Default/quantum/process_keycode/process_tap_dance.o
 .debug_loc     0x00000000000047a7       0xd8 .build/obj_Dactylv2led_rev2_Default/common/host.o
 .debug_loc     0x000000000000487f      0x18c .build/obj_Dactylv2led_rev2_Default/common/keyboard.o
 .debug_loc     0x0000000000004a0b      0xba8 .build/obj_Dactylv2led_rev2_Default/common/action.o
 .debug_loc     0x00000000000055b3      0x5b8 .build/obj_Dactylv2led_rev2_Default/common/action_tapping.o
 .debug_loc     0x0000000000005b6b      0x49d .build/obj_Dactylv2led_rev2_Default/common/action_macro.o
 .debug_loc     0x0000000000006008      0x553 .build/obj_Dactylv2led_rev2_Default/common/action_layer.o
 .debug_loc     0x000000000000655b      0x14a .build/obj_Dactylv2led_rev2_Default/common/action_util.o
 .debug_loc     0x00000000000066a5      0x503 .build/obj_Dactylv2led_rev2_Default/common/util.o
 .debug_loc     0x0000000000006ba8       0x84 .build/obj_Dactylv2led_rev2_Default/common/eeconfig.o
 .debug_loc     0x0000000000006c2c      0x1ff .build/obj_Dactylv2led_rev2_Default/common/report.o
 .debug_loc     0x0000000000006e2b       0xc5 .build/obj_Dactylv2led_rev2_Default/common/avr/suspend.o
 .debug_loc     0x0000000000006ef0      0x2aa .build/obj_Dactylv2led_rev2_Default/common/avr/timer.o
 .debug_loc     0x000000000000719a       0x2a .build/obj_Dactylv2led_rev2_Default/common/magic.o
 .debug_loc     0x00000000000071c4      0x41b .build/obj_Dactylv2led_rev2_Default/common/mousekey.o
 .debug_loc     0x00000000000075df      0x420 .build/obj_Dactylv2led_rev2_Default/common/command.o
 .debug_loc     0x00000000000079ff      0x5e2 .build/obj_Dactylv2led_rev2_Default/lufa.o
 .debug_loc     0x0000000000007fe1      0x216 .build/obj_Dactylv2led_rev2_Default/usb_descriptor.o
 .debug_loc     0x00000000000081f7       0x4f .build/obj_Dactylv2led_rev2_Default/outputselect.o
 .debug_loc     0x0000000000008246      0xab8 .build/obj_Dactylv2led_rev2_Default/./lib/lufa/LUFA/Drivers/USB/Class/Common/HIDParser.o
 .debug_loc     0x0000000000008cfe     0x1db2 .build/obj_Dactylv2led_rev2_Default/./lib/lufa/LUFA/Drivers/USB/Core/AVR8/EndpointStream_AVR8.o
 .debug_loc     0x000000000000aab0      0x3f2 .build/obj_Dactylv2led_rev2_Default/./lib/lufa/LUFA/Drivers/USB/Core/AVR8/Endpoint_AVR8.o
 .debug_loc     0x000000000000aea2       0x49 .build/obj_Dactylv2led_rev2_Default/./lib/lufa/LUFA/Drivers/USB/Core/AVR8/USBController_AVR8.o
 .debug_loc     0x000000000000aeeb      0x333 .build/obj_Dactylv2led_rev2_Default/./lib/lufa/LUFA/Drivers/USB/Core/AVR8/USBInterrupt_AVR8.o
 .debug_loc     0x000000000000b21e      0x5bd .build/obj_Dactylv2led_rev2_Default/./lib/lufa/LUFA/Drivers/USB/Core/ConfigDescriptors.o
 .debug_loc     0x000000000000b7db      0x2bc .build/obj_Dactylv2led_rev2_Default/./lib/lufa/LUFA/Drivers/USB/Core/DeviceStandardReq.o
 .debug_loc     0x000000000000ba97       0x49 .build/obj_Dactylv2led_rev2_Default/./lib/lufa/LUFA/Drivers/USB/Core/USBTask.o

.debug_macinfo
 *(.debug_macinfo)

.debug_pubtypes
 *(.debug_pubtypes)

.debug_ranges   0x0000000000000000     0x1178
 *(.debug_ranges)
 .debug_ranges  0x0000000000000000       0xc8 .build/obj_Dactylv2led_rev2_Default/matrix.o
 .debug_ranges  0x00000000000000c8       0x28 .build/obj_Dactylv2led_rev2_Default/split_util.o
 .debug_ranges  0x00000000000000f0       0x90 .build/obj_Dactylv2led_rev2_Default/serial.o
 .debug_ranges  0x0000000000000180       0x18 .build/obj_Dactylv2led_rev2_Default/keyboards/Dactylv2led/rev2/rev2.o
 .debug_ranges  0x0000000000000198       0x50 .build/obj_Dactylv2led_rev2_Default/keyboards/Dactylv2led/keymaps/Default/keymap.o
 .debug_ranges  0x00000000000001e8      0x148 .build/obj_Dactylv2led_rev2_Default/quantum/quantum.o
 .debug_ranges  0x0000000000000330       0x30 .build/obj_Dactylv2led_rev2_Default/quantum/keymap_common.o
 .debug_ranges  0x0000000000000360       0x18 .build/obj_Dactylv2led_rev2_Default/quantum/keycode_config.o
 .debug_ranges  0x0000000000000378       0x20 .build/obj_Dactylv2led_rev2_Default/quantum/process_keycode/process_leader.o
 .debug_ranges  0x0000000000000398      0x188 .build/obj_Dactylv2led_rev2_Default/quantum/rgblight.o
 .debug_ranges  0x0000000000000520       0x30 .build/obj_Dactylv2led_rev2_Default/ws2812.o
 .debug_ranges  0x0000000000000550       0xa8 .build/obj_Dactylv2led_rev2_Default/quantum/process_keycode/process_tap_dance.o
 .debug_ranges  0x00000000000005f8       0x50 .build/obj_Dactylv2led_rev2_Default/common/host.o
 .debug_ranges  0x0000000000000648       0x50 .build/obj_Dactylv2led_rev2_Default/common/keyboard.o
 .debug_ranges  0x0000000000000698       0x88 .build/obj_Dactylv2led_rev2_Default/common/action.o
 .debug_ranges  0x0000000000000720       0x80 .build/obj_Dactylv2led_rev2_Default/common/action_tapping.o
 .debug_ranges  0x00000000000007a0       0x40 .build/obj_Dactylv2led_rev2_Default/common/action_macro.o
 .debug_ranges  0x00000000000007e0       0xe0 .build/obj_Dactylv2led_rev2_Default/common/action_layer.o
 .debug_ranges  0x00000000000008c0      0x110 .build/obj_Dactylv2led_rev2_Default/common/action_util.o
 .debug_ranges  0x00000000000009d0       0x50 .build/obj_Dactylv2led_rev2_Default/common/util.o
 .debug_ranges  0x0000000000000a20       0x58 .build/obj_Dactylv2led_rev2_Default/common/eeconfig.o
 .debug_ranges  0x0000000000000a78       0x40 .build/obj_Dactylv2led_rev2_Default/common/report.o
 .debug_ranges  0x0000000000000ab8       0x58 .build/obj_Dactylv2led_rev2_Default/common/avr/suspend.o
 .debug_ranges  0x0000000000000b10       0x40 .build/obj_Dactylv2led_rev2_Default/common/avr/timer.o
 .debug_ranges  0x0000000000000b50       0x18 .build/obj_Dactylv2led_rev2_Default/common/avr/bootloader.o
 .debug_ranges  0x0000000000000b68       0x10 .build/obj_Dactylv2led_rev2_Default/common/magic.o
 .debug_ranges  0x0000000000000b78       0x40 .build/obj_Dactylv2led_rev2_Default/common/mousekey.o
 .debug_ranges  0x0000000000000bb8       0x40 .build/obj_Dactylv2led_rev2_Default/common/command.o
 .debug_ranges  0x0000000000000bf8       0x80 .build/obj_Dactylv2led_rev2_Default/lufa.o
 .debug_ranges  0x0000000000000c78       0x28 .build/obj_Dactylv2led_rev2_Default/usb_descriptor.o
 .debug_ranges  0x0000000000000ca0       0x28 .build/obj_Dactylv2led_rev2_Default/outputselect.o
 .debug_ranges  0x0000000000000cc8       0xe8 .build/obj_Dactylv2led_rev2_Default/./lib/lufa/LUFA/Drivers/USB/Class/Common/HIDParser.o
 .debug_ranges  0x0000000000000db0       0x10 .build/obj_Dactylv2led_rev2_Default/./lib/lufa/LUFA/Drivers/USB/Core/AVR8/Device_AVR8.o
 .debug_ranges  0x0000000000000dc0      0x250 .build/obj_Dactylv2led_rev2_Default/./lib/lufa/LUFA/Drivers/USB/Core/AVR8/EndpointStream_AVR8.o
 .debug_ranges  0x0000000000001010       0x90 .build/obj_Dactylv2led_rev2_Default/./lib/lufa/LUFA/Drivers/USB/Core/AVR8/Endpoint_AVR8.o
 .debug_ranges  0x00000000000010a0       0x20 .build/obj_Dactylv2led_rev2_Default/./lib/lufa/LUFA/Drivers/USB/Core/AVR8/USBController_AVR8.o
 .debug_ranges  0x00000000000010c0       0x28 .build/obj_Dactylv2led_rev2_Default/./lib/lufa/LUFA/Drivers/USB/Core/AVR8/USBInterrupt_AVR8.o
 .debug_ranges  0x00000000000010e8       0x30 .build/obj_Dactylv2led_rev2_Default/./lib/lufa/LUFA/Drivers/USB/Core/ConfigDescriptors.o
 .debug_ranges  0x0000000000001118       0x40 .build/obj_Dactylv2led_rev2_Default/./lib/lufa/LUFA/Drivers/USB/Core/DeviceStandardReq.o
 .debug_ranges  0x0000000000001158       0x10 .build/obj_Dactylv2led_rev2_Default/./lib/lufa/LUFA/Drivers/USB/Core/Events.o
 .debug_ranges  0x0000000000001168       0x10 .build/obj_Dactylv2led_rev2_Default/./lib/lufa/LUFA/Drivers/USB/Core/USBTask.o

.debug_macro
 *(.debug_macro)
OUTPUT(.build/Dactylv2led_rev2_Default.elf elf32-avr)
LOAD linker stubs

Cross Reference Table

Symbol                                            File
CALLBACK_HIDParser_FilterHIDReportItem            .build/obj_Dactylv2led_rev2_Default/./lib/lufa/LUFA/Drivers/USB/Class/Common/HIDParser.o
CALLBACK_USB_GetDescriptor                        .build/obj_Dactylv2led_rev2_Default/lufa.o
                                                  .build/obj_Dactylv2led_rev2_Default/./lib/lufa/LUFA/Drivers/USB/Core/DeviceStandardReq.o
CIE1931_CURVE                                     .build/obj_Dactylv2led_rev2_Default/quantum/led_tables.o
                                                  .build/obj_Dactylv2led_rev2_Default/quantum/rgblight.o
ConfigurationDescriptor                           .build/obj_Dactylv2led_rev2_Default/usb_descriptor.o
DeviceDescriptor                                  .build/obj_Dactylv2led_rev2_Default/usb_descriptor.o
EVENT_USB_Device_ConfigurationChanged             .build/obj_Dactylv2led_rev2_Default/lufa.o
                                                  .build/obj_Dactylv2led_rev2_Default/./lib/lufa/LUFA/Drivers/USB/Core/DeviceStandardReq.o
EVENT_USB_Device_Connect                          .build/obj_Dactylv2led_rev2_Default/lufa.o
                                                  .build/obj_Dactylv2led_rev2_Default/./lib/lufa/LUFA/Drivers/USB/Core/AVR8/USBInterrupt_AVR8.o
EVENT_USB_Device_ControlRequest                   .build/obj_Dactylv2led_rev2_Default/lufa.o
                                                  .build/obj_Dactylv2led_rev2_Default/./lib/lufa/LUFA/Drivers/USB/Core/DeviceStandardReq.o
EVENT_USB_Device_Disconnect                       .build/obj_Dactylv2led_rev2_Default/lufa.o
                                                  .build/obj_Dactylv2led_rev2_Default/./lib/lufa/LUFA/Drivers/USB/Core/AVR8/USBInterrupt_AVR8.o
EVENT_USB_Device_Reset                            .build/obj_Dactylv2led_rev2_Default/lufa.o
                                                  .build/obj_Dactylv2led_rev2_Default/./lib/lufa/LUFA/Drivers/USB/Core/AVR8/USBInterrupt_AVR8.o
EVENT_USB_Device_StartOfFrame                     .build/obj_Dactylv2led_rev2_Default/./lib/lufa/LUFA/Drivers/USB/Core/Events.o
                                                  .build/obj_Dactylv2led_rev2_Default/./lib/lufa/LUFA/Drivers/USB/Core/AVR8/USBInterrupt_AVR8.o
EVENT_USB_Device_Suspend                          .build/obj_Dactylv2led_rev2_Default/lufa.o
                                                  .build/obj_Dactylv2led_rev2_Default/./lib/lufa/LUFA/Drivers/USB/Core/AVR8/USBInterrupt_AVR8.o
EVENT_USB_Device_WakeUp                           .build/obj_Dactylv2led_rev2_Default/lufa.o
                                                  .build/obj_Dactylv2led_rev2_Default/./lib/lufa/LUFA/Drivers/USB/Core/AVR8/USBInterrupt_AVR8.o
Endpoint_ClearEndpoints                           .build/obj_Dactylv2led_rev2_Default/./lib/lufa/LUFA/Drivers/USB/Core/AVR8/Endpoint_AVR8.o
Endpoint_ClearStatusStage                         .build/obj_Dactylv2led_rev2_Default/./lib/lufa/LUFA/Drivers/USB/Core/AVR8/Endpoint_AVR8.o
                                                  .build/obj_Dactylv2led_rev2_Default/./lib/lufa/LUFA/Drivers/USB/Core/DeviceStandardReq.o
                                                  .build/obj_Dactylv2led_rev2_Default/lufa.o
Endpoint_ConfigureEndpointTable                   .build/obj_Dactylv2led_rev2_Default/./lib/lufa/LUFA/Drivers/USB/Core/AVR8/Endpoint_AVR8.o
Endpoint_ConfigureEndpoint_Prv                    .build/obj_Dactylv2led_rev2_Default/./lib/lufa/LUFA/Drivers/USB/Core/AVR8/Endpoint_AVR8.o
                                                  .build/obj_Dactylv2led_rev2_Default/./lib/lufa/LUFA/Drivers/USB/Core/AVR8/USBInterrupt_AVR8.o
                                                  .build/obj_Dactylv2led_rev2_Default/./lib/lufa/LUFA/Drivers/USB/Core/AVR8/USBController_AVR8.o
                                                  .build/obj_Dactylv2led_rev2_Default/lufa.o
Endpoint_Discard_Stream                           .build/obj_Dactylv2led_rev2_Default/./lib/lufa/LUFA/Drivers/USB/Core/AVR8/EndpointStream_AVR8.o
Endpoint_Null_Stream                              .build/obj_Dactylv2led_rev2_Default/./lib/lufa/LUFA/Drivers/USB/Core/AVR8/EndpointStream_AVR8.o
Endpoint_Read_Control_EStream_BE                  .build/obj_Dactylv2led_rev2_Default/./lib/lufa/LUFA/Drivers/USB/Core/AVR8/EndpointStream_AVR8.o
Endpoint_Read_Control_EStream_LE                  .build/obj_Dactylv2led_rev2_Default/./lib/lufa/LUFA/Drivers/USB/Core/AVR8/EndpointStream_AVR8.o
Endpoint_Read_Control_Stream_BE                   .build/obj_Dactylv2led_rev2_Default/./lib/lufa/LUFA/Drivers/USB/Core/AVR8/EndpointStream_AVR8.o
Endpoint_Read_Control_Stream_LE                   .build/obj_Dactylv2led_rev2_Default/./lib/lufa/LUFA/Drivers/USB/Core/AVR8/EndpointStream_AVR8.o
Endpoint_Read_EStream_BE                          .build/obj_Dactylv2led_rev2_Default/./lib/lufa/LUFA/Drivers/USB/Core/AVR8/EndpointStream_AVR8.o
Endpoint_Read_EStream_LE                          .build/obj_Dactylv2led_rev2_Default/./lib/lufa/LUFA/Drivers/USB/Core/AVR8/EndpointStream_AVR8.o
Endpoint_Read_Stream_BE                           .build/obj_Dactylv2led_rev2_Default/./lib/lufa/LUFA/Drivers/USB/Core/AVR8/EndpointStream_AVR8.o
Endpoint_Read_Stream_LE                           .build/obj_Dactylv2led_rev2_Default/./lib/lufa/LUFA/Drivers/USB/Core/AVR8/EndpointStream_AVR8.o
Endpoint_WaitUntilReady                           .build/obj_Dactylv2led_rev2_Default/./lib/lufa/LUFA/Drivers/USB/Core/AVR8/Endpoint_AVR8.o
                                                  .build/obj_Dactylv2led_rev2_Default/./lib/lufa/LUFA/Drivers/USB/Core/AVR8/EndpointStream_AVR8.o
Endpoint_Write_Control_EStream_BE                 .build/obj_Dactylv2led_rev2_Default/./lib/lufa/LUFA/Drivers/USB/Core/AVR8/EndpointStream_AVR8.o
Endpoint_Write_Control_EStream_LE                 .build/obj_Dactylv2led_rev2_Default/./lib/lufa/LUFA/Drivers/USB/Core/AVR8/EndpointStream_AVR8.o
Endpoint_Write_Control_PStream_BE                 .build/obj_Dactylv2led_rev2_Default/./lib/lufa/LUFA/Drivers/USB/Core/AVR8/EndpointStream_AVR8.o
Endpoint_Write_Control_PStream_LE                 .build/obj_Dactylv2led_rev2_Default/./lib/lufa/LUFA/Drivers/USB/Core/AVR8/EndpointStream_AVR8.o
                                                  .build/obj_Dactylv2led_rev2_Default/./lib/lufa/LUFA/Drivers/USB/Core/DeviceStandardReq.o
Endpoint_Write_Control_Stream_BE                  .build/obj_Dactylv2led_rev2_Default/./lib/lufa/LUFA/Drivers/USB/Core/AVR8/EndpointStream_AVR8.o
Endpoint_Write_Control_Stream_LE                  .build/obj_Dactylv2led_rev2_Default/./lib/lufa/LUFA/Drivers/USB/Core/AVR8/EndpointStream_AVR8.o
                                                  .build/obj_Dactylv2led_rev2_Default/./lib/lufa/LUFA/Drivers/USB/Core/DeviceStandardReq.o
                                                  .build/obj_Dactylv2led_rev2_Default/lufa.o
Endpoint_Write_EStream_BE                         .build/obj_Dactylv2led_rev2_Default/./lib/lufa/LUFA/Drivers/USB/Core/AVR8/EndpointStream_AVR8.o
Endpoint_Write_EStream_LE                         .build/obj_Dactylv2led_rev2_Default/./lib/lufa/LUFA/Drivers/USB/Core/AVR8/EndpointStream_AVR8.o
Endpoint_Write_PStream_BE                         .build/obj_Dactylv2led_rev2_Default/./lib/lufa/LUFA/Drivers/USB/Core/AVR8/EndpointStream_AVR8.o
Endpoint_Write_PStream_LE                         .build/obj_Dactylv2led_rev2_Default/./lib/lufa/LUFA/Drivers/USB/Core/AVR8/EndpointStream_AVR8.o
Endpoint_Write_Stream_BE                          .build/obj_Dactylv2led_rev2_Default/./lib/lufa/LUFA/Drivers/USB/Core/AVR8/EndpointStream_AVR8.o
Endpoint_Write_Stream_LE                          .build/obj_Dactylv2led_rev2_Default/./lib/lufa/LUFA/Drivers/USB/Core/AVR8/EndpointStream_AVR8.o
                                                  .build/obj_Dactylv2led_rev2_Default/lufa.o
ExtrakeyReport                                    .build/obj_Dactylv2led_rev2_Default/usb_descriptor.o
KeyboardReport                                    .build/obj_Dactylv2led_rev2_Default/usb_descriptor.o
LED_BREATHING_TABLE                               .build/obj_Dactylv2led_rev2_Default/quantum/led_tables.o
LanguageString                                    .build/obj_Dactylv2led_rev2_Default/usb_descriptor.o
ManufacturerString                                .build/obj_Dactylv2led_rev2_Default/usb_descriptor.o
MouseReport                                       .build/obj_Dactylv2led_rev2_Default/usb_descriptor.o
ProductString                                     .build/obj_Dactylv2led_rev2_Default/usb_descriptor.o
RGBLED_BREATHING_INTERVALS                        .build/obj_Dactylv2led_rev2_Default/quantum/rgblight.o
RGBLED_GRADIENT_RANGES                            .build/obj_Dactylv2led_rev2_Default/quantum/rgblight.o
RGBLED_KNIGHT_INTERVALS                           .build/obj_Dactylv2led_rev2_Default/quantum/rgblight.o
RGBLED_RAINBOW_MOOD_INTERVALS                     .build/obj_Dactylv2led_rev2_Default/quantum/rgblight.o
RGBLED_RAINBOW_SWIRL_INTERVALS                    .build/obj_Dactylv2led_rev2_Default/quantum/rgblight.o
RGBLED_SNAKE_INTERVALS                            .build/obj_Dactylv2led_rev2_Default/quantum/rgblight.o
SLSH_BSLSH                                        .build/obj_Dactylv2led_rev2_Default/keyboards/Dactylv2led/keymaps/Default/keymap.o
SerialNumberString                                .build/obj_Dactylv2led_rev2_Default/usb_descriptor.o
USB_ControlRequest                                .build/obj_Dactylv2led_rev2_Default/./lib/lufa/LUFA/Drivers/USB/Core/USBTask.o
                                                  .build/obj_Dactylv2led_rev2_Default/./lib/lufa/LUFA/Drivers/USB/Core/DeviceStandardReq.o
                                                  .build/obj_Dactylv2led_rev2_Default/./lib/lufa/LUFA/Drivers/USB/Core/AVR8/Endpoint_AVR8.o
                                                  .build/obj_Dactylv2led_rev2_Default/./lib/lufa/LUFA/Drivers/USB/Core/AVR8/EndpointStream_AVR8.o
                                                  .build/obj_Dactylv2led_rev2_Default/lufa.o
USB_DeviceState                                   .build/obj_Dactylv2led_rev2_Default/./lib/lufa/LUFA/Drivers/USB/Core/USBTask.o
                                                  .build/obj_Dactylv2led_rev2_Default/./lib/lufa/LUFA/Drivers/USB/Core/DeviceStandardReq.o
                                                  .build/obj_Dactylv2led_rev2_Default/./lib/lufa/LUFA/Drivers/USB/Core/AVR8/USBInterrupt_AVR8.o
                                                  .build/obj_Dactylv2led_rev2_Default/./lib/lufa/LUFA/Drivers/USB/Core/AVR8/USBController_AVR8.o
                                                  .build/obj_Dactylv2led_rev2_Default/./lib/lufa/LUFA/Drivers/USB/Core/AVR8/Endpoint_AVR8.o
                                                  .build/obj_Dactylv2led_rev2_Default/./lib/lufa/LUFA/Drivers/USB/Core/AVR8/EndpointStream_AVR8.o
                                                  .build/obj_Dactylv2led_rev2_Default/outputselect.o
                                                  .build/obj_Dactylv2led_rev2_Default/lufa.o
                                                  .build/obj_Dactylv2led_rev2_Default/common/avr/suspend.o
USB_Device_ConfigurationNumber                    .build/obj_Dactylv2led_rev2_Default/./lib/lufa/LUFA/Drivers/USB/Core/DeviceStandardReq.o
                                                  .build/obj_Dactylv2led_rev2_Default/./lib/lufa/LUFA/Drivers/USB/Core/AVR8/USBInterrupt_AVR8.o
                                                  .build/obj_Dactylv2led_rev2_Default/./lib/lufa/LUFA/Drivers/USB/Core/AVR8/USBController_AVR8.o
USB_Device_CurrentlySelfPowered                   .build/obj_Dactylv2led_rev2_Default/./lib/lufa/LUFA/Drivers/USB/Core/DeviceStandardReq.o
                                                  .build/obj_Dactylv2led_rev2_Default/./lib/lufa/LUFA/Drivers/USB/Core/AVR8/USBController_AVR8.o
USB_Device_ProcessControlRequest                  .build/obj_Dactylv2led_rev2_Default/./lib/lufa/LUFA/Drivers/USB/Core/DeviceStandardReq.o
                                                  .build/obj_Dactylv2led_rev2_Default/./lib/lufa/LUFA/Drivers/USB/Core/USBTask.o
                                                  .build/obj_Dactylv2led_rev2_Default/./lib/lufa/LUFA/Drivers/USB/Core/AVR8/USBInterrupt_AVR8.o
USB_Device_RemoteWakeupEnabled                    .build/obj_Dactylv2led_rev2_Default/./lib/lufa/LUFA/Drivers/USB/Core/DeviceStandardReq.o
                                                  .build/obj_Dactylv2led_rev2_Default/./lib/lufa/LUFA/Drivers/USB/Core/AVR8/USBController_AVR8.o
                                                  .build/obj_Dactylv2led_rev2_Default/lufa.o
USB_Device_SendRemoteWakeup                       .build/obj_Dactylv2led_rev2_Default/./lib/lufa/LUFA/Drivers/USB/Core/AVR8/Device_AVR8.o
                                                  .build/obj_Dactylv2led_rev2_Default/lufa.o
USB_Disable                                       .build/obj_Dactylv2led_rev2_Default/./lib/lufa/LUFA/Drivers/USB/Core/AVR8/USBController_AVR8.o
                                                  .build/obj_Dactylv2led_rev2_Default/lufa.o
USB_Event_Stub                                    .build/obj_Dactylv2led_rev2_Default/./lib/lufa/LUFA/Drivers/USB/Core/Events.o
USB_GetHIDReportItemInfo                          .build/obj_Dactylv2led_rev2_Default/./lib/lufa/LUFA/Drivers/USB/Class/Common/HIDParser.o
USB_GetHIDReportSize                              .build/obj_Dactylv2led_rev2_Default/./lib/lufa/LUFA/Drivers/USB/Class/Common/HIDParser.o
USB_GetNextDescriptorComp                         .build/obj_Dactylv2led_rev2_Default/./lib/lufa/LUFA/Drivers/USB/Core/ConfigDescriptors.o
USB_GetNextDescriptorOfType                       .build/obj_Dactylv2led_rev2_Default/./lib/lufa/LUFA/Drivers/USB/Core/ConfigDescriptors.o
USB_GetNextDescriptorOfTypeAfter                  .build/obj_Dactylv2led_rev2_Default/./lib/lufa/LUFA/Drivers/USB/Core/ConfigDescriptors.o
USB_GetNextDescriptorOfTypeBefore                 .build/obj_Dactylv2led_rev2_Default/./lib/lufa/LUFA/Drivers/USB/Core/ConfigDescriptors.o
USB_INT_ClearAllInterrupts                        .build/obj_Dactylv2led_rev2_Default/./lib/lufa/LUFA/Drivers/USB/Core/AVR8/USBInterrupt_AVR8.o
                                                  .build/obj_Dactylv2led_rev2_Default/./lib/lufa/LUFA/Drivers/USB/Core/AVR8/USBController_AVR8.o
USB_INT_DisableAllInterrupts                      .build/obj_Dactylv2led_rev2_Default/./lib/lufa/LUFA/Drivers/USB/Core/AVR8/USBInterrupt_AVR8.o
                                                  .build/obj_Dactylv2led_rev2_Default/./lib/lufa/LUFA/Drivers/USB/Core/AVR8/USBController_AVR8.o
USB_Init                                          .build/obj_Dactylv2led_rev2_Default/./lib/lufa/LUFA/Drivers/USB/Core/AVR8/USBController_AVR8.o
                                                  .build/obj_Dactylv2led_rev2_Default/lufa.o
USB_IsInitialized                                 .build/obj_Dactylv2led_rev2_Default/./lib/lufa/LUFA/Drivers/USB/Core/USBTask.o
                                                  .build/obj_Dactylv2led_rev2_Default/./lib/lufa/LUFA/Drivers/USB/Core/AVR8/USBController_AVR8.o
                                                  .build/obj_Dactylv2led_rev2_Default/lufa.o
USB_ProcessHIDReport                              .build/obj_Dactylv2led_rev2_Default/./lib/lufa/LUFA/Drivers/USB/Class/Common/HIDParser.o
USB_ResetInterface                                .build/obj_Dactylv2led_rev2_Default/./lib/lufa/LUFA/Drivers/USB/Core/AVR8/USBController_AVR8.o
USB_SetHIDReportItemInfo                          .build/obj_Dactylv2led_rev2_Default/./lib/lufa/LUFA/Drivers/USB/Class/Common/HIDParser.o
USB_USBTask                                       .build/obj_Dactylv2led_rev2_Default/./lib/lufa/LUFA/Drivers/USB/Core/USBTask.o
                                                  .build/obj_Dactylv2led_rev2_Default/lufa.o
VirtualDesktop                                    .build/obj_Dactylv2led_rev2_Default/keyboards/Dactylv2led/keymaps/Default/keymap.o
__addsf3                                          /usr/lib/gcc/avr/4.8.2/../../../avr/lib/avr5/libm.a(addsf3.o)
__addsf3x                                         /usr/lib/gcc/avr/4.8.2/../../../avr/lib/avr5/libm.a(addsf3x.o)
                                                  /usr/lib/gcc/avr/4.8.2/../../../avr/lib/avr5/libm.a(fp_sinus.o)
                                                  /usr/lib/gcc/avr/4.8.2/../../../avr/lib/avr5/libm.a(fp_powser.o)
                                                  /usr/lib/gcc/avr/4.8.2/../../../avr/lib/avr5/libm.a(addsf3.o)
__bad_interrupt                                   /usr/lib/gcc/avr/4.8.2/../../../avr/lib/avr5/crtm32u4.o
__bss_end                                         /usr/lib/gcc/avr/4.8.2/avr5/libgcc.a(_clear_bss.o)
__bss_start                                       /usr/lib/gcc/avr/4.8.2/avr5/libgcc.a(_clear_bss.o)
__data_end                                        /usr/lib/gcc/avr/4.8.2/avr5/libgcc.a(_copy_data.o)
__data_load_start                                 /usr/lib/gcc/avr/4.8.2/avr5/libgcc.a(_copy_data.o)
__data_start                                      /usr/lib/gcc/avr/4.8.2/avr5/libgcc.a(_copy_data.o)
__divmodhi4                                       /usr/lib/gcc/avr/4.8.2/avr5/libgcc.a(_divmodhi4.o)
                                                  .build/obj_Dactylv2led_rev2_Default/common/mousekey.o
                                                  .build/obj_Dactylv2led_rev2_Default/quantum/rgblight.o
__divsf3                                          /usr/lib/gcc/avr/4.8.2/../../../avr/lib/avr5/libm.a(divsf3.o)
                                                  /usr/lib/gcc/avr/4.8.2/../../../avr/lib/avr5/libm.a(inverse.o)
                                                  .build/obj_Dactylv2led_rev2_Default/quantum/rgblight.o
__divsf3_pse                                      /usr/lib/gcc/avr/4.8.2/../../../avr/lib/avr5/libm.a(divsf3x.o)
__divsf3x                                         /usr/lib/gcc/avr/4.8.2/../../../avr/lib/avr5/libm.a(divsf3x.o)
                                                  /usr/lib/gcc/avr/4.8.2/../../../avr/lib/avr5/libm.a(divsf3.o)
__do_clear_bss                                    /usr/lib/gcc/avr/4.8.2/avr5/libgcc.a(_clear_bss.o)
                                                  .build/obj_Dactylv2led_rev2_Default/./lib/lufa/LUFA/Drivers/USB/Core/USBTask.o
                                                  .build/obj_Dactylv2led_rev2_Default/./lib/lufa/LUFA/Drivers/USB/Core/DeviceStandardReq.o
                                                  .build/obj_Dactylv2led_rev2_Default/outputselect.o
                                                  .build/obj_Dactylv2led_rev2_Default/lufa.o
                                                  .build/obj_Dactylv2led_rev2_Default/common/command.o
                                                  .build/obj_Dactylv2led_rev2_Default/common/mousekey.o
                                                  .build/obj_Dactylv2led_rev2_Default/common/magic.o
                                                  .build/obj_Dactylv2led_rev2_Default/common/avr/timer.o
                                                  .build/obj_Dactylv2led_rev2_Default/common/avr/suspend.o
                                                  .build/obj_Dactylv2led_rev2_Default/common/debug.o
                                                  .build/obj_Dactylv2led_rev2_Default/common/action_util.o
                                                  .build/obj_Dactylv2led_rev2_Default/common/action_layer.o
                                                  .build/obj_Dactylv2led_rev2_Default/common/action_tapping.o
                                                  .build/obj_Dactylv2led_rev2_Default/common/action.o
                                                  .build/obj_Dactylv2led_rev2_Default/common/keyboard.o
                                                  .build/obj_Dactylv2led_rev2_Default/common/host.o
                                                  .build/obj_Dactylv2led_rev2_Default/quantum/process_keycode/process_tap_dance.o
                                                  .build/obj_Dactylv2led_rev2_Default/quantum/rgblight.o
                                                  .build/obj_Dactylv2led_rev2_Default/quantum/process_keycode/process_leader.o
                                                  .build/obj_Dactylv2led_rev2_Default/quantum/quantum.o
                                                  .build/obj_Dactylv2led_rev2_Default/serial.o
                                                  .build/obj_Dactylv2led_rev2_Default/matrix.o
__do_copy_data                                    /usr/lib/gcc/avr/4.8.2/avr5/libgcc.a(_copy_data.o)
                                                  .build/obj_Dactylv2led_rev2_Default/usb_descriptor.o
                                                  .build/obj_Dactylv2led_rev2_Default/lufa.o
                                                  .build/obj_Dactylv2led_rev2_Default/common/command.o
                                                  .build/obj_Dactylv2led_rev2_Default/common/mousekey.o
                                                  .build/obj_Dactylv2led_rev2_Default/common/action_util.o
                                                  .build/obj_Dactylv2led_rev2_Default/quantum/process_keycode/process_tap_dance.o
                                                  .build/obj_Dactylv2led_rev2_Default/quantum/rgblight.o
                                                  .build/obj_Dactylv2led_rev2_Default/keyboards/Dactylv2led/keymaps/Default/keymap.o
                                                  .build/obj_Dactylv2led_rev2_Default/split_util.o
                                                  .build/obj_Dactylv2led_rev2_Default/matrix.o
__eerd_block_m32u4                                /usr/lib/gcc/avr/4.8.2/../../../avr/lib/avr5/libc.a(eerd_block_atmega32u4.o)
__eerd_blraw_m32u4                                /usr/lib/gcc/avr/4.8.2/../../../avr/lib/avr5/libc.a(eerd_block_atmega32u4.o)
                                                  /usr/lib/gcc/avr/4.8.2/../../../avr/lib/avr5/libc.a(eerd_word_atmega32u4.o)
                                                  /usr/lib/gcc/avr/4.8.2/../../../avr/lib/avr5/libc.a(eerd_dword_atmega32u4.o)
__eerd_byte_m32u4                                 /usr/lib/gcc/avr/4.8.2/../../../avr/lib/avr5/libc.a(eerd_byte_atmega32u4.o)
                                                  .build/obj_Dactylv2led_rev2_Default/./lib/lufa/LUFA/Drivers/USB/Core/AVR8/EndpointStream_AVR8.o
                                                  .build/obj_Dactylv2led_rev2_Default/common/eeconfig.o
                                                  .build/obj_Dactylv2led_rev2_Default/split_util.o
__eerd_dword_m32u4                                /usr/lib/gcc/avr/4.8.2/../../../avr/lib/avr5/libc.a(eerd_dword_atmega32u4.o)
                                                  .build/obj_Dactylv2led_rev2_Default/quantum/rgblight.o
__eerd_float_m32u4                                /usr/lib/gcc/avr/4.8.2/../../../avr/lib/avr5/libc.a(eerd_dword_atmega32u4.o)
__eerd_word_m32u4                                 /usr/lib/gcc/avr/4.8.2/../../../avr/lib/avr5/libc.a(eerd_word_atmega32u4.o)
                                                  .build/obj_Dactylv2led_rev2_Default/common/eeconfig.o
__eeupd_byte_m32u4                                /usr/lib/gcc/avr/4.8.2/../../../avr/lib/avr5/libc.a(eeupd_byte_atmega32u4.o)
                                                  /usr/lib/gcc/avr/4.8.2/../../../avr/lib/avr5/libc.a(eeupd_word_atmega32u4.o)
                                                  /usr/lib/gcc/avr/4.8.2/../../../avr/lib/avr5/libc.a(eeupd_dword_atmega32u4.o)
                                                  .build/obj_Dactylv2led_rev2_Default/./lib/lufa/LUFA/Drivers/USB/Core/AVR8/EndpointStream_AVR8.o
                                                  .build/obj_Dactylv2led_rev2_Default/common/eeconfig.o
__eeupd_dword_m32u4                               /usr/lib/gcc/avr/4.8.2/../../../avr/lib/avr5/libc.a(eeupd_dword_atmega32u4.o)
                                                  .build/obj_Dactylv2led_rev2_Default/common/eeconfig.o
                                                  .build/obj_Dactylv2led_rev2_Default/quantum/rgblight.o
__eeupd_float_m32u4                               /usr/lib/gcc/avr/4.8.2/../../../avr/lib/avr5/libc.a(eeupd_dword_atmega32u4.o)
__eeupd_r18_m32u4                                 /usr/lib/gcc/avr/4.8.2/../../../avr/lib/avr5/libc.a(eeupd_byte_atmega32u4.o)
                                                  /usr/lib/gcc/avr/4.8.2/../../../avr/lib/avr5/libc.a(eeupd_word_atmega32u4.o)
                                                  /usr/lib/gcc/avr/4.8.2/../../../avr/lib/avr5/libc.a(eeupd_dword_atmega32u4.o)
__eeupd_word_m32u4                                /usr/lib/gcc/avr/4.8.2/../../../avr/lib/avr5/libc.a(eeupd_word_atmega32u4.o)
                                                  .build/obj_Dactylv2led_rev2_Default/common/eeconfig.o
__fixunssfsi                                      /usr/lib/gcc/avr/4.8.2/../../../avr/lib/avr5/libm.a(fixunssfsi.o)
                                                  .build/obj_Dactylv2led_rev2_Default/quantum/rgblight.o
__floatsisf                                       /usr/lib/gcc/avr/4.8.2/../../../avr/lib/avr5/libm.a(floatsisf.o)
                                                  .build/obj_Dactylv2led_rev2_Default/quantum/rgblight.o
__floatunsisf                                     /usr/lib/gcc/avr/4.8.2/../../../avr/lib/avr5/libm.a(floatsisf.o)
__fp_inf                                          /usr/lib/gcc/avr/4.8.2/../../../avr/lib/avr5/libm.a(fp_inf.o)
                                                  /usr/lib/gcc/avr/4.8.2/../../../avr/lib/avr5/libm.a(mulsf3x.o)
                                                  /usr/lib/gcc/avr/4.8.2/../../../avr/lib/avr5/libm.a(ldexp.o)
                                                  /usr/lib/gcc/avr/4.8.2/../../../avr/lib/avr5/libm.a(exp.o)
                                                  /usr/lib/gcc/avr/4.8.2/../../../avr/lib/avr5/libm.a(divsf3x.o)
                                                  /usr/lib/gcc/avr/4.8.2/../../../avr/lib/avr5/libm.a(addsf3x.o)
__fp_mpack                                        /usr/lib/gcc/avr/4.8.2/../../../avr/lib/avr5/libm.a(fp_mpack.o)
                                                  /usr/lib/gcc/avr/4.8.2/../../../avr/lib/avr5/libm.a(ldexp.o)
__fp_mpack_finite                                 /usr/lib/gcc/avr/4.8.2/../../../avr/lib/avr5/libm.a(fp_mpack.o)
                                                  /usr/lib/gcc/avr/4.8.2/../../../avr/lib/avr5/libm.a(fp_rempio2.o)
__fp_nan                                          /usr/lib/gcc/avr/4.8.2/../../../avr/lib/avr5/libm.a(fp_nan.o)
                                                  /usr/lib/gcc/avr/4.8.2/../../../avr/lib/avr5/libm.a(fp_rempio2.o)
                                                  /usr/lib/gcc/avr/4.8.2/../../../avr/lib/avr5/libm.a(mulsf3x.o)
                                                  /usr/lib/gcc/avr/4.8.2/../../../avr/lib/avr5/libm.a(exp.o)
                                                  /usr/lib/gcc/avr/4.8.2/../../../avr/lib/avr5/libm.a(divsf3x.o)
                                                  /usr/lib/gcc/avr/4.8.2/../../../avr/lib/avr5/libm.a(addsf3x.o)
__fp_powser                                       /usr/lib/gcc/avr/4.8.2/../../../avr/lib/avr5/libm.a(fp_powser.o)
                                                  /usr/lib/gcc/avr/4.8.2/../../../avr/lib/avr5/libm.a(fp_powsodd.o)
                                                  /usr/lib/gcc/avr/4.8.2/../../../avr/lib/avr5/libm.a(exp.o)
__fp_powsodd                                      /usr/lib/gcc/avr/4.8.2/../../../avr/lib/avr5/libm.a(fp_powsodd.o)
                                                  /usr/lib/gcc/avr/4.8.2/../../../avr/lib/avr5/libm.a(fp_sinus.o)
__fp_pscA                                         /usr/lib/gcc/avr/4.8.2/../../../avr/lib/avr5/libm.a(fp_pscA.o)
                                                  /usr/lib/gcc/avr/4.8.2/../../../avr/lib/avr5/libm.a(mulsf3x.o)
                                                  /usr/lib/gcc/avr/4.8.2/../../../avr/lib/avr5/libm.a(divsf3x.o)
                                                  /usr/lib/gcc/avr/4.8.2/../../../avr/lib/avr5/libm.a(addsf3x.o)
__fp_pscB                                         /usr/lib/gcc/avr/4.8.2/../../../avr/lib/avr5/libm.a(fp_pscB.o)
                                                  /usr/lib/gcc/avr/4.8.2/../../../avr/lib/avr5/libm.a(mulsf3x.o)
                                                  /usr/lib/gcc/avr/4.8.2/../../../avr/lib/avr5/libm.a(divsf3x.o)
                                                  /usr/lib/gcc/avr/4.8.2/../../../avr/lib/avr5/libm.a(addsf3x.o)
__fp_rempio2                                      /usr/lib/gcc/avr/4.8.2/../../../avr/lib/avr5/libm.a(fp_rempio2.o)
                                                  /usr/lib/gcc/avr/4.8.2/../../../avr/lib/avr5/libm.a(sin.o)
__fp_round                                        /usr/lib/gcc/avr/4.8.2/../../../avr/lib/avr5/libm.a(fp_round.o)
                                                  /usr/lib/gcc/avr/4.8.2/../../../avr/lib/avr5/libm.a(fp_sinus.o)
                                                  /usr/lib/gcc/avr/4.8.2/../../../avr/lib/avr5/libm.a(mulsf3.o)
                                                  /usr/lib/gcc/avr/4.8.2/../../../avr/lib/avr5/libm.a(divsf3.o)
                                                  /usr/lib/gcc/avr/4.8.2/../../../avr/lib/avr5/libm.a(addsf3.o)
__fp_sinus                                        /usr/lib/gcc/avr/4.8.2/../../../avr/lib/avr5/libm.a(fp_sinus.o)
                                                  /usr/lib/gcc/avr/4.8.2/../../../avr/lib/avr5/libm.a(sin.o)
__fp_split3                                       /usr/lib/gcc/avr/4.8.2/../../../avr/lib/avr5/libm.a(fp_split3.o)
                                                  /usr/lib/gcc/avr/4.8.2/../../../avr/lib/avr5/libm.a(mulsf3x.o)
                                                  /usr/lib/gcc/avr/4.8.2/../../../avr/lib/avr5/libm.a(divsf3x.o)
                                                  /usr/lib/gcc/avr/4.8.2/../../../avr/lib/avr5/libm.a(addsf3x.o)
__fp_splitA                                       /usr/lib/gcc/avr/4.8.2/../../../avr/lib/avr5/libm.a(fp_split3.o)
                                                  /usr/lib/gcc/avr/4.8.2/../../../avr/lib/avr5/libm.a(fp_rempio2.o)
                                                  /usr/lib/gcc/avr/4.8.2/../../../avr/lib/avr5/libm.a(ldexp.o)
                                                  /usr/lib/gcc/avr/4.8.2/../../../avr/lib/avr5/libm.a(fixunssfsi.o)
                                                  /usr/lib/gcc/avr/4.8.2/../../../avr/lib/avr5/libm.a(exp.o)
__fp_szero                                        /usr/lib/gcc/avr/4.8.2/../../../avr/lib/avr5/libm.a(fp_zero.o)
                                                  /usr/lib/gcc/avr/4.8.2/../../../avr/lib/avr5/libm.a(mulsf3x.o)
                                                  /usr/lib/gcc/avr/4.8.2/../../../avr/lib/avr5/libm.a(ldexp.o)
                                                  /usr/lib/gcc/avr/4.8.2/../../../avr/lib/avr5/libm.a(divsf3x.o)
__fp_zero                                         /usr/lib/gcc/avr/4.8.2/../../../avr/lib/avr5/libm.a(fp_zero.o)
                                                  /usr/lib/gcc/avr/4.8.2/../../../avr/lib/avr5/libm.a(fixunssfsi.o)
                                                  /usr/lib/gcc/avr/4.8.2/../../../avr/lib/avr5/libm.a(exp.o)
                                                  /usr/lib/gcc/avr/4.8.2/../../../avr/lib/avr5/libm.a(addsf3x.o)
__heap_end                                        /usr/lib/gcc/avr/4.8.2/../../../avr/lib/avr5/crtm32u4.o
__init                                            /usr/lib/gcc/avr/4.8.2/../../../avr/lib/avr5/crtm32u4.o
__mulsf3                                          /usr/lib/gcc/avr/4.8.2/../../../avr/lib/avr5/libm.a(mulsf3.o)
                                                  /usr/lib/gcc/avr/4.8.2/../../../avr/lib/avr5/libm.a(fp_powsodd.o)
                                                  .build/obj_Dactylv2led_rev2_Default/quantum/rgblight.o
__mulsf3_pse                                      /usr/lib/gcc/avr/4.8.2/../../../avr/lib/avr5/libm.a(mulsf3x.o)
                                                  /usr/lib/gcc/avr/4.8.2/../../../avr/lib/avr5/libm.a(exp.o)
__mulsf3x                                         /usr/lib/gcc/avr/4.8.2/../../../avr/lib/avr5/libm.a(mulsf3x.o)
                                                  /usr/lib/gcc/avr/4.8.2/../../../avr/lib/avr5/libm.a(mulsf3.o)
                                                  /usr/lib/gcc/avr/4.8.2/../../../avr/lib/avr5/libm.a(fp_powser.o)
__stack                                           /usr/lib/gcc/avr/4.8.2/../../../avr/lib/avr5/crtm32u4.o
__subsf3                                          /usr/lib/gcc/avr/4.8.2/../../../avr/lib/avr5/libm.a(addsf3.o)
                                                  /usr/lib/gcc/avr/4.8.2/../../../avr/lib/avr5/libm.a(modf.o)
                                                  .build/obj_Dactylv2led_rev2_Default/quantum/rgblight.o
__tablejump2__                                    /usr/lib/gcc/avr/4.8.2/avr5/libgcc.a(_tablejump.o)
                                                  .build/obj_Dactylv2led_rev2_Default/./lib/lufa/LUFA/Drivers/USB/Core/DeviceStandardReq.o
                                                  .build/obj_Dactylv2led_rev2_Default/common/action.o
                                                  .build/obj_Dactylv2led_rev2_Default/quantum/quantum.o
                                                  .build/obj_Dactylv2led_rev2_Default/keyboards/Dactylv2led/keymaps/Default/keymap.o
__tablejump__                                     /usr/lib/gcc/avr/4.8.2/avr5/libgcc.a(_tablejump.o)
__udivmodhi4                                      /usr/lib/gcc/avr/4.8.2/avr5/libgcc.a(_udivmodhi4.o)
                                                  /usr/lib/gcc/avr/4.8.2/avr5/libgcc.a(_divmodhi4.o)
                                                  .build/obj_Dactylv2led_rev2_Default/quantum/rgblight.o
__vector_1                                        .build/obj_Dactylv2led_rev2_Default/serial.o
                                                  /usr/lib/gcc/avr/4.8.2/../../../avr/lib/avr5/crtm32u4.o
__vector_10                                       .build/obj_Dactylv2led_rev2_Default/./lib/lufa/LUFA/Drivers/USB/Core/AVR8/USBInterrupt_AVR8.o
                                                  /usr/lib/gcc/avr/4.8.2/../../../avr/lib/avr5/crtm32u4.o
__vector_11                                       .build/obj_Dactylv2led_rev2_Default/./lib/lufa/LUFA/Drivers/USB/Core/AVR8/USBInterrupt_AVR8.o
                                                  /usr/lib/gcc/avr/4.8.2/../../../avr/lib/avr5/crtm32u4.o
__vector_12                                       .build/obj_Dactylv2led_rev2_Default/common/avr/suspend.o
                                                  /usr/lib/gcc/avr/4.8.2/../../../avr/lib/avr5/crtm32u4.o
__vector_13                                       /usr/lib/gcc/avr/4.8.2/../../../avr/lib/avr5/crtm32u4.o
__vector_14                                       /usr/lib/gcc/avr/4.8.2/../../../avr/lib/avr5/crtm32u4.o
__vector_15                                       /usr/lib/gcc/avr/4.8.2/../../../avr/lib/avr5/crtm32u4.o
__vector_16                                       /usr/lib/gcc/avr/4.8.2/../../../avr/lib/avr5/crtm32u4.o
__vector_17                                       /usr/lib/gcc/avr/4.8.2/../../../avr/lib/avr5/crtm32u4.o
__vector_18                                       /usr/lib/gcc/avr/4.8.2/../../../avr/lib/avr5/crtm32u4.o
__vector_19                                       /usr/lib/gcc/avr/4.8.2/../../../avr/lib/avr5/crtm32u4.o
__vector_2                                        /usr/lib/gcc/avr/4.8.2/../../../avr/lib/avr5/crtm32u4.o
__vector_20                                       /usr/lib/gcc/avr/4.8.2/../../../avr/lib/avr5/crtm32u4.o
__vector_21                                       .build/obj_Dactylv2led_rev2_Default/common/avr/timer.o
                                                  /usr/lib/gcc/avr/4.8.2/../../../avr/lib/avr5/crtm32u4.o
__vector_22                                       /usr/lib/gcc/avr/4.8.2/../../../avr/lib/avr5/crtm32u4.o
__vector_23                                       /usr/lib/gcc/avr/4.8.2/../../../avr/lib/avr5/crtm32u4.o
__vector_24                                       /usr/lib/gcc/avr/4.8.2/../../../avr/lib/avr5/crtm32u4.o
__vector_25                                       /usr/lib/gcc/avr/4.8.2/../../../avr/lib/avr5/crtm32u4.o
__vector_26                                       /usr/lib/gcc/avr/4.8.2/../../../avr/lib/avr5/crtm32u4.o
__vector_27                                       /usr/lib/gcc/avr/4.8.2/../../../avr/lib/avr5/crtm32u4.o
__vector_28                                       /usr/lib/gcc/avr/4.8.2/../../../avr/lib/avr5/crtm32u4.o
__vector_29                                       /usr/lib/gcc/avr/4.8.2/../../../avr/lib/avr5/crtm32u4.o
__vector_3                                        /usr/lib/gcc/avr/4.8.2/../../../avr/lib/avr5/crtm32u4.o
__vector_30                                       /usr/lib/gcc/avr/4.8.2/../../../avr/lib/avr5/crtm32u4.o
__vector_31                                       /usr/lib/gcc/avr/4.8.2/../../../avr/lib/avr5/crtm32u4.o
__vector_32                                       /usr/lib/gcc/avr/4.8.2/../../../avr/lib/avr5/crtm32u4.o
__vector_33                                       /usr/lib/gcc/avr/4.8.2/../../../avr/lib/avr5/crtm32u4.o
__vector_34                                       /usr/lib/gcc/avr/4.8.2/../../../avr/lib/avr5/crtm32u4.o
__vector_35                                       /usr/lib/gcc/avr/4.8.2/../../../avr/lib/avr5/crtm32u4.o
__vector_36                                       /usr/lib/gcc/avr/4.8.2/../../../avr/lib/avr5/crtm32u4.o
__vector_37                                       /usr/lib/gcc/avr/4.8.2/../../../avr/lib/avr5/crtm32u4.o
__vector_38                                       /usr/lib/gcc/avr/4.8.2/../../../avr/lib/avr5/crtm32u4.o
__vector_39                                       /usr/lib/gcc/avr/4.8.2/../../../avr/lib/avr5/crtm32u4.o
__vector_4                                        /usr/lib/gcc/avr/4.8.2/../../../avr/lib/avr5/crtm32u4.o
__vector_40                                       /usr/lib/gcc/avr/4.8.2/../../../avr/lib/avr5/crtm32u4.o
__vector_41                                       /usr/lib/gcc/avr/4.8.2/../../../avr/lib/avr5/crtm32u4.o
__vector_42                                       /usr/lib/gcc/avr/4.8.2/../../../avr/lib/avr5/crtm32u4.o
__vector_5                                        /usr/lib/gcc/avr/4.8.2/../../../avr/lib/avr5/crtm32u4.o
__vector_6                                        /usr/lib/gcc/avr/4.8.2/../../../avr/lib/avr5/crtm32u4.o
__vector_7                                        /usr/lib/gcc/avr/4.8.2/../../../avr/lib/avr5/crtm32u4.o
__vector_8                                        /usr/lib/gcc/avr/4.8.2/../../../avr/lib/avr5/crtm32u4.o
__vector_9                                        /usr/lib/gcc/avr/4.8.2/../../../avr/lib/avr5/crtm32u4.o
__vector_default                                  /usr/lib/gcc/avr/4.8.2/../../../avr/lib/avr5/crtm32u4.o
__vectors                                         /usr/lib/gcc/avr/4.8.2/../../../avr/lib/avr5/crtm32u4.o
__xprintf                                         .build/obj_Dactylv2led_rev2_Default/common/avr/xprintf.o
_div                                              /usr/lib/gcc/avr/4.8.2/avr5/libgcc.a(_divmodhi4.o)
_exit                                             /usr/lib/gcc/avr/4.8.2/avr5/libgcc.a(_exit.o)
_matrix_scan                                      .build/obj_Dactylv2led_rev2_Default/matrix.o
action_exec                                       .build/obj_Dactylv2led_rev2_Default/common/action.o
                                                  .build/obj_Dactylv2led_rev2_Default/common/keyboard.o
action_for_key                                    .build/obj_Dactylv2led_rev2_Default/quantum/keymap_common.o
                                                  .build/obj_Dactylv2led_rev2_Default/common/action_layer.o
action_function                                   .build/obj_Dactylv2led_rev2_Default/quantum/keymap_common.o
                                                  .build/obj_Dactylv2led_rev2_Default/common/action.o
action_get_macro                                  .build/obj_Dactylv2led_rev2_Default/keyboards/Dactylv2led/keymaps/Default/keymap.o
                                                  .build/obj_Dactylv2led_rev2_Default/common/action.o
action_macro_play                                 .build/obj_Dactylv2led_rev2_Default/common/action_macro.o
                                                  .build/obj_Dactylv2led_rev2_Default/common/action.o
                                                  .build/obj_Dactylv2led_rev2_Default/keyboards/Dactylv2led/keymaps/Default/keymap.o
action_tapping_process                            .build/obj_Dactylv2led_rev2_Default/common/action_tapping.o
                                                  .build/obj_Dactylv2led_rev2_Default/common/action.o
add_key                                           .build/obj_Dactylv2led_rev2_Default/common/action_util.o
add_key_byte                                      .build/obj_Dactylv2led_rev2_Default/common/report.o
add_key_to_report                                 .build/obj_Dactylv2led_rev2_Default/common/report.o
                                                  .build/obj_Dactylv2led_rev2_Default/common/action_util.o
                                                  .build/obj_Dactylv2led_rev2_Default/common/action.o
                                                  .build/obj_Dactylv2led_rev2_Default/quantum/quantum.o
add_macro_mods                                    .build/obj_Dactylv2led_rev2_Default/common/action_util.o
                                                  .build/obj_Dactylv2led_rev2_Default/common/action_macro.o
add_mods                                          .build/obj_Dactylv2led_rev2_Default/common/action_util.o
                                                  .build/obj_Dactylv2led_rev2_Default/common/action.o
                                                  .build/obj_Dactylv2led_rev2_Default/quantum/process_keycode/process_tap_dance.o
add_weak_mods                                     .build/obj_Dactylv2led_rev2_Default/common/action_util.o
                                                  .build/obj_Dactylv2led_rev2_Default/common/action.o
                                                  .build/obj_Dactylv2led_rev2_Default/quantum/process_keycode/process_tap_dance.o
                                                  .build/obj_Dactylv2led_rev2_Default/quantum/quantum.o
api_send_unicode                                  .build/obj_Dactylv2led_rev2_Default/quantum/quantum.o
ascii_to_keycode_lut                              .build/obj_Dactylv2led_rev2_Default/quantum/quantum.o
ascii_to_shift_lut                                .build/obj_Dactylv2led_rev2_Default/quantum/quantum.o
auto_detect_output                                .build/obj_Dactylv2led_rev2_Default/outputselect.o
backlight_init_ports                              .build/obj_Dactylv2led_rev2_Default/quantum/quantum.o
backlight_set                                     .build/obj_Dactylv2led_rev2_Default/quantum/quantum.o
biton                                             .build/obj_Dactylv2led_rev2_Default/common/util.o
biton16                                           .build/obj_Dactylv2led_rev2_Default/common/util.o
biton32                                           .build/obj_Dactylv2led_rev2_Default/common/util.o
bitpop                                            .build/obj_Dactylv2led_rev2_Default/common/util.o
                                                  .build/obj_Dactylv2led_rev2_Default/common/action_util.o
bitpop16                                          .build/obj_Dactylv2led_rev2_Default/common/util.o
                                                  .build/obj_Dactylv2led_rev2_Default/matrix.o
bitpop32                                          .build/obj_Dactylv2led_rev2_Default/common/util.o
bitrev                                            .build/obj_Dactylv2led_rev2_Default/common/util.o
bitrev16                                          .build/obj_Dactylv2led_rev2_Default/common/util.o
bitrev32                                          .build/obj_Dactylv2led_rev2_Default/common/util.o
bootloader_jump                                   .build/obj_Dactylv2led_rev2_Default/common/avr/bootloader.o
                                                  .build/obj_Dactylv2led_rev2_Default/common/command.o
                                                  .build/obj_Dactylv2led_rev2_Default/quantum/quantum.o
bootloader_jump_after_watchdog_reset              .build/obj_Dactylv2led_rev2_Default/common/avr/bootloader.o
clear_keyboard                                    .build/obj_Dactylv2led_rev2_Default/common/action.o
                                                  .build/obj_Dactylv2led_rev2_Default/lufa.o
                                                  .build/obj_Dactylv2led_rev2_Default/common/command.o
                                                  .build/obj_Dactylv2led_rev2_Default/common/avr/suspend.o
                                                  .build/obj_Dactylv2led_rev2_Default/common/action_tapping.o
                                                  .build/obj_Dactylv2led_rev2_Default/quantum/quantum.o
clear_keyboard_but_mods                           .build/obj_Dactylv2led_rev2_Default/common/action.o
                                                  .build/obj_Dactylv2led_rev2_Default/common/action_layer.o
clear_keys                                        .build/obj_Dactylv2led_rev2_Default/common/action_util.o
clear_keys_from_report                            .build/obj_Dactylv2led_rev2_Default/common/report.o
                                                  .build/obj_Dactylv2led_rev2_Default/common/action_util.o
                                                  .build/obj_Dactylv2led_rev2_Default/common/action.o
clear_macro_mods                                  .build/obj_Dactylv2led_rev2_Default/common/action_util.o
                                                  .build/obj_Dactylv2led_rev2_Default/common/action.o
clear_mods                                        .build/obj_Dactylv2led_rev2_Default/common/action_util.o
                                                  .build/obj_Dactylv2led_rev2_Default/common/action.o
clear_oneshot_layer_state                         .build/obj_Dactylv2led_rev2_Default/common/action_util.o
                                                  .build/obj_Dactylv2led_rev2_Default/common/action.o
clear_oneshot_locked_mods                         .build/obj_Dactylv2led_rev2_Default/common/action_util.o
clear_oneshot_mods                                .build/obj_Dactylv2led_rev2_Default/common/action_util.o
                                                  .build/obj_Dactylv2led_rev2_Default/common/action.o
clear_weak_mods                                   .build/obj_Dactylv2led_rev2_Default/common/action_util.o
                                                  .build/obj_Dactylv2led_rev2_Default/common/action.o
cmd                                               .build/obj_Dactylv2led_rev2_Default/keyboards/Dactylv2led/keymaps/Default/keymap.o
cmd_commands                                      .build/obj_Dactylv2led_rev2_Default/keyboards/Dactylv2led/keymaps/Default/keymap.o
command_console_extra                             .build/obj_Dactylv2led_rev2_Default/common/command.o
command_extra                                     .build/obj_Dactylv2led_rev2_Default/common/command.o
command_proc                                      .build/obj_Dactylv2led_rev2_Default/common/command.o
                                                  .build/obj_Dactylv2led_rev2_Default/common/action.o
command_state                                     .build/obj_Dactylv2led_rev2_Default/common/command.o
debug_action                                      .build/obj_Dactylv2led_rev2_Default/common/action.o
debug_config                                      .build/obj_Dactylv2led_rev2_Default/common/debug.o
                                                  .build/obj_Dactylv2led_rev2_Default/common/command.o
                                                  .build/obj_Dactylv2led_rev2_Default/common/magic.o
                                                  .build/obj_Dactylv2led_rev2_Default/common/keyboard.o
                                                  .build/obj_Dactylv2led_rev2_Default/quantum/rgblight.o
                                                  .build/obj_Dactylv2led_rev2_Default/quantum/quantum.o
                                                  .build/obj_Dactylv2led_rev2_Default/matrix.o
debug_event                                       .build/obj_Dactylv2led_rev2_Default/common/action.o
                                                  .build/obj_Dactylv2led_rev2_Default/common/action_tapping.o
debug_record                                      .build/obj_Dactylv2led_rev2_Default/common/action.o
                                                  .build/obj_Dactylv2led_rev2_Default/common/action_tapping.o
decrement                                         .build/obj_Dactylv2led_rev2_Default/quantum/rgblight.o
default_layer_and                                 .build/obj_Dactylv2led_rev2_Default/common/action_layer.o
                                                  .build/obj_Dactylv2led_rev2_Default/common/action.o
default_layer_debug                               .build/obj_Dactylv2led_rev2_Default/common/action_layer.o
                                                  .build/obj_Dactylv2led_rev2_Default/common/action.o
default_layer_or                                  .build/obj_Dactylv2led_rev2_Default/common/action_layer.o
                                                  .build/obj_Dactylv2led_rev2_Default/common/action.o
default_layer_set                                 .build/obj_Dactylv2led_rev2_Default/common/action_layer.o
                                                  .build/obj_Dactylv2led_rev2_Default/common/command.o
                                                  .build/obj_Dactylv2led_rev2_Default/common/magic.o
                                                  .build/obj_Dactylv2led_rev2_Default/quantum/quantum.o
                                                  .build/obj_Dactylv2led_rev2_Default/keyboards/Dactylv2led/keymaps/Default/keymap.o
default_layer_state                               .build/obj_Dactylv2led_rev2_Default/common/action_layer.o
default_layer_state_set_kb                        .build/obj_Dactylv2led_rev2_Default/common/action_layer.o
default_layer_xor                                 .build/obj_Dactylv2led_rev2_Default/common/action_layer.o
                                                  .build/obj_Dactylv2led_rev2_Default/common/action.o
del_key                                           .build/obj_Dactylv2led_rev2_Default/common/action_util.o
del_key_byte                                      .build/obj_Dactylv2led_rev2_Default/common/report.o
del_key_from_report                               .build/obj_Dactylv2led_rev2_Default/common/report.o
                                                  .build/obj_Dactylv2led_rev2_Default/common/action_util.o
                                                  .build/obj_Dactylv2led_rev2_Default/common/action.o
                                                  .build/obj_Dactylv2led_rev2_Default/quantum/quantum.o
del_macro_mods                                    .build/obj_Dactylv2led_rev2_Default/common/action_util.o
                                                  .build/obj_Dactylv2led_rev2_Default/common/action_macro.o
del_mods                                          .build/obj_Dactylv2led_rev2_Default/common/action_util.o
                                                  .build/obj_Dactylv2led_rev2_Default/common/action.o
                                                  .build/obj_Dactylv2led_rev2_Default/quantum/process_keycode/process_tap_dance.o
del_weak_mods                                     .build/obj_Dactylv2led_rev2_Default/common/action_util.o
                                                  .build/obj_Dactylv2led_rev2_Default/common/action.o
                                                  .build/obj_Dactylv2led_rev2_Default/quantum/process_keycode/process_tap_dance.o
                                                  .build/obj_Dactylv2led_rev2_Default/quantum/quantum.o
desired_output                                    .build/obj_Dactylv2led_rev2_Default/outputselect.o
eeconfig_debug_rgblight                           .build/obj_Dactylv2led_rev2_Default/quantum/rgblight.o
eeconfig_disable                                  .build/obj_Dactylv2led_rev2_Default/common/eeconfig.o
eeconfig_enable                                   .build/obj_Dactylv2led_rev2_Default/common/eeconfig.o
eeconfig_init                                     .build/obj_Dactylv2led_rev2_Default/common/eeconfig.o
                                                  .build/obj_Dactylv2led_rev2_Default/common/magic.o
                                                  .build/obj_Dactylv2led_rev2_Default/quantum/rgblight.o
                                                  .build/obj_Dactylv2led_rev2_Default/quantum/quantum.o
eeconfig_is_enabled                               .build/obj_Dactylv2led_rev2_Default/common/eeconfig.o
                                                  .build/obj_Dactylv2led_rev2_Default/common/magic.o
                                                  .build/obj_Dactylv2led_rev2_Default/quantum/rgblight.o
                                                  .build/obj_Dactylv2led_rev2_Default/quantum/quantum.o
eeconfig_read_debug                               .build/obj_Dactylv2led_rev2_Default/common/eeconfig.o
                                                  .build/obj_Dactylv2led_rev2_Default/common/magic.o
eeconfig_read_default_layer                       .build/obj_Dactylv2led_rev2_Default/common/eeconfig.o
                                                  .build/obj_Dactylv2led_rev2_Default/common/magic.o
eeconfig_read_keymap                              .build/obj_Dactylv2led_rev2_Default/common/eeconfig.o
                                                  .build/obj_Dactylv2led_rev2_Default/common/magic.o
                                                  .build/obj_Dactylv2led_rev2_Default/quantum/quantum.o
eeconfig_read_rgblight                            .build/obj_Dactylv2led_rev2_Default/quantum/rgblight.o
eeconfig_update_debug                             .build/obj_Dactylv2led_rev2_Default/common/eeconfig.o
eeconfig_update_default_layer                     .build/obj_Dactylv2led_rev2_Default/common/eeconfig.o
                                                  .build/obj_Dactylv2led_rev2_Default/quantum/quantum.o
                                                  .build/obj_Dactylv2led_rev2_Default/keyboards/Dactylv2led/keymaps/Default/keymap.o
eeconfig_update_keymap                            .build/obj_Dactylv2led_rev2_Default/common/eeconfig.o
                                                  .build/obj_Dactylv2led_rev2_Default/quantum/quantum.o
eeconfig_update_rgblight                          .build/obj_Dactylv2led_rev2_Default/quantum/rgblight.o
eeconfig_update_rgblight_default                  .build/obj_Dactylv2led_rev2_Default/quantum/rgblight.o
exit                                              /usr/lib/gcc/avr/4.8.2/avr5/libgcc.a(_exit.o)
                                                  /usr/lib/gcc/avr/4.8.2/../../../avr/lib/avr5/crtm32u4.o
exp                                               /usr/lib/gcc/avr/4.8.2/../../../avr/lib/avr5/libm.a(exp.o)
                                                  .build/obj_Dactylv2led_rev2_Default/quantum/rgblight.o
fn_actions                                        .build/obj_Dactylv2led_rev2_Default/quantum/keymap_common.o
get_first_key                                     .build/obj_Dactylv2led_rev2_Default/common/report.o
get_macro_mods                                    .build/obj_Dactylv2led_rev2_Default/common/action_util.o
get_mods                                          .build/obj_Dactylv2led_rev2_Default/common/action_util.o
                                                  .build/obj_Dactylv2led_rev2_Default/quantum/process_keycode/process_tap_dance.o
                                                  .build/obj_Dactylv2led_rev2_Default/quantum/quantum.o
get_oneshot_layer                                 .build/obj_Dactylv2led_rev2_Default/common/action_util.o
                                                  .build/obj_Dactylv2led_rev2_Default/common/action.o
get_oneshot_layer_state                           .build/obj_Dactylv2led_rev2_Default/common/action_util.o
                                                  .build/obj_Dactylv2led_rev2_Default/common/action.o
get_oneshot_locked_mods                           .build/obj_Dactylv2led_rev2_Default/common/action_util.o
get_oneshot_mods                                  .build/obj_Dactylv2led_rev2_Default/common/action_util.o
                                                  .build/obj_Dactylv2led_rev2_Default/common/action.o
                                                  .build/obj_Dactylv2led_rev2_Default/quantum/process_keycode/process_tap_dance.o
get_usb_descriptor                                .build/obj_Dactylv2led_rev2_Default/usb_descriptor.o
                                                  .build/obj_Dactylv2led_rev2_Default/lufa.o
get_weak_mods                                     .build/obj_Dactylv2led_rev2_Default/common/action_util.o
                                                  .build/obj_Dactylv2led_rev2_Default/quantum/process_keycode/process_tap_dance.o
has_anykey                                        .build/obj_Dactylv2led_rev2_Default/common/report.o
                                                  .build/obj_Dactylv2led_rev2_Default/common/action_util.o
has_anymod                                        .build/obj_Dactylv2led_rev2_Default/common/action_util.o
has_oneshot_mods_timed_out                        .build/obj_Dactylv2led_rev2_Default/common/action_util.o
has_usb                                           .build/obj_Dactylv2led_rev2_Default/split_util.o
hex_to_keycode                                    .build/obj_Dactylv2led_rev2_Default/quantum/quantum.o
host_consumer_send                                .build/obj_Dactylv2led_rev2_Default/common/host.o
                                                  .build/obj_Dactylv2led_rev2_Default/common/action.o
host_get_driver                                   .build/obj_Dactylv2led_rev2_Default/common/host.o
host_keyboard_leds                                .build/obj_Dactylv2led_rev2_Default/common/host.o
                                                  .build/obj_Dactylv2led_rev2_Default/common/avr/suspend.o
                                                  .build/obj_Dactylv2led_rev2_Default/common/action.o
                                                  .build/obj_Dactylv2led_rev2_Default/common/keyboard.o
host_keyboard_send                                .build/obj_Dactylv2led_rev2_Default/common/host.o
                                                  .build/obj_Dactylv2led_rev2_Default/common/action_util.o
host_last_consumer_report                         .build/obj_Dactylv2led_rev2_Default/common/host.o
host_last_system_report                           .build/obj_Dactylv2led_rev2_Default/common/host.o
host_mouse_send                                   .build/obj_Dactylv2led_rev2_Default/common/host.o
                                                  .build/obj_Dactylv2led_rev2_Default/common/mousekey.o
host_set_driver                                   .build/obj_Dactylv2led_rev2_Default/common/host.o
                                                  .build/obj_Dactylv2led_rev2_Default/lufa.o
host_system_send                                  .build/obj_Dactylv2led_rev2_Default/common/host.o
                                                  .build/obj_Dactylv2led_rev2_Default/common/action.o
increment                                         .build/obj_Dactylv2led_rev2_Default/quantum/rgblight.o
inmem_config                                      .build/obj_Dactylv2led_rev2_Default/quantum/rgblight.o
inverse                                           /usr/lib/gcc/avr/4.8.2/../../../avr/lib/avr5/libm.a(inverse.o)
                                                  /usr/lib/gcc/avr/4.8.2/../../../avr/lib/avr5/libm.a(exp.o)
isLeftHand                                        .build/obj_Dactylv2led_rev2_Default/split_util.o
                                                  .build/obj_Dactylv2led_rev2_Default/matrix.o
is_keyboard_master                                .build/obj_Dactylv2led_rev2_Default/common/keyboard.o
is_oneshot_layer_active                           .build/obj_Dactylv2led_rev2_Default/common/action_util.o
                                                  .build/obj_Dactylv2led_rev2_Default/common/action.o
is_tap_key                                        .build/obj_Dactylv2led_rev2_Default/common/action.o
                                                  .build/obj_Dactylv2led_rev2_Default/common/action_tapping.o
keyboard_idle                                     .build/obj_Dactylv2led_rev2_Default/lufa.o
keyboard_init                                     .build/obj_Dactylv2led_rev2_Default/common/keyboard.o
                                                  .build/obj_Dactylv2led_rev2_Default/lufa.o
keyboard_protocol                                 .build/obj_Dactylv2led_rev2_Default/lufa.o
keyboard_report                                   .build/obj_Dactylv2led_rev2_Default/common/action_util.o
                                                  .build/obj_Dactylv2led_rev2_Default/common/command.o
                                                  .build/obj_Dactylv2led_rev2_Default/common/action.o
                                                  .build/obj_Dactylv2led_rev2_Default/quantum/quantum.o
keyboard_set_leds                                 .build/obj_Dactylv2led_rev2_Default/common/keyboard.o
keyboard_setup                                    .build/obj_Dactylv2led_rev2_Default/common/keyboard.o
                                                  .build/obj_Dactylv2led_rev2_Default/lufa.o
keyboard_slave_loop                               .build/obj_Dactylv2led_rev2_Default/split_util.o
keyboard_task                                     .build/obj_Dactylv2led_rev2_Default/common/keyboard.o
                                                  .build/obj_Dactylv2led_rev2_Default/lufa.o
keycode_config                                    .build/obj_Dactylv2led_rev2_Default/quantum/keycode_config.o
                                                  .build/obj_Dactylv2led_rev2_Default/quantum/keymap_common.o
keymap_config                                     .build/obj_Dactylv2led_rev2_Default/common/magic.o
                                                  .build/obj_Dactylv2led_rev2_Default/quantum/keycode_config.o
                                                  .build/obj_Dactylv2led_rev2_Default/quantum/quantum.o
keymap_function_id_to_action                      .build/obj_Dactylv2led_rev2_Default/quantum/keymap_common.o
keymap_key_to_keycode                             .build/obj_Dactylv2led_rev2_Default/quantum/keymap_common.o
                                                  .build/obj_Dactylv2led_rev2_Default/quantum/quantum.o
keymaps                                           .build/obj_Dactylv2led_rev2_Default/keyboards/Dactylv2led/keymaps/Default/keymap.o
                                                  .build/obj_Dactylv2led_rev2_Default/quantum/keymap_common.o
layer_and                                         .build/obj_Dactylv2led_rev2_Default/common/action_layer.o
                                                  .build/obj_Dactylv2led_rev2_Default/common/action.o
layer_clear                                       .build/obj_Dactylv2led_rev2_Default/common/action_layer.o
                                                  .build/obj_Dactylv2led_rev2_Default/common/action.o
layer_debug                                       .build/obj_Dactylv2led_rev2_Default/common/action_layer.o
                                                  .build/obj_Dactylv2led_rev2_Default/common/action.o
layer_invert                                      .build/obj_Dactylv2led_rev2_Default/common/action_layer.o
                                                  .build/obj_Dactylv2led_rev2_Default/common/action.o
layer_move                                        .build/obj_Dactylv2led_rev2_Default/common/action_layer.o
                                                  .build/obj_Dactylv2led_rev2_Default/common/action.o
                                                  .build/obj_Dactylv2led_rev2_Default/quantum/process_keycode/process_tap_dance.o
layer_off                                         .build/obj_Dactylv2led_rev2_Default/common/action_layer.o
                                                  .build/obj_Dactylv2led_rev2_Default/common/action_util.o
                                                  .build/obj_Dactylv2led_rev2_Default/common/action.o
                                                  .build/obj_Dactylv2led_rev2_Default/keyboards/Dactylv2led/keymaps/Default/keymap.o
layer_on                                          .build/obj_Dactylv2led_rev2_Default/common/action_layer.o
                                                  .build/obj_Dactylv2led_rev2_Default/common/action_util.o
                                                  .build/obj_Dactylv2led_rev2_Default/common/action.o
                                                  .build/obj_Dactylv2led_rev2_Default/keyboards/Dactylv2led/keymaps/Default/keymap.o
layer_or                                          .build/obj_Dactylv2led_rev2_Default/common/action_layer.o
                                                  .build/obj_Dactylv2led_rev2_Default/common/action.o
layer_state                                       .build/obj_Dactylv2led_rev2_Default/common/action_layer.o
                                                  .build/obj_Dactylv2led_rev2_Default/quantum/quantum.o
layer_state_cmp                                   .build/obj_Dactylv2led_rev2_Default/common/action_layer.o
layer_state_is                                    .build/obj_Dactylv2led_rev2_Default/common/action_layer.o
layer_state_set                                   .build/obj_Dactylv2led_rev2_Default/common/action_layer.o
                                                  .build/obj_Dactylv2led_rev2_Default/quantum/quantum.o
layer_state_set_kb                                .build/obj_Dactylv2led_rev2_Default/common/action_layer.o
layer_state_set_user                              .build/obj_Dactylv2led_rev2_Default/common/action_layer.o
layer_switch_get_action                           .build/obj_Dactylv2led_rev2_Default/common/action_layer.o
                                                  .build/obj_Dactylv2led_rev2_Default/common/action_tapping.o
                                                  .build/obj_Dactylv2led_rev2_Default/common/action.o
layer_switch_get_layer                            .build/obj_Dactylv2led_rev2_Default/common/action_layer.o
                                                  .build/obj_Dactylv2led_rev2_Default/quantum/quantum.o
layer_xor                                         .build/obj_Dactylv2led_rev2_Default/common/action_layer.o
                                                  .build/obj_Dactylv2led_rev2_Default/common/action.o
ldexp                                             /usr/lib/gcc/avr/4.8.2/../../../avr/lib/avr5/libm.a(ldexp.o)
                                                  /usr/lib/gcc/avr/4.8.2/../../../avr/lib/avr5/libm.a(exp.o)
leader_end                                        .build/obj_Dactylv2led_rev2_Default/quantum/process_keycode/process_leader.o
leader_sequence                                   .build/obj_Dactylv2led_rev2_Default/quantum/process_keycode/process_leader.o
leader_sequence_size                              .build/obj_Dactylv2led_rev2_Default/quantum/process_keycode/process_leader.o
leader_start                                      .build/obj_Dactylv2led_rev2_Default/quantum/process_keycode/process_leader.o
leader_time                                       .build/obj_Dactylv2led_rev2_Default/quantum/process_keycode/process_leader.o
leading                                           .build/obj_Dactylv2led_rev2_Default/quantum/process_keycode/process_leader.o
led                                               .build/obj_Dactylv2led_rev2_Default/quantum/rgblight.o
led_init_ports                                    .build/obj_Dactylv2led_rev2_Default/quantum/quantum.o
led_set                                           .build/obj_Dactylv2led_rev2_Default/quantum/quantum.o
                                                  .build/obj_Dactylv2led_rev2_Default/common/avr/suspend.o
                                                  .build/obj_Dactylv2led_rev2_Default/common/action.o
                                                  .build/obj_Dactylv2led_rev2_Default/common/keyboard.o
led_set_kb                                        .build/obj_Dactylv2led_rev2_Default/quantum/quantum.o
led_set_user                                      .build/obj_Dactylv2led_rev2_Default/quantum/quantum.o
lufa_driver                                       .build/obj_Dactylv2led_rev2_Default/lufa.o
magic                                             .build/obj_Dactylv2led_rev2_Default/common/magic.o
                                                  .build/obj_Dactylv2led_rev2_Default/common/keyboard.o
main                                              .build/obj_Dactylv2led_rev2_Default/lufa.o
                                                  /usr/lib/gcc/avr/4.8.2/../../../avr/lib/avr5/crtm32u4.o
matrix_cols                                       .build/obj_Dactylv2led_rev2_Default/matrix.o
matrix_get_row                                    .build/obj_Dactylv2led_rev2_Default/matrix.o
                                                  .build/obj_Dactylv2led_rev2_Default/common/avr/suspend.o
                                                  .build/obj_Dactylv2led_rev2_Default/common/keyboard.o
matrix_init                                       .build/obj_Dactylv2led_rev2_Default/matrix.o
                                                  .build/obj_Dactylv2led_rev2_Default/common/keyboard.o
                                                  .build/obj_Dactylv2led_rev2_Default/split_util.o
matrix_init_kb                                    .build/obj_Dactylv2led_rev2_Default/keyboards/Dactylv2led/rev2/rev2.o
                                                  .build/obj_Dactylv2led_rev2_Default/matrix.o
                                                  .build/obj_Dactylv2led_rev2_Default/quantum/quantum.o
matrix_init_quantum                               .build/obj_Dactylv2led_rev2_Default/quantum/quantum.o
                                                  .build/obj_Dactylv2led_rev2_Default/matrix.o
matrix_init_user                                  .build/obj_Dactylv2led_rev2_Default/keyboards/Dactylv2led/keymaps/Default/keymap.o
                                                  .build/obj_Dactylv2led_rev2_Default/matrix.o
                                                  .build/obj_Dactylv2led_rev2_Default/keyboards/Dactylv2led/rev2/rev2.o
matrix_is_modified                                .build/obj_Dactylv2led_rev2_Default/matrix.o
matrix_is_on                                      .build/obj_Dactylv2led_rev2_Default/matrix.o
matrix_key_count                                  .build/obj_Dactylv2led_rev2_Default/matrix.o
matrix_power_down                                 .build/obj_Dactylv2led_rev2_Default/common/avr/suspend.o
matrix_power_up                                   .build/obj_Dactylv2led_rev2_Default/common/avr/suspend.o
matrix_print                                      .build/obj_Dactylv2led_rev2_Default/matrix.o
                                                  .build/obj_Dactylv2led_rev2_Default/common/keyboard.o
matrix_rows                                       .build/obj_Dactylv2led_rev2_Default/matrix.o
matrix_scan                                       .build/obj_Dactylv2led_rev2_Default/matrix.o
                                                  .build/obj_Dactylv2led_rev2_Default/common/avr/suspend.o
                                                  .build/obj_Dactylv2led_rev2_Default/common/keyboard.o
matrix_scan_kb                                    .build/obj_Dactylv2led_rev2_Default/matrix.o
                                                  .build/obj_Dactylv2led_rev2_Default/quantum/quantum.o
matrix_scan_quantum                               .build/obj_Dactylv2led_rev2_Default/quantum/quantum.o
                                                  .build/obj_Dactylv2led_rev2_Default/matrix.o
matrix_scan_tap_dance                             .build/obj_Dactylv2led_rev2_Default/quantum/process_keycode/process_tap_dance.o
                                                  .build/obj_Dactylv2led_rev2_Default/quantum/quantum.o
matrix_scan_user                                  .build/obj_Dactylv2led_rev2_Default/keyboards/Dactylv2led/keymaps/Default/keymap.o
                                                  .build/obj_Dactylv2led_rev2_Default/matrix.o
matrix_setup                                      .build/obj_Dactylv2led_rev2_Default/split_util.o
matrix_slave_scan                                 .build/obj_Dactylv2led_rev2_Default/matrix.o
                                                  .build/obj_Dactylv2led_rev2_Default/split_util.o
memcpy                                            /usr/lib/gcc/avr/4.8.2/../../../avr/lib/avr5/libc.a(memcpy.o)
                                                  /usr/lib/gcc/avr/4.8.2/../../../avr/lib/avr5/libc.a(memmove.o)
memmove                                           /usr/lib/gcc/avr/4.8.2/../../../avr/lib/avr5/libc.a(memmove.o)
                                                  .build/obj_Dactylv2led_rev2_Default/./lib/lufa/LUFA/Drivers/USB/Class/Common/HIDParser.o
mk_delay                                          .build/obj_Dactylv2led_rev2_Default/common/mousekey.o
                                                  .build/obj_Dactylv2led_rev2_Default/common/command.o
mk_interval                                       .build/obj_Dactylv2led_rev2_Default/common/mousekey.o
                                                  .build/obj_Dactylv2led_rev2_Default/common/command.o
mk_max_speed                                      .build/obj_Dactylv2led_rev2_Default/common/mousekey.o
                                                  .build/obj_Dactylv2led_rev2_Default/common/command.o
mk_time_to_max                                    .build/obj_Dactylv2led_rev2_Default/common/mousekey.o
                                                  .build/obj_Dactylv2led_rev2_Default/common/command.o
mk_wheel_max_speed                                .build/obj_Dactylv2led_rev2_Default/common/mousekey.o
                                                  .build/obj_Dactylv2led_rev2_Default/common/command.o
mk_wheel_time_to_max                              .build/obj_Dactylv2led_rev2_Default/common/mousekey.o
                                                  .build/obj_Dactylv2led_rev2_Default/common/command.o
mod_config                                        .build/obj_Dactylv2led_rev2_Default/quantum/keycode_config.o
                                                  .build/obj_Dactylv2led_rev2_Default/quantum/keymap_common.o
modf                                              /usr/lib/gcc/avr/4.8.2/../../../avr/lib/avr5/libm.a(modf.o)
                                                  /usr/lib/gcc/avr/4.8.2/../../../avr/lib/avr5/libm.a(exp.o)
modff                                             /usr/lib/gcc/avr/4.8.2/../../../avr/lib/avr5/libm.a(modf.o)
mousekey_clear                                    .build/obj_Dactylv2led_rev2_Default/common/mousekey.o
                                                  .build/obj_Dactylv2led_rev2_Default/common/action.o
mousekey_off                                      .build/obj_Dactylv2led_rev2_Default/common/mousekey.o
                                                  .build/obj_Dactylv2led_rev2_Default/common/action.o
mousekey_on                                       .build/obj_Dactylv2led_rev2_Default/common/mousekey.o
                                                  .build/obj_Dactylv2led_rev2_Default/common/action.o
mousekey_send                                     .build/obj_Dactylv2led_rev2_Default/common/mousekey.o
                                                  .build/obj_Dactylv2led_rev2_Default/common/action.o
mousekey_task                                     .build/obj_Dactylv2led_rev2_Default/common/mousekey.o
                                                  .build/obj_Dactylv2led_rev2_Default/common/keyboard.o
numkey2num                                        .build/obj_Dactylv2led_rev2_Default/common/command.o
persistent_default_layer_set                      .build/obj_Dactylv2led_rev2_Default/keyboards/Dactylv2led/keymaps/Default/keymap.o
preprocess_tap_dance                              .build/obj_Dactylv2led_rev2_Default/quantum/process_keycode/process_tap_dance.o
                                                  .build/obj_Dactylv2led_rev2_Default/quantum/quantum.o
process_action                                    .build/obj_Dactylv2led_rev2_Default/common/action.o
process_action_kb                                 .build/obj_Dactylv2led_rev2_Default/quantum/quantum.o
process_leader                                    .build/obj_Dactylv2led_rev2_Default/quantum/process_keycode/process_leader.o
                                                  .build/obj_Dactylv2led_rev2_Default/quantum/quantum.o
process_record                                    .build/obj_Dactylv2led_rev2_Default/common/action.o
                                                  .build/obj_Dactylv2led_rev2_Default/common/action_tapping.o
process_record_kb                                 .build/obj_Dactylv2led_rev2_Default/quantum/quantum.o
process_record_nocache                            .build/obj_Dactylv2led_rev2_Default/common/action.o
process_record_quantum                            .build/obj_Dactylv2led_rev2_Default/quantum/quantum.o
process_record_tap_hint                           .build/obj_Dactylv2led_rev2_Default/common/action.o
                                                  .build/obj_Dactylv2led_rev2_Default/common/action_tapping.o
process_record_user                               .build/obj_Dactylv2led_rev2_Default/keyboards/Dactylv2led/keymaps/Default/keymap.o
process_tap_dance                                 .build/obj_Dactylv2led_rev2_Default/quantum/process_keycode/process_tap_dance.o
                                                  .build/obj_Dactylv2led_rev2_Default/quantum/quantum.o
qk_tap_dance_dual_role_finished                   .build/obj_Dactylv2led_rev2_Default/quantum/process_keycode/process_tap_dance.o
qk_tap_dance_dual_role_on_each_tap                .build/obj_Dactylv2led_rev2_Default/quantum/process_keycode/process_tap_dance.o
qk_tap_dance_dual_role_reset                      .build/obj_Dactylv2led_rev2_Default/quantum/process_keycode/process_tap_dance.o
qk_tap_dance_pair_finished                        .build/obj_Dactylv2led_rev2_Default/quantum/process_keycode/process_tap_dance.o
qk_tap_dance_pair_on_each_tap                     .build/obj_Dactylv2led_rev2_Default/quantum/process_keycode/process_tap_dance.o
qk_tap_dance_pair_reset                           .build/obj_Dactylv2led_rev2_Default/quantum/process_keycode/process_tap_dance.o
register_code                                     .build/obj_Dactylv2led_rev2_Default/common/action.o
                                                  .build/obj_Dactylv2led_rev2_Default/common/action_macro.o
                                                  .build/obj_Dactylv2led_rev2_Default/quantum/quantum.o
                                                  .build/obj_Dactylv2led_rev2_Default/keyboards/Dactylv2led/keymaps/Default/keymap.o
register_code16                                   .build/obj_Dactylv2led_rev2_Default/quantum/quantum.o
                                                  .build/obj_Dactylv2led_rev2_Default/quantum/process_keycode/process_tap_dance.o
register_mods                                     .build/obj_Dactylv2led_rev2_Default/common/action.o
                                                  .build/obj_Dactylv2led_rev2_Default/quantum/quantum.o
reset_key                                         .build/obj_Dactylv2led_rev2_Default/common/avr/bootloader.o
reset_keyboard                                    .build/obj_Dactylv2led_rev2_Default/quantum/quantum.o
reset_oneshot_layer                               .build/obj_Dactylv2led_rev2_Default/common/action_util.o
reset_tap_dance                                   .build/obj_Dactylv2led_rev2_Default/quantum/process_keycode/process_tap_dance.o
rgb_matrix_task_counter                           .build/obj_Dactylv2led_rev2_Default/quantum/quantum.o
rgblight_config                                   .build/obj_Dactylv2led_rev2_Default/quantum/rgblight.o
rgblight_decrease                                 .build/obj_Dactylv2led_rev2_Default/quantum/rgblight.o
rgblight_decrease_hue                             .build/obj_Dactylv2led_rev2_Default/quantum/rgblight.o
                                                  .build/obj_Dactylv2led_rev2_Default/quantum/quantum.o
rgblight_decrease_sat                             .build/obj_Dactylv2led_rev2_Default/quantum/rgblight.o
                                                  .build/obj_Dactylv2led_rev2_Default/quantum/quantum.o
rgblight_decrease_speed                           .build/obj_Dactylv2led_rev2_Default/quantum/rgblight.o
                                                  .build/obj_Dactylv2led_rev2_Default/quantum/quantum.o
rgblight_decrease_val                             .build/obj_Dactylv2led_rev2_Default/quantum/rgblight.o
                                                  .build/obj_Dactylv2led_rev2_Default/quantum/quantum.o
rgblight_disable                                  .build/obj_Dactylv2led_rev2_Default/quantum/rgblight.o
rgblight_effect_breathing                         .build/obj_Dactylv2led_rev2_Default/quantum/rgblight.o
rgblight_effect_christmas                         .build/obj_Dactylv2led_rev2_Default/quantum/rgblight.o
rgblight_effect_knight                            .build/obj_Dactylv2led_rev2_Default/quantum/rgblight.o
rgblight_effect_rainbow_mood                      .build/obj_Dactylv2led_rev2_Default/quantum/rgblight.o
rgblight_effect_rainbow_swirl                     .build/obj_Dactylv2led_rev2_Default/quantum/rgblight.o
rgblight_effect_snake                             .build/obj_Dactylv2led_rev2_Default/quantum/rgblight.o
rgblight_enable                                   .build/obj_Dactylv2led_rev2_Default/quantum/rgblight.o
rgblight_get_hue                                  .build/obj_Dactylv2led_rev2_Default/quantum/rgblight.o
rgblight_get_mode                                 .build/obj_Dactylv2led_rev2_Default/quantum/rgblight.o
                                                  .build/obj_Dactylv2led_rev2_Default/quantum/quantum.o
rgblight_get_sat                                  .build/obj_Dactylv2led_rev2_Default/quantum/rgblight.o
rgblight_get_val                                  .build/obj_Dactylv2led_rev2_Default/quantum/rgblight.o
rgblight_increase                                 .build/obj_Dactylv2led_rev2_Default/quantum/rgblight.o
rgblight_increase_hue                             .build/obj_Dactylv2led_rev2_Default/quantum/rgblight.o
                                                  .build/obj_Dactylv2led_rev2_Default/quantum/quantum.o
rgblight_increase_sat                             .build/obj_Dactylv2led_rev2_Default/quantum/rgblight.o
                                                  .build/obj_Dactylv2led_rev2_Default/quantum/quantum.o
rgblight_increase_speed                           .build/obj_Dactylv2led_rev2_Default/quantum/rgblight.o
                                                  .build/obj_Dactylv2led_rev2_Default/quantum/quantum.o
rgblight_increase_val                             .build/obj_Dactylv2led_rev2_Default/quantum/rgblight.o
                                                  .build/obj_Dactylv2led_rev2_Default/quantum/quantum.o
rgblight_init                                     .build/obj_Dactylv2led_rev2_Default/quantum/rgblight.o
                                                  .build/obj_Dactylv2led_rev2_Default/common/keyboard.o
rgblight_inited                                   .build/obj_Dactylv2led_rev2_Default/quantum/rgblight.o
rgblight_mode                                     .build/obj_Dactylv2led_rev2_Default/quantum/rgblight.o
                                                  .build/obj_Dactylv2led_rev2_Default/quantum/quantum.o
rgblight_set                                      .build/obj_Dactylv2led_rev2_Default/quantum/rgblight.o
rgblight_sethsv                                   .build/obj_Dactylv2led_rev2_Default/quantum/rgblight.o
rgblight_sethsv_at                                .build/obj_Dactylv2led_rev2_Default/quantum/rgblight.o
rgblight_sethsv_noeeprom                          .build/obj_Dactylv2led_rev2_Default/quantum/rgblight.o
rgblight_setrgb                                   .build/obj_Dactylv2led_rev2_Default/quantum/rgblight.o
rgblight_setrgb_at                                .build/obj_Dactylv2led_rev2_Default/quantum/rgblight.o
rgblight_show_solid_color                         .build/obj_Dactylv2led_rev2_Default/quantum/rgblight.o
rgblight_step                                     .build/obj_Dactylv2led_rev2_Default/quantum/rgblight.o
                                                  .build/obj_Dactylv2led_rev2_Default/quantum/quantum.o
rgblight_step_reverse                             .build/obj_Dactylv2led_rev2_Default/quantum/rgblight.o
                                                  .build/obj_Dactylv2led_rev2_Default/quantum/quantum.o
rgblight_task                                     .build/obj_Dactylv2led_rev2_Default/quantum/rgblight.o
                                                  .build/obj_Dactylv2led_rev2_Default/lufa.o
rgblight_timer_disable                            .build/obj_Dactylv2led_rev2_Default/quantum/rgblight.o
rgblight_timer_enable                             .build/obj_Dactylv2led_rev2_Default/quantum/rgblight.o
rgblight_timer_enabled                            .build/obj_Dactylv2led_rev2_Default/quantum/rgblight.o
rgblight_timer_init                               .build/obj_Dactylv2led_rev2_Default/quantum/rgblight.o
rgblight_timer_toggle                             .build/obj_Dactylv2led_rev2_Default/quantum/rgblight.o
rgblight_toggle                                   .build/obj_Dactylv2led_rev2_Default/quantum/rgblight.o
                                                  .build/obj_Dactylv2led_rev2_Default/quantum/quantum.o
rgblight_update_dword                             .build/obj_Dactylv2led_rev2_Default/quantum/rgblight.o
send_byte                                         .build/obj_Dactylv2led_rev2_Default/quantum/quantum.o
send_char                                         .build/obj_Dactylv2led_rev2_Default/quantum/quantum.o
send_dword                                        .build/obj_Dactylv2led_rev2_Default/quantum/quantum.o
send_keyboard_report                              .build/obj_Dactylv2led_rev2_Default/common/action_util.o
                                                  .build/obj_Dactylv2led_rev2_Default/common/action_macro.o
                                                  .build/obj_Dactylv2led_rev2_Default/common/action.o
                                                  .build/obj_Dactylv2led_rev2_Default/quantum/process_keycode/process_tap_dance.o
                                                  .build/obj_Dactylv2led_rev2_Default/quantum/quantum.o
send_nibble                                       .build/obj_Dactylv2led_rev2_Default/quantum/quantum.o
send_string                                       .build/obj_Dactylv2led_rev2_Default/quantum/quantum.o
send_string_P                                     .build/obj_Dactylv2led_rev2_Default/quantum/quantum.o
                                                  .build/obj_Dactylv2led_rev2_Default/keyboards/Dactylv2led/keymaps/Default/keymap.o
send_string_with_delay                            .build/obj_Dactylv2led_rev2_Default/quantum/quantum.o
send_string_with_delay_P                          .build/obj_Dactylv2led_rev2_Default/quantum/quantum.o
send_word                                         .build/obj_Dactylv2led_rev2_Default/quantum/quantum.o
sendchar                                          .build/obj_Dactylv2led_rev2_Default/lufa.o
serial_master_buffer                              .build/obj_Dactylv2led_rev2_Default/serial.o
serial_master_init                                .build/obj_Dactylv2led_rev2_Default/serial.o
                                                  .build/obj_Dactylv2led_rev2_Default/split_util.o
serial_slave_buffer                               .build/obj_Dactylv2led_rev2_Default/serial.o
                                                  .build/obj_Dactylv2led_rev2_Default/matrix.o
serial_slave_init                                 .build/obj_Dactylv2led_rev2_Default/serial.o
                                                  .build/obj_Dactylv2led_rev2_Default/split_util.o
serial_transaction                                .build/obj_Dactylv2led_rev2_Default/matrix.o
serial_update_buffers                             .build/obj_Dactylv2led_rev2_Default/serial.o
                                                  .build/obj_Dactylv2led_rev2_Default/matrix.o
set_macro_mods                                    .build/obj_Dactylv2led_rev2_Default/common/action_util.o
set_mods                                          .build/obj_Dactylv2led_rev2_Default/common/action_util.o
set_oneshot_layer                                 .build/obj_Dactylv2led_rev2_Default/common/action_util.o
                                                  .build/obj_Dactylv2led_rev2_Default/common/action.o
set_oneshot_locked_mods                           .build/obj_Dactylv2led_rev2_Default/common/action_util.o
set_oneshot_mods                                  .build/obj_Dactylv2led_rev2_Default/common/action_util.o
                                                  .build/obj_Dactylv2led_rev2_Default/common/action.o
set_output                                        .build/obj_Dactylv2led_rev2_Default/outputselect.o
                                                  .build/obj_Dactylv2led_rev2_Default/quantum/quantum.o
set_output_user                                   .build/obj_Dactylv2led_rev2_Default/outputselect.o
set_single_persistent_default_layer               .build/obj_Dactylv2led_rev2_Default/quantum/quantum.o
set_weak_mods                                     .build/obj_Dactylv2led_rev2_Default/common/action_util.o
sethsv                                            .build/obj_Dactylv2led_rev2_Default/quantum/rgblight.o
setrgb                                            .build/obj_Dactylv2led_rev2_Default/quantum/rgblight.o
shutdown_user                                     .build/obj_Dactylv2led_rev2_Default/keyboards/Dactylv2led/rev2/rev2.o
sin                                               /usr/lib/gcc/avr/4.8.2/../../../avr/lib/avr5/libm.a(sin.o)
                                                  .build/obj_Dactylv2led_rev2_Default/quantum/rgblight.o
split_keyboard_setup                              .build/obj_Dactylv2led_rev2_Default/split_util.o
startup_user                                      .build/obj_Dactylv2led_rev2_Default/quantum/quantum.o
status                                            .build/obj_Dactylv2led_rev2_Default/serial.o
store_or_get_action                               .build/obj_Dactylv2led_rev2_Default/common/action_layer.o
                                                  .build/obj_Dactylv2led_rev2_Default/common/action.o
suspend_idle                                      .build/obj_Dactylv2led_rev2_Default/common/avr/suspend.o
suspend_power_down                                .build/obj_Dactylv2led_rev2_Default/common/avr/suspend.o
                                                  .build/obj_Dactylv2led_rev2_Default/lufa.o
suspend_wakeup_condition                          .build/obj_Dactylv2led_rev2_Default/common/avr/suspend.o
                                                  .build/obj_Dactylv2led_rev2_Default/lufa.o
suspend_wakeup_init                               .build/obj_Dactylv2led_rev2_Default/common/avr/suspend.o
                                                  .build/obj_Dactylv2led_rev2_Default/lufa.o
tap_dance_actions                                 .build/obj_Dactylv2led_rev2_Default/keyboards/Dactylv2led/keymaps/Default/keymap.o
                                                  .build/obj_Dactylv2led_rev2_Default/quantum/process_keycode/process_tap_dance.o
tap_random_base64                                 .build/obj_Dactylv2led_rev2_Default/quantum/quantum.o
timer_clear                                       .build/obj_Dactylv2led_rev2_Default/common/avr/timer.o
timer_count                                       .build/obj_Dactylv2led_rev2_Default/common/avr/timer.o
                                                  .build/obj_Dactylv2led_rev2_Default/common/avr/suspend.o
timer_elapsed                                     .build/obj_Dactylv2led_rev2_Default/common/avr/timer.o
                                                  .build/obj_Dactylv2led_rev2_Default/common/mousekey.o
                                                  .build/obj_Dactylv2led_rev2_Default/quantum/process_keycode/process_tap_dance.o
                                                  .build/obj_Dactylv2led_rev2_Default/quantum/rgblight.o
                                                  .build/obj_Dactylv2led_rev2_Default/quantum/process_keycode/process_leader.o
                                                  .build/obj_Dactylv2led_rev2_Default/quantum/quantum.o
                                                  .build/obj_Dactylv2led_rev2_Default/matrix.o
timer_elapsed32                                   .build/obj_Dactylv2led_rev2_Default/common/avr/timer.o
timer_init                                        .build/obj_Dactylv2led_rev2_Default/common/avr/timer.o
                                                  .build/obj_Dactylv2led_rev2_Default/common/keyboard.o
                                                  .build/obj_Dactylv2led_rev2_Default/split_util.o
timer_read                                        .build/obj_Dactylv2led_rev2_Default/common/avr/timer.o
                                                  .build/obj_Dactylv2led_rev2_Default/common/mousekey.o
                                                  .build/obj_Dactylv2led_rev2_Default/common/keyboard.o
                                                  .build/obj_Dactylv2led_rev2_Default/quantum/process_keycode/process_tap_dance.o
                                                  .build/obj_Dactylv2led_rev2_Default/quantum/rgblight.o
                                                  .build/obj_Dactylv2led_rev2_Default/quantum/process_keycode/process_leader.o
                                                  .build/obj_Dactylv2led_rev2_Default/quantum/quantum.o
                                                  .build/obj_Dactylv2led_rev2_Default/matrix.o
timer_read32                                      .build/obj_Dactylv2led_rev2_Default/common/avr/timer.o
tp_buttons                                        .build/obj_Dactylv2led_rev2_Default/common/action.o
unregister_code                                   .build/obj_Dactylv2led_rev2_Default/common/action.o
                                                  .build/obj_Dactylv2led_rev2_Default/common/action_macro.o
                                                  .build/obj_Dactylv2led_rev2_Default/quantum/quantum.o
                                                  .build/obj_Dactylv2led_rev2_Default/keyboards/Dactylv2led/keymaps/Default/keymap.o
unregister_code16                                 .build/obj_Dactylv2led_rev2_Default/quantum/quantum.o
                                                  .build/obj_Dactylv2led_rev2_Default/quantum/process_keycode/process_tap_dance.o
unregister_mods                                   .build/obj_Dactylv2led_rev2_Default/common/action.o
                                                  .build/obj_Dactylv2led_rev2_Default/quantum/quantum.o
update_tri_layer                                  .build/obj_Dactylv2led_rev2_Default/quantum/quantum.o
                                                  .build/obj_Dactylv2led_rev2_Default/keyboards/Dactylv2led/keymaps/Default/keymap.o
update_tri_layer_state                            .build/obj_Dactylv2led_rev2_Default/quantum/quantum.o
where_to_send                                     .build/obj_Dactylv2led_rev2_Default/outputselect.o
                                                  .build/obj_Dactylv2led_rev2_Default/lufa.o
ws2812_sendarray                                  .build/obj_Dactylv2led_rev2_Default/ws2812.o
ws2812_sendarray_mask                             .build/obj_Dactylv2led_rev2_Default/ws2812.o
ws2812_setleds                                    .build/obj_Dactylv2led_rev2_Default/ws2812.o
                                                  .build/obj_Dactylv2led_rev2_Default/quantum/rgblight.o
ws2812_setleds_pin                                .build/obj_Dactylv2led_rev2_Default/ws2812.o
ws2812_setleds_rgbw                               .build/obj_Dactylv2led_rev2_Default/ws2812.o
xfunc_out                                         .build/obj_Dactylv2led_rev2_Default/common/avr/xprintf.o
xitoa                                             .build/obj_Dactylv2led_rev2_Default/common/avr/xprintf.o
xputc                                             .build/obj_Dactylv2led_rev2_Default/common/avr/xprintf.o
xputs                                             .build/obj_Dactylv2led_rev2_Default/common/avr/xprintf.o
