   1               		.file	"keymap.c"
   2               	__SP_H__ = 0x3e
   3               	__SP_L__ = 0x3d
   4               	__SREG__ = 0x3f
   5               	__tmp_reg__ = 0
   6               	__zero_reg__ = 1
   7               		.text
   8               	.Ltext0:
   9               		.cfi_sections	.debug_frame
  10               		.section	.text.cmd_commands,"ax",@progbits
  11               	.global	cmd_commands
  13               	cmd_commands:
  14               	.LFB26:
  15               		.file 1 "keyboards/Aaron/Manuform/keymaps/Aaron/keymap.c"
   1:keyboards/Aaron/Manuform/keymaps/Aaron/keymap.c **** #include "Manuform.h"
   2:keyboards/Aaron/Manuform/keymaps/Aaron/keymap.c **** #include "action_layer.h"
   3:keyboards/Aaron/Manuform/keymaps/Aaron/keymap.c **** #include "eeconfig.h"
   4:keyboards/Aaron/Manuform/keymaps/Aaron/keymap.c **** 
   5:keyboards/Aaron/Manuform/keymaps/Aaron/keymap.c **** extern keymap_config_t keymap_config;
   6:keyboards/Aaron/Manuform/keymaps/Aaron/keymap.c **** #define _QWERTY 1
   7:keyboards/Aaron/Manuform/keymaps/Aaron/keymap.c **** #define _COLEMAK 0
   8:keyboards/Aaron/Manuform/keymaps/Aaron/keymap.c **** #define _DVORAK 2
   9:keyboards/Aaron/Manuform/keymaps/Aaron/keymap.c **** #define _LOWER 3
  10:keyboards/Aaron/Manuform/keymaps/Aaron/keymap.c **** #define _RAISE 4
  11:keyboards/Aaron/Manuform/keymaps/Aaron/keymap.c **** #define _FN3 5
  12:keyboards/Aaron/Manuform/keymaps/Aaron/keymap.c **** //#define _FN4 6
  13:keyboards/Aaron/Manuform/keymaps/Aaron/keymap.c **** #define _ADJUST 16
  14:keyboards/Aaron/Manuform/keymaps/Aaron/keymap.c **** enum {
  15:keyboards/Aaron/Manuform/keymaps/Aaron/keymap.c **** 	TD_CPY_PST = 0,
  16:keyboards/Aaron/Manuform/keymaps/Aaron/keymap.c **** 	TD_CMD,
  17:keyboards/Aaron/Manuform/keymaps/Aaron/keymap.c **** 	TD_SLSH,
  18:keyboards/Aaron/Manuform/keymaps/Aaron/keymap.c **** 	TD_VRDSK
  19:keyboards/Aaron/Manuform/keymaps/Aaron/keymap.c **** };
  20:keyboards/Aaron/Manuform/keymaps/Aaron/keymap.c **** enum custom_keycodes {
  21:keyboards/Aaron/Manuform/keymaps/Aaron/keymap.c **** 	COLEMAK = SAFE_RANGE,
  22:keyboards/Aaron/Manuform/keymaps/Aaron/keymap.c **** 	QWERTY,
  23:keyboards/Aaron/Manuform/keymaps/Aaron/keymap.c **** 	DVORAK,
  24:keyboards/Aaron/Manuform/keymaps/Aaron/keymap.c **** 	LOWER,
  25:keyboards/Aaron/Manuform/keymaps/Aaron/keymap.c **** 	RAISE,
  26:keyboards/Aaron/Manuform/keymaps/Aaron/keymap.c **** 	FN3,
  27:keyboards/Aaron/Manuform/keymaps/Aaron/keymap.c **** //	FN4,
  28:keyboards/Aaron/Manuform/keymaps/Aaron/keymap.c **** 	ADJUST,
  29:keyboards/Aaron/Manuform/keymaps/Aaron/keymap.c **** 	dance_cln_finished,
  30:keyboards/Aaron/Manuform/keymaps/Aaron/keymap.c **** };
  31:keyboards/Aaron/Manuform/keymaps/Aaron/keymap.c **** 
  32:keyboards/Aaron/Manuform/keymaps/Aaron/keymap.c **** #define KC_ KC_TRNS
  33:keyboards/Aaron/Manuform/keymaps/Aaron/keymap.c **** #define _______ KC_TRNS
  34:keyboards/Aaron/Manuform/keymaps/Aaron/keymap.c **** #define KC_CAPW LGUI(LSFT(KC_3))        // Capture whole screen
  35:keyboards/Aaron/Manuform/keymaps/Aaron/keymap.c **** #define KC_CPYW LGUI(LSFT(LCTL(KC_3)))  // Copy whole screen
  36:keyboards/Aaron/Manuform/keymaps/Aaron/keymap.c **** #define KC_CAPP LGUI(LSFT(KC_4))       // Capture portion of screen
  37:keyboards/Aaron/Manuform/keymaps/Aaron/keymap.c **** #define KC_CPYP LGUI(LSFT(LCTL(KC_4)))  // Copy portion of screen
  38:keyboards/Aaron/Manuform/keymaps/Aaron/keymap.c **** #define KC_X0 MT(MOD_LCTL, KC_ESC)
  39:keyboards/Aaron/Manuform/keymaps/Aaron/keymap.c **** #define KC_LDWN LOWER				//Numpad
  40:keyboards/Aaron/Manuform/keymaps/Aaron/keymap.c **** #define KC_LUP RAISE
  41:keyboards/Aaron/Manuform/keymaps/Aaron/keymap.c **** #define KC_TOGUP TG(4)
  42:keyboards/Aaron/Manuform/keymaps/Aaron/keymap.c **** #define KC_REST RESET
  43:keyboards/Aaron/Manuform/keymaps/Aaron/keymap.c **** #define KC_X3 LT(_FN3,KC_TAB)		//function layer 4 ie macros when held tab when pressed
  44:keyboards/Aaron/Manuform/keymaps/Aaron/keymap.c **** #define KC_X4 LT(_ADJUST, KC_ENT) //Shift when held enter when pressed
  45:keyboards/Aaron/Manuform/keymaps/Aaron/keymap.c **** #define KC_X5 LT(RAISE, KC_P0)  //Raise to functions when held P0 when pressed
  46:keyboards/Aaron/Manuform/keymaps/Aaron/keymap.c **** #define KC_X6 TD(TD_SLSH)				//slash vs backslash
  47:keyboards/Aaron/Manuform/keymaps/Aaron/keymap.c **** #define KC_X7 TD(TD_CPY_PST)		//single tap is copy double is paste
  48:keyboards/Aaron/Manuform/keymaps/Aaron/keymap.c **** #define KC_X8 TD(TD_CMD)			//single tap is cmd double is ipconfig
  49:keyboards/Aaron/Manuform/keymaps/Aaron/keymap.c **** 
  50:keyboards/Aaron/Manuform/keymaps/Aaron/keymap.c **** 
  51:keyboards/Aaron/Manuform/keymaps/Aaron/keymap.c **** #define KC_X9 RGUI(KC_TAB)	//gui tab to switch desktops
  52:keyboards/Aaron/Manuform/keymaps/Aaron/keymap.c **** #define KC_X10 TD(TD_VRDSK)
  53:keyboards/Aaron/Manuform/keymaps/Aaron/keymap.c **** 
  54:keyboards/Aaron/Manuform/keymaps/Aaron/keymap.c **** 
  55:keyboards/Aaron/Manuform/keymaps/Aaron/keymap.c **** #define KC_XLgn M(1)
  56:keyboards/Aaron/Manuform/keymaps/Aaron/keymap.c **** #define KC_EMAL M(2)
  57:keyboards/Aaron/Manuform/keymaps/Aaron/keymap.c **** #define KC_WWWX M(3)
  58:keyboards/Aaron/Manuform/keymaps/Aaron/keymap.c **** #define KC_NTAB M(4)
  59:keyboards/Aaron/Manuform/keymaps/Aaron/keymap.c **** #define KC_0CA M(6)
  60:keyboards/Aaron/Manuform/keymaps/Aaron/keymap.c **** #define KC_PASS M(10)
  61:keyboards/Aaron/Manuform/keymaps/Aaron/keymap.c **** #define KC_IPCF M(11)
  62:keyboards/Aaron/Manuform/keymaps/Aaron/keymap.c **** #define KC_CMD M(16)
  63:keyboards/Aaron/Manuform/keymaps/Aaron/keymap.c **** #define KC_OP M(12)
  64:keyboards/Aaron/Manuform/keymaps/Aaron/keymap.c **** #define KC_OC M(13)
  65:keyboards/Aaron/Manuform/keymaps/Aaron/keymap.c **** #define KC_OD M(14)
  66:keyboards/Aaron/Manuform/keymaps/Aaron/keymap.c **** #define KC_TCLK M(15)
  67:keyboards/Aaron/Manuform/keymaps/Aaron/keymap.c **** #define KC_ESCT MT(MOD_LCTL, KC_ESC)
  68:keyboards/Aaron/Manuform/keymaps/Aaron/keymap.c **** #define KC_GUIT M(0)
  69:keyboards/Aaron/Manuform/keymaps/Aaron/keymap.c **** 
  70:keyboards/Aaron/Manuform/keymaps/Aaron/keymap.c **** const uint16_t PROGMEM keymaps[][MATRIX_ROWS][MATRIX_COLS] = {
  71:keyboards/Aaron/Manuform/keymaps/Aaron/keymap.c **** /* Keymap 0: Basic layer
  72:keyboards/Aaron/Manuform/keymaps/Aaron/keymap.c ****  *
  73:keyboards/Aaron/Manuform/keymaps/Aaron/keymap.c ****  * ,-------------------------------------------.           ,----------------------------------_----
  74:keyboards/Aaron/Manuform/keymaps/Aaron/keymap.c ****  * |   =    |   1  |   2  |   3  |   4  |   5  |           |   6  |   7  |   8  |   9  |   0  |   -
  75:keyboards/Aaron/Manuform/keymaps/Aaron/keymap.c ****  * |--------+------+------+------+------+------|           |------+------+------+------+------|----
  76:keyboards/Aaron/Manuform/keymaps/Aaron/keymap.c ****  * |Tab\FN3 |   Q  |   W  |   F  |   P  |   G  |           |   J  |   L  |   U  |   Y  |   :  |   \
  77:keyboards/Aaron/Manuform/keymaps/Aaron/keymap.c ****  * |--------+------+------+------+------+----- |           |------+------+------+------+------|----
  78:keyboards/Aaron/Manuform/keymaps/Aaron/keymap.c ****  * | ENT/ADJ|   A  |   R  |   S  |   T  |   D  |           |   H  |   N  |   E  |   I  |   O  | ENT
  79:keyboards/Aaron/Manuform/keymaps/Aaron/keymap.c ****  * |--------+------+------+------+------+------|           |------+------+------+------+------|----
  80:keyboards/Aaron/Manuform/keymaps/Aaron/keymap.c ****  * | LShift |   Z  |   X  |   C  |   V  |   B  |           |   K  |   M  |   ,  |   .  |  /   |RShi
  81:keyboards/Aaron/Manuform/keymaps/Aaron/keymap.c ****  * `--------+------+------+------+------+------'           `-------+------+------+------+------|---
  82:keyboards/Aaron/Manuform/keymaps/Aaron/keymap.c ****  * |CTR     |  ALT | GUI  | Left | Right|      |           |      |      | LEFT | RIGHT|  UP  | DOW
  83:keyboards/Aaron/Manuform/keymaps/Aaron/keymap.c ****  * `--------------------------------------------'           ---------------------------------------
  84:keyboards/Aaron/Manuform/keymaps/Aaron/keymap.c ****  *                 | Left | Right|Backsp| L2   |	   	   |Enter| Space| DEL | SCRN |
  85:keyboards/Aaron/Manuform/keymaps/Aaron/keymap.c ****  *				   -----------------------------		    -----------------------------
  86:keyboards/Aaron/Manuform/keymaps/Aaron/keymap.c ****  *                				 |      |ctrTab|			|     |      |
  87:keyboards/Aaron/Manuform/keymaps/Aaron/keymap.c ****  *				   ------------------------------		    -----------------------------
  88:keyboards/Aaron/Manuform/keymaps/Aaron/keymap.c ****  *								 |PGUP  |PGDWN |			|Home |END|
  89:keyboards/Aaron/Manuform/keymaps/Aaron/keymap.c ****  
  90:keyboards/Aaron/Manuform/keymaps/Aaron/keymap.c ****  222222222
  91:keyboards/Aaron/Manuform/keymaps/Aaron/keymap.c ****  | 4|  2| 3  | 1 |				|  1 | 3  | 2  | 4  |
  92:keyboards/Aaron/Manuform/keymaps/Aaron/keymap.c **** 
  93:keyboards/Aaron/Manuform/keymaps/Aaron/keymap.c ****  |   1 |  2  |					|  2  | 1   |
  94:keyboards/Aaron/Manuform/keymaps/Aaron/keymap.c ****  |  3  |  4  |					|  4  | 3   |
  95:keyboards/Aaron/Manuform/keymaps/Aaron/keymap.c **** 
  96:keyboards/Aaron/Manuform/keymaps/Aaron/keymap.c ****  
  97:keyboards/Aaron/Manuform/keymaps/Aaron/keymap.c ****  
  98:keyboards/Aaron/Manuform/keymaps/Aaron/keymap.c ****  
  99:keyboards/Aaron/Manuform/keymaps/Aaron/keymap.c ****  2a
 100:keyboards/Aaron/Manuform/keymaps/Aaron/keymap.c **** 		6	5		4	 
 101:keyboards/Aaron/Manuform/keymaps/Aaron/keymap.c **** 		3		2			2		 3		4		5		6
 102:keyboards/Aaron/Manuform/keymaps/Aaron/keymap.c ****  *                                 ,-------------.       ,-------------.
 103:keyboards/Aaron/Manuform/keymaps/Aaron/keymap.c ****  *                                 |   6  |   5  |       | 5    |  6     |
 104:keyboards/Aaron/Manuform/keymaps/Aaron/keymap.c ****  *                          ,------|------|------|       |------+--------+------.
 105:keyboards/Aaron/Manuform/keymaps/Aaron/keymap.c ****  *                          |      |      |   4  |       | 4    |        |      |
 106:keyboards/Aaron/Manuform/keymaps/Aaron/keymap.c ****  *                          |Backsp|GUI   |------|       |------|    1   |    2 |
 107:keyboards/Aaron/Manuform/keymaps/Aaron/keymap.c ****  *                          |  acs |TAB   |   3  |       | 3    |        |      |
 108:keyboards/Aaron/Manuform/keymaps/Aaron/keymap.c ****  *32233222`--------------------'       `----------------------'
 109:keyboards/Aaron/Manuform/keymaps/Aaron/keymap.c ****  */
 110:keyboards/Aaron/Manuform/keymaps/Aaron/keymap.c **** 	
 111:keyboards/Aaron/Manuform/keymaps/Aaron/keymap.c **** 			[_COLEMAK] = KC_KEYMAP(
 112:keyboards/Aaron/Manuform/keymaps/Aaron/keymap.c **** 	//,----+----+----+----+----+----.    ,----+----+----+----+----+----.
 113:keyboards/Aaron/Manuform/keymaps/Aaron/keymap.c **** 		EQL, 1  , 2  , 3  , 4  , 5  ,      6  , 7  , 8  , 9 , 0   ,MINS,
 114:keyboards/Aaron/Manuform/keymaps/Aaron/keymap.c **** 	//,----+----+----+----+----+----.    ,----+----+----+----+----+----.
 115:keyboards/Aaron/Manuform/keymaps/Aaron/keymap.c **** 		X3 , Q  , W  , F  , P  , G  ,      J  , L  , U  , Y  ,SCLN,BSLS,
 116:keyboards/Aaron/Manuform/keymaps/Aaron/keymap.c **** 	//|----+----+----+----+----+----|    |----+----+----+----+----+----|
 117:keyboards/Aaron/Manuform/keymaps/Aaron/keymap.c **** 		X4 , A  , R  , S  , T  , D  ,      H  , N  , E  , I  , O  ,ENT,
 118:keyboards/Aaron/Manuform/keymaps/Aaron/keymap.c **** 	//|----+----+----+----+----+----|    |----+----+----+----+----+----|
 119:keyboards/Aaron/Manuform/keymaps/Aaron/keymap.c **** 		LSFT, Z  , X  , C  , V  , B  ,     K  , M  ,COMM,DOT ,SLSH,GRV,
 120:keyboards/Aaron/Manuform/keymaps/Aaron/keymap.c **** 	//|----+----+----+----+----+----|    |----+----+----+----+----+----|
 121:keyboards/Aaron/Manuform/keymaps/Aaron/keymap.c **** 		ESCT,LALT,LGUI,   1,  1 ,GRV,     DEL ,   ,LEFT,RIGHT,   ,QUOT,
 122:keyboards/Aaron/Manuform/keymaps/Aaron/keymap.c **** 	//`----+----+----+----+----+----'    `----+----+----+----+----+----'
 123:keyboards/Aaron/Manuform/keymaps/Aaron/keymap.c **** 		   ,    ,LEFT,RIGHT,BSPC,LDWN,    ENT ,SPC ,UP ,DOWN,    ,    ,
 124:keyboards/Aaron/Manuform/keymaps/Aaron/keymap.c **** 	//`----+----+----+----+----+----'    `----+----+----+----+----+----'
 125:keyboards/Aaron/Manuform/keymaps/Aaron/keymap.c **** 	       ,     ,HOME,END, GUIT, PSCR,    DEL , LUP, PGUP , PGDN ,     , 
 126:keyboards/Aaron/Manuform/keymaps/Aaron/keymap.c **** 	),
 127:keyboards/Aaron/Manuform/keymaps/Aaron/keymap.c **** 	
 128:keyboards/Aaron/Manuform/keymaps/Aaron/keymap.c **** 		[_QWERTY] = KC_KEYMAP(
 129:keyboards/Aaron/Manuform/keymaps/Aaron/keymap.c **** 	//,----+----+----+----+----+----.    ,----+----+----+----+----+----.
 130:keyboards/Aaron/Manuform/keymaps/Aaron/keymap.c **** 		EQL, 1  , 2  , 3  , 4  , 5  ,      6  , 7  , 8  , 9 , 0  ,MINS,
 131:keyboards/Aaron/Manuform/keymaps/Aaron/keymap.c **** 	//,----+----+----+----+----+----.    ,----+----+----+----+----+----.
 132:keyboards/Aaron/Manuform/keymaps/Aaron/keymap.c **** 		X3 , Q  , W  , E  , R  , T  ,      Y  , U  , I  , O , P  ,BSLS,
 133:keyboards/Aaron/Manuform/keymaps/Aaron/keymap.c **** 	//|----+----+----+----+----+----|    |----+----+----+----+----+----|
 134:keyboards/Aaron/Manuform/keymaps/Aaron/keymap.c **** 		X4 , A  , S  , D  , F  , G  ,      H  , J  , K  , L  ,SCLN,ENT,
 135:keyboards/Aaron/Manuform/keymaps/Aaron/keymap.c **** 	//|----+----+----+----+----+----|    |----+----+----+----+----+----|
 136:keyboards/Aaron/Manuform/keymaps/Aaron/keymap.c **** 		LSFT , Z  , X  , C  , V  , B  ,      N  , M  ,COMM,DOT,SLSH,GRV,
 137:keyboards/Aaron/Manuform/keymaps/Aaron/keymap.c **** 	//|----+----+----+----+----+----|    |----+----+----+----+----+----|
 138:keyboards/Aaron/Manuform/keymaps/Aaron/keymap.c **** 		ESCT,LALT,LGUI,LEFT,RIGHT,BSPC,    SPC,LEFT,RIGHT,UP ,DOWN,QUOT,
 139:keyboards/Aaron/Manuform/keymaps/Aaron/keymap.c **** 	//`----+----+----+----+----+----'    `----+----+----+----+----+----'
 140:keyboards/Aaron/Manuform/keymaps/Aaron/keymap.c **** 		   ,HOME,ESC ,PSCR,GUIT,LDWN,	   ENT,LUP ,DEL ,HOME,END,     ,
 141:keyboards/Aaron/Manuform/keymaps/Aaron/keymap.c **** 	//`----+----+----+----+----+----'    `----+----+----+----+----+----'
 142:keyboards/Aaron/Manuform/keymaps/Aaron/keymap.c **** 		X3  , 1  , 2  , 3  , 4  , 5  ,      2  , 2  , 2  , 2 , 2  ,MINS
 143:keyboards/Aaron/Manuform/keymaps/Aaron/keymap.c **** 	),
 144:keyboards/Aaron/Manuform/keymaps/Aaron/keymap.c **** 
 145:keyboards/Aaron/Manuform/keymaps/Aaron/keymap.c **** 	[_DVORAK] = KC_KEYMAP(
 146:keyboards/Aaron/Manuform/keymaps/Aaron/keymap.c **** 	//,----+----+----+----+----+----.    ,----+----+----+----+----+----.
 147:keyboards/Aaron/Manuform/keymaps/Aaron/keymap.c **** 		EQL, 1  , 2  , 3  , 4  , 5  ,      6  , 7  , 8  , 9 , 0  ,MINS,
 148:keyboards/Aaron/Manuform/keymaps/Aaron/keymap.c **** 	//,----+----+----+----+----+----.    ,----+----+----+----+----+----.
 149:keyboards/Aaron/Manuform/keymaps/Aaron/keymap.c **** 		TAB ,QUOT,COMM,DOT , P  , Y  ,      F  , G  , C  , R  , L  ,MINS,
 150:keyboards/Aaron/Manuform/keymaps/Aaron/keymap.c **** 	//|----+----+----+----+----+----|    |----+----+----+----+----+----|
 151:keyboards/Aaron/Manuform/keymaps/Aaron/keymap.c **** 		X0 , A  , O  , E  , U  , I  ,      D  , H  , T  , N  , S  ,SLSH,
 152:keyboards/Aaron/Manuform/keymaps/Aaron/keymap.c **** 	//|----+----+----+----+----+----|    |----+----+----+----+----+----|
 153:keyboards/Aaron/Manuform/keymaps/Aaron/keymap.c **** 		LSFT,SCLN, Q  , J  , K  , X  ,      B  , M  , W  , V  , Z  , X4 ,
 154:keyboards/Aaron/Manuform/keymaps/Aaron/keymap.c **** 	//|----+----+----+----+----+----|    |----+----+----+----+----+----|
 155:keyboards/Aaron/Manuform/keymaps/Aaron/keymap.c **** 		X3 ,LCTL,LALT,LGUI, LDWN ,SPC ,     BSPC, UP ,LEFT,DOWN, UP ,RGHT,
 156:keyboards/Aaron/Manuform/keymaps/Aaron/keymap.c **** 	//`----+----+----+----+----+----'    `----+----+----+----+----+----'
 157:keyboards/Aaron/Manuform/keymaps/Aaron/keymap.c **** 		X3  , 1  , 2  , 3  , 4  , 5  ,      2  , 2  , 2  , 2 , 2  ,MINS,
 158:keyboards/Aaron/Manuform/keymaps/Aaron/keymap.c **** 	//`----+----+----+----+----+----'    `----+----+----+----+----+----'
 159:keyboards/Aaron/Manuform/keymaps/Aaron/keymap.c **** 		X3  , 1  , 2  , 3  , 4  , 5  ,      2  , 2  , 2  , 2 , 2  ,MINS
 160:keyboards/Aaron/Manuform/keymaps/Aaron/keymap.c **** 	),
 161:keyboards/Aaron/Manuform/keymaps/Aaron/keymap.c **** /*
 162:keyboards/Aaron/Manuform/keymaps/Aaron/keymap.c **** 	[_LOWER] = KC_KEYMAP(
 163:keyboards/Aaron/Manuform/keymaps/Aaron/keymap.c **** 	//,----+----+----+----+----+----.    ,----+----+----+----+----+----.
 164:keyboards/Aaron/Manuform/keymaps/Aaron/keymap.c **** 		ESC , 1  , 2 , 3  , 4  , 5  ,      6  , 7  , 8  , 9  , 0  , EQL ,
 165:keyboards/Aaron/Manuform/keymaps/Aaron/keymap.c **** 	//|----+----+----+----+----+----|    |----+----+----+----+----+----|
 166:keyboards/Aaron/Manuform/keymaps/Aaron/keymap.c **** 		DEL ,CAPP,LEFT,RGHT, UP ,LBRC,     RBRC, P4 , P5 , P6 ,PLUS,PIPE,
 167:keyboards/Aaron/Manuform/keymaps/Aaron/keymap.c **** 	//|----+----+----+----+----+----|    |----+----+----+----+----+----|
 168:keyboards/Aaron/Manuform/keymaps/Aaron/keymap.c **** 			,CPYP, UP ,    ,DOWN,LCBR,     RCBR, P1 , P2 , P3 ,MINS,    ,
 169:keyboards/Aaron/Manuform/keymaps/Aaron/keymap.c **** 	//|----+----+----+----+----+----|    |----+----+----+----+----+----|
 170:keyboards/Aaron/Manuform/keymaps/Aaron/keymap.c **** 			,LEFT,DOWN,RIGHT,    ,    ,     DEL ,   , P0 ,PDOT,    ,  NLCK, 
 171:keyboards/Aaron/Manuform/keymaps/Aaron/keymap.c **** 	//`----+----+----+----+----+----'    `----+----+----+----+----+----'
 172:keyboards/Aaron/Manuform/keymaps/Aaron/keymap.c **** 		X0 ,LALT,LGUI, X10, LDWN ,BSPC,     SPC, UP ,QUOT,LEFT, DOWN ,RGHT,
 173:keyboards/Aaron/Manuform/keymaps/Aaron/keymap.c **** 	//`----+----+----+----+----+----'    `----+----+----+----+----+----'
 174:keyboards/Aaron/Manuform/keymaps/Aaron/keymap.c **** 		X3  , 1  ,REST, 3  ,    , 5  ,      6  ,    , 8  , 9 , 0  ,MINS
 175:keyboards/Aaron/Manuform/keymaps/Aaron/keymap.c **** 	//`----+----+----+----+----+----'    `----+----+----+----+----+----'
 176:keyboards/Aaron/Manuform/keymaps/Aaron/keymap.c **** 	),
 177:keyboards/Aaron/Manuform/keymaps/Aaron/keymap.c **** 
 178:keyboards/Aaron/Manuform/keymaps/Aaron/keymap.c **** 	[_RAISE] = KC_KEYMAP(
 179:keyboards/Aaron/Manuform/keymaps/Aaron/keymap.c **** 	//,----+----+----+----+----+----.    ,----+----+----+----+----+----.
 180:keyboards/Aaron/Manuform/keymaps/Aaron/keymap.c **** 		ESC ,EXLM, AT ,HASH,DLR ,PERC,     CIRC,AMPR,ASTR,LPRN,RPRN,    ,
 181:keyboards/Aaron/Manuform/keymaps/Aaron/keymap.c **** 	//|----+----+----+----+----+----|    |----+----+----+----+----+----|
 182:keyboards/Aaron/Manuform/keymaps/Aaron/keymap.c **** 		DEL ,MPRV,MNXT,VOLU,PGUP,UNDS,     EQL ,HOME,    ,    ,    ,BSLS,
 183:keyboards/Aaron/Manuform/keymaps/Aaron/keymap.c **** 	//|----+----+----+----+----+----|    |----+----+----+----+----+----|88
 184:keyboards/Aaron/Manuform/keymaps/Aaron/keymap.c **** 		LSFT,MSTP,MPLY,VOLD,PGDN,MINS,     PLUS,END,COMM ,    ,UP ,    ,
 185:keyboards/Aaron/Manuform/keymaps/Aaron/keymap.c **** 	//|----+----+----+----+----+----|    |----+----+----+----+----+----|
 186:keyboards/Aaron/Manuform/keymaps/Aaron/keymap.c **** 		,    ,    , X3 ,    ,    ,         ,    ,    ,LEFT,DOWN,RIGHT,    
 187:keyboards/Aaron/Manuform/keymaps/Aaron/keymap.c **** 	//`----+----+----+----+----+----'    `----+----+----+----+----+----'
 188:keyboards/Aaron/Manuform/keymaps/Aaron/keymap.c **** 		X0 ,LALT,LGUI, X10, LDWN ,BSPC,     SPC, UP ,QUOT,LEFT, DOWN ,RGHT,
 189:keyboards/Aaron/Manuform/keymaps/Aaron/keymap.c **** 	//`----+----+----+----+----+----'    `----+----+----+----+----+----'
 190:keyboards/Aaron/Manuform/keymaps/Aaron/keymap.c **** 		X3  , 1  , 2  , 3  ,   , 5  ,      6  ,   , 8  ,REST, 0  ,MINS
 191:keyboards/Aaron/Manuform/keymaps/Aaron/keymap.c **** 	//`----+----+----+----+----+----'    `----+----+----+----+----+----'
 192:keyboards/Aaron/Manuform/keymaps/Aaron/keymap.c **** 	),*/
 193:keyboards/Aaron/Manuform/keymaps/Aaron/keymap.c **** 	
 194:keyboards/Aaron/Manuform/keymaps/Aaron/keymap.c **** 	[_LOWER] = KC_KEYMAP(
 195:keyboards/Aaron/Manuform/keymaps/Aaron/keymap.c **** 	//,----+----+----+----+----+----.    ,----+----+----+----+----+----.
 196:keyboards/Aaron/Manuform/keymaps/Aaron/keymap.c **** 		GRV, OP ,OC  , OD ,    ,    ,         ,    ,    ,LBRC,RBRC,  ,
 197:keyboards/Aaron/Manuform/keymaps/Aaron/keymap.c **** 	//|----+----+----+----+----+----|    |----+----+----+----+----+----|
 198:keyboards/Aaron/Manuform/keymaps/Aaron/keymap.c **** 		  ,     ,WWWX,EMAL,    ,TCLK,         ,    ,    ,CMD ,PASS,   ,
 199:keyboards/Aaron/Manuform/keymaps/Aaron/keymap.c **** 	//|----+----+----+----+----+----|    |----+----+----+----+----+----|
 200:keyboards/Aaron/Manuform/keymaps/Aaron/keymap.c **** 		   ,0CA ,     ,   ,    ,    ,         ,    , UP ,IPCF,     ,   ,
 201:keyboards/Aaron/Manuform/keymaps/Aaron/keymap.c **** 	//|----+----+----+----+----+----|    |----+----+----+----+----+----|
 202:keyboards/Aaron/Manuform/keymaps/Aaron/keymap.c **** 		  ,    ,XLgn,     ,    ,    ,         ,LEFT,DOWN,RIGHT,    ,   ,
 203:keyboards/Aaron/Manuform/keymaps/Aaron/keymap.c **** 	//|----+----+----+----+----+----|    |----+----+----+----+----+----|
 204:keyboards/Aaron/Manuform/keymaps/Aaron/keymap.c **** 		REST,    ,    ,    ,    , REST  ,         ,    ,    ,    ,    ,REST,
 205:keyboards/Aaron/Manuform/keymaps/Aaron/keymap.c **** 	//|----+----+----+----+----+----|    |----+----+----+----+----+----|
 206:keyboards/Aaron/Manuform/keymaps/Aaron/keymap.c **** 		REST,  ,    ,    ,    ,LDWN,	   LUP ,LUP ,    ,     ,   , ,
 207:keyboards/Aaron/Manuform/keymaps/Aaron/keymap.c **** 	//`----+----+----+----+----+----'    `----+----+----+----+----+----'
 208:keyboards/Aaron/Manuform/keymaps/Aaron/keymap.c **** 		X3  ,   ,   ,    ,    ,    ,          ,    ,    ,    ,    ,MINS
 209:keyboards/Aaron/Manuform/keymaps/Aaron/keymap.c **** 	),
 210:keyboards/Aaron/Manuform/keymaps/Aaron/keymap.c **** 
 211:keyboards/Aaron/Manuform/keymaps/Aaron/keymap.c **** 	
 212:keyboards/Aaron/Manuform/keymaps/Aaron/keymap.c **** 	[_RAISE] = KC_KEYMAP(
 213:keyboards/Aaron/Manuform/keymaps/Aaron/keymap.c **** 	//,----+----+----+----+----+----.    ,----+----+----+----+----+----.
 214:keyboards/Aaron/Manuform/keymaps/Aaron/keymap.c **** 		GRV, 1  , 2  , 3  , 4  , 5  ,      6  , 7  , 8  , 9, 0   ,MINS,
 215:keyboards/Aaron/Manuform/keymaps/Aaron/keymap.c **** 	//|----+----+----+----+----+----|    |----+----+----+----+----+----|
 216:keyboards/Aaron/Manuform/keymaps/Aaron/keymap.c **** 		8 , 1  , WWWX, 1  , 1  , 1  ,      NO , 4  , 5  , 6  ,PMNS, NO   , 
 217:keyboards/Aaron/Manuform/keymaps/Aaron/keymap.c **** 	//|----+----+----+----+----+----|    |----+----+----+----+----+----|
 218:keyboards/Aaron/Manuform/keymaps/Aaron/keymap.c **** 		8 , 1  , 1  , 1  , 1  , 1  ,       NO , 1   , 2  ,  3 ,PPLS, NO   ,
 219:keyboards/Aaron/Manuform/keymaps/Aaron/keymap.c **** 	//|----+----+----+----+----+----|    |----+----+----+----+----+----|
 220:keyboards/Aaron/Manuform/keymaps/Aaron/keymap.c **** 		8 , 1  ,1, 1  , 1  , 1  ,          NO , 0  , 0  , DOT , NO, NO,
 221:keyboards/Aaron/Manuform/keymaps/Aaron/keymap.c **** 	//|----+----+----+----+----+----|    |----+----+----+----+----+----|
 222:keyboards/Aaron/Manuform/keymaps/Aaron/keymap.c **** 		REST, 1  , 1  , 1  , 1  ,   ,      REST ,PSLS, PAST, NO , NO  ,REST,
 223:keyboards/Aaron/Manuform/keymaps/Aaron/keymap.c **** 	//|----+----+----+----+----+----|    |----+----+----+----+----+----|
 224:keyboards/Aaron/Manuform/keymaps/Aaron/keymap.c **** 			,   ,    ,    ,    ,LDWN,	   LUP,LUP ,DEL ,    ,    ,    ,
 225:keyboards/Aaron/Manuform/keymaps/Aaron/keymap.c **** 	//`----+----+----+----+----+----'    `----+----+----+----+----+----'
 226:keyboards/Aaron/Manuform/keymaps/Aaron/keymap.c **** 		X3  ,   ,   ,    ,    ,    ,          ,    ,    ,    ,    ,MINS
 227:keyboards/Aaron/Manuform/keymaps/Aaron/keymap.c **** 	),
 228:keyboards/Aaron/Manuform/keymaps/Aaron/keymap.c **** 	
 229:keyboards/Aaron/Manuform/keymaps/Aaron/keymap.c **** 	
 230:keyboards/Aaron/Manuform/keymaps/Aaron/keymap.c **** 	[_FN3] = KC_KEYMAP(
 231:keyboards/Aaron/Manuform/keymaps/Aaron/keymap.c **** 	//,----+----+----+----+----+----.    ,----+----+----+----+----+----.
 232:keyboards/Aaron/Manuform/keymaps/Aaron/keymap.c **** 		F12 , F1 , F2 , F3 , F4 , F5 ,      F6 , F7 , F8 , F9 ,F10 ,F11 ,
 233:keyboards/Aaron/Manuform/keymaps/Aaron/keymap.c **** 	//|----+----+----+----+----+----|    |----+----+----+----+----+----|
 234:keyboards/Aaron/Manuform/keymaps/Aaron/keymap.c **** 			, 3 , 3,  3, 3  , 3  ,         ,    ,    ,    ,    ,    ,
 235:keyboards/Aaron/Manuform/keymaps/Aaron/keymap.c **** 	//|----+----+----+----+----+----|    |----+----+----+----+----+----|
 236:keyboards/Aaron/Manuform/keymaps/Aaron/keymap.c **** 			,    ,UP,    ,    ,    ,         ,    ,    ,    , UP ,    ,
 237:keyboards/Aaron/Manuform/keymaps/Aaron/keymap.c **** 	//|----+----+----+----+----+----|    |----+----+----+----+----+----|
 238:keyboards/Aaron/Manuform/keymaps/Aaron/keymap.c **** 			,LEFT,DOWN,RIGHT,    ,    ,          ,    ,    ,LEFT,DOWN,RIGHT,  
 239:keyboards/Aaron/Manuform/keymaps/Aaron/keymap.c **** 	//`----+----+----+----+----+----'    `----+----+----+----+----+----'
 240:keyboards/Aaron/Manuform/keymaps/Aaron/keymap.c **** 		X0 ,LALT,LGUI, X10, LDWN ,BSPC,     SPC, UP ,QUOT,LEFT, DOWN ,RGHT,
 241:keyboards/Aaron/Manuform/keymaps/Aaron/keymap.c **** 	//`----+----+----+----+----+----'    `----+----+----+----+----+----'
 242:keyboards/Aaron/Manuform/keymaps/Aaron/keymap.c **** 		X3  , 1  , 2  , 3  , 4  , 5  ,      6  , 7  , 8  , 9 , 0  ,MINS,
 243:keyboards/Aaron/Manuform/keymaps/Aaron/keymap.c **** 	//`----+----+----+----+----+----'    `----+----+----+----+----+----'
 244:keyboards/Aaron/Manuform/keymaps/Aaron/keymap.c **** 		X3  , 1  , 2  , 3  , 4  , 5  ,      2  , 2  , 2  , 2 , 2  ,MINS
 245:keyboards/Aaron/Manuform/keymaps/Aaron/keymap.c **** 	),
 246:keyboards/Aaron/Manuform/keymaps/Aaron/keymap.c **** /*
 247:keyboards/Aaron/Manuform/keymaps/Aaron/keymap.c **** 	[_FN4] = KEYMAP( \
 248:keyboards/Aaron/Manuform/keymaps/Aaron/keymap.c **** 	_______, _______, M(3)   , M(2)     , _______,  M(4)  ,		 _______, _______, _______, _______, ____
 249:keyboards/Aaron/Manuform/keymaps/Aaron/keymap.c **** 	_______, M(6)   , _______, _______  , _______, _______,		 _______, _______, _______, _______, ____
 250:keyboards/Aaron/Manuform/keymaps/Aaron/keymap.c **** 	_______, _______, M(1)   ,TD(TD_CMD), _______, _______,		 _______, _______, _______, _______, KC_U
 251:keyboards/Aaron/Manuform/keymaps/Aaron/keymap.c **** 	M(7)   , M(8)   , M(9)   , _______  , _______, _______,		 _______, _______, _______, KC_LEFT, KC_D
 252:keyboards/Aaron/Manuform/keymaps/Aaron/keymap.c **** 	_______, _______, _______, _______  , _______, _______,		 _______, _______, _______, _______, ____
 253:keyboards/Aaron/Manuform/keymaps/Aaron/keymap.c **** 	_______, _______ , _______, _______  , _______, _______,	 _______, _______, _______, _______, ____
 254:keyboards/Aaron/Manuform/keymaps/Aaron/keymap.c **** 	),*/
 255:keyboards/Aaron/Manuform/keymaps/Aaron/keymap.c **** 
 256:keyboards/Aaron/Manuform/keymaps/Aaron/keymap.c **** 	/* Adjust (Lower + Raise)
 257:keyboards/Aaron/Manuform/keymaps/Aaron/keymap.c **** * ,-----------------------------------------------------------------------------------.
 258:keyboards/Aaron/Manuform/keymaps/Aaron/keymap.c **** * |      | Reset|RGB Tg|RGB Md|Hue Up|Hue Dn|Sat Up|Sat Dn|Val Up|Val Dn| RESET|      |
 259:keyboards/Aaron/Manuform/keymaps/Aaron/keymap.c **** * |------+------+------+------+------+-------------+------+------+------+------+------|
 260:keyboards/Aaron/Manuform/keymaps/Aaron/keymap.c **** * |      |      |      |Aud on|Audoff|AGnorm|AGswap|Qwerty|Colemk|Dvorak|      |      |
 261:keyboards/Aaron/Manuform/keymaps/Aaron/keymap.c **** * |------+------+------+------+------+------|------+------+------+------+------+------|
 262:keyboards/Aaron/Manuform/keymaps/Aaron/keymap.c **** * |      |      |      |      |      |      |      |      |      |      |      |      |
 263:keyboards/Aaron/Manuform/keymaps/Aaron/keymap.c **** * |------+------+------+------+------+------+------+------+------+------+------+------|
 264:keyboards/Aaron/Manuform/keymaps/Aaron/keymap.c **** * |      |      |      |      |      |             |      |      |      |      |      |
 265:keyboards/Aaron/Manuform/keymaps/Aaron/keymap.c **** * `-----------------------------------------------------------------------------------'
 266:keyboards/Aaron/Manuform/keymaps/Aaron/keymap.c **** */
 267:keyboards/Aaron/Manuform/keymaps/Aaron/keymap.c **** 	[_ADJUST] = KEYMAP( \
 268:keyboards/Aaron/Manuform/keymaps/Aaron/keymap.c **** 	_______, COLEMAK, QWERTY, RGB_MOD, RGB_HUD, RGB_HUI, RGB_SAD, RGB_SAI, RGB_VAD, RGB_VAI, RESET  , 
 269:keyboards/Aaron/Manuform/keymaps/Aaron/keymap.c **** 	_______, QWERTY, _______, AU_ON,   AU_OFF,  AG_NORM, AG_SWAP, QWERTY,  COLEMAK, DVORAK,  DEBUG, __
 270:keyboards/Aaron/Manuform/keymaps/Aaron/keymap.c **** 	_______, KC_1   , KC_1   , _______, _______, _______, _______, _______, _______, _______, _______,
 271:keyboards/Aaron/Manuform/keymaps/Aaron/keymap.c **** 	_______, _______, _______, COLEMAK, _______, _______, _______, _______, _______, _______, _______,
 272:keyboards/Aaron/Manuform/keymaps/Aaron/keymap.c **** 	_______, _______, _______, _______, _______, _______, _______, _______, _______, _______, _______,
 273:keyboards/Aaron/Manuform/keymaps/Aaron/keymap.c **** 	_______, _______, _______, _______, _______, _______, _______, _______, _______, _______, _______,
 274:keyboards/Aaron/Manuform/keymaps/Aaron/keymap.c **** 	_______, _______, _______, _______, _______, _______, _______, _______, _______, _______, _______,
 275:keyboards/Aaron/Manuform/keymaps/Aaron/keymap.c **** 	)
 276:keyboards/Aaron/Manuform/keymaps/Aaron/keymap.c **** 
 277:keyboards/Aaron/Manuform/keymaps/Aaron/keymap.c **** 
 278:keyboards/Aaron/Manuform/keymaps/Aaron/keymap.c **** };
 279:keyboards/Aaron/Manuform/keymaps/Aaron/keymap.c **** 
 280:keyboards/Aaron/Manuform/keymaps/Aaron/keymap.c **** #ifdef AUDIO_ENABLE
 281:keyboards/Aaron/Manuform/keymaps/Aaron/keymap.c **** float tone_qwerty[][2]     = SONG(QWERTY_SOUND);
 282:keyboards/Aaron/Manuform/keymaps/Aaron/keymap.c **** float tone_dvorak[][2]     = SONG(DVORAK_SOUND);
 283:keyboards/Aaron/Manuform/keymaps/Aaron/keymap.c **** float tone_colemak[][2]    = SONG(COLEMAK_SOUND);
 284:keyboards/Aaron/Manuform/keymaps/Aaron/keymap.c **** #endif
 285:keyboards/Aaron/Manuform/keymaps/Aaron/keymap.c **** 
 286:keyboards/Aaron/Manuform/keymaps/Aaron/keymap.c **** void persistent_default_layer_set(uint16_t default_layer) {
 287:keyboards/Aaron/Manuform/keymaps/Aaron/keymap.c **** 	eeconfig_update_default_layer(default_layer);
 288:keyboards/Aaron/Manuform/keymaps/Aaron/keymap.c **** 	default_layer_set(default_layer);
 289:keyboards/Aaron/Manuform/keymaps/Aaron/keymap.c **** }
 290:keyboards/Aaron/Manuform/keymaps/Aaron/keymap.c **** 
 291:keyboards/Aaron/Manuform/keymaps/Aaron/keymap.c **** /*
 292:keyboards/Aaron/Manuform/keymaps/Aaron/keymap.c **** void dance_cln_finished(void){
 293:keyboards/Aaron/Manuform/keymaps/Aaron/keymap.c **** register_code (KC_LGUI);
 294:keyboards/Aaron/Manuform/keymaps/Aaron/keymap.c **** register_code(KC_TAB);
 295:keyboards/Aaron/Manuform/keymaps/Aaron/keymap.c **** unregister_code(KC_TAB);
 296:keyboards/Aaron/Manuform/keymaps/Aaron/keymap.c **** unregister_code(KC_LGUI); 
 297:keyboards/Aaron/Manuform/keymaps/Aaron/keymap.c **** }*/
 298:keyboards/Aaron/Manuform/keymaps/Aaron/keymap.c **** 
 299:keyboards/Aaron/Manuform/keymaps/Aaron/keymap.c **** const macro_t *action_get_macro(keyrecord_t *record, uint8_t id, uint8_t opt) {
 300:keyboards/Aaron/Manuform/keymaps/Aaron/keymap.c **** 	
 301:keyboards/Aaron/Manuform/keymaps/Aaron/keymap.c **** 	switch (id) {
 302:keyboards/Aaron/Manuform/keymaps/Aaron/keymap.c **** 	case 0:
 303:keyboards/Aaron/Manuform/keymaps/Aaron/keymap.c **** 		if (record->event.pressed) {
 304:keyboards/Aaron/Manuform/keymaps/Aaron/keymap.c **** 			return MACRO(D(LGUI), T(TAB), U(LGUI), END);
 305:keyboards/Aaron/Manuform/keymaps/Aaron/keymap.c **** 		}
 306:keyboards/Aaron/Manuform/keymaps/Aaron/keymap.c **** 	case 1:
 307:keyboards/Aaron/Manuform/keymaps/Aaron/keymap.c **** 		if (record->event.pressed) {
 308:keyboards/Aaron/Manuform/keymaps/Aaron/keymap.c **** 			SEND_STRING("admin"SS_TAP(X_TAB)"1111"SS_TAP(X_ENTER));
 309:keyboards/Aaron/Manuform/keymaps/Aaron/keymap.c **** 		return false;	break;
 310:keyboards/Aaron/Manuform/keymaps/Aaron/keymap.c **** 		//	return MACRO(I(10), T(A), T(D), T(M), T(I), T(N), T(TAB), T(1), T(1),T(1), T(1), T(ENTER), END
 311:keyboards/Aaron/Manuform/keymaps/Aaron/keymap.c **** 		}
 312:keyboards/Aaron/Manuform/keymaps/Aaron/keymap.c **** 	case 2:
 313:keyboards/Aaron/Manuform/keymaps/Aaron/keymap.c **** 		if (record->event.pressed) {
 314:keyboards/Aaron/Manuform/keymaps/Aaron/keymap.c **** 			SEND_STRING("apaez@gotocos.com");
 315:keyboards/Aaron/Manuform/keymaps/Aaron/keymap.c **** 			return false;	break;
 316:keyboards/Aaron/Manuform/keymaps/Aaron/keymap.c **** 		}
 317:keyboards/Aaron/Manuform/keymaps/Aaron/keymap.c **** 	case 3:
 318:keyboards/Aaron/Manuform/keymaps/Aaron/keymap.c **** 		if (record->event.pressed) {
 319:keyboards/Aaron/Manuform/keymaps/Aaron/keymap.c **** 			SEND_STRING("www.support.xerox.com"SS_TAP(X_ENTER));
 320:keyboards/Aaron/Manuform/keymaps/Aaron/keymap.c **** 						return false;	break;
 321:keyboards/Aaron/Manuform/keymaps/Aaron/keymap.c **** 		}
 322:keyboards/Aaron/Manuform/keymaps/Aaron/keymap.c **** 	case 4:
 323:keyboards/Aaron/Manuform/keymaps/Aaron/keymap.c **** 		if(record->event.pressed) {
 324:keyboards/Aaron/Manuform/keymaps/Aaron/keymap.c **** 			return MACRO(I(10), D(LCTRL), T(T), T(V), T(ENTER), U(LCTRL), END);
 325:keyboards/Aaron/Manuform/keymaps/Aaron/keymap.c **** 		}
 326:keyboards/Aaron/Manuform/keymaps/Aaron/keymap.c **** 		
 327:keyboards/Aaron/Manuform/keymaps/Aaron/keymap.c **** 	case 5:{
 328:keyboards/Aaron/Manuform/keymaps/Aaron/keymap.c **** 			return  MACRO_TAP_HOLD_LAYER(record, MACRO(TYPE(KC_X), END), _LOWER);	
 329:keyboards/Aaron/Manuform/keymaps/Aaron/keymap.c **** 		}
 330:keyboards/Aaron/Manuform/keymaps/Aaron/keymap.c **** 	case 6: {
 331:keyboards/Aaron/Manuform/keymaps/Aaron/keymap.c **** 			if(record->event.pressed) 
 332:keyboards/Aaron/Manuform/keymaps/Aaron/keymap.c **** 			return MACRO(I(10), T(0), T(C), T(TAB), T(TAB), T(A), T(TAB), END);
 333:keyboards/Aaron/Manuform/keymaps/Aaron/keymap.c **** 		}
 334:keyboards/Aaron/Manuform/keymaps/Aaron/keymap.c **** 	case 10: {
 335:keyboards/Aaron/Manuform/keymaps/Aaron/keymap.c **** 		if(record->event.pressed) {
 336:keyboards/Aaron/Manuform/keymaps/Aaron/keymap.c **** 		SEND_STRING("Mydogc3rri35");
 337:keyboards/Aaron/Manuform/keymaps/Aaron/keymap.c **** 			return false; break;}
 338:keyboards/Aaron/Manuform/keymaps/Aaron/keymap.c **** 	}		
 339:keyboards/Aaron/Manuform/keymaps/Aaron/keymap.c **** 	case 11: {
 340:keyboards/Aaron/Manuform/keymaps/Aaron/keymap.c **** 		if(record->event.pressed) {
 341:keyboards/Aaron/Manuform/keymaps/Aaron/keymap.c **** 			SEND_STRING("ipconfig /all");
 342:keyboards/Aaron/Manuform/keymaps/Aaron/keymap.c **** 					return false; break;}
 343:keyboards/Aaron/Manuform/keymaps/Aaron/keymap.c **** 	}
 344:keyboards/Aaron/Manuform/keymaps/Aaron/keymap.c **** 	case 12: {
 345:keyboards/Aaron/Manuform/keymaps/Aaron/keymap.c **** 	if(record->event.pressed) 
 346:keyboards/Aaron/Manuform/keymaps/Aaron/keymap.c **** 		return MACRO( I(10),T(TAB), T(O), T(P), T(TAB),T(ENTER), T(TAB),T(TAB),T(TAB),T(Z),T(R),T(TAB),T(
 347:keyboards/Aaron/Manuform/keymaps/Aaron/keymap.c **** 	}	
 348:keyboards/Aaron/Manuform/keymaps/Aaron/keymap.c **** 		case 13: {
 349:keyboards/Aaron/Manuform/keymaps/Aaron/keymap.c **** 	if(record->event.pressed) 
 350:keyboards/Aaron/Manuform/keymaps/Aaron/keymap.c **** 		return MACRO( I(10),T(TAB), T(O), T(T), T(TAB),T(ENTER), T(TAB),T(TAB),T(TAB),T(Z),T(R),T(TAB),T(
 351:keyboards/Aaron/Manuform/keymaps/Aaron/keymap.c **** 	}	
 352:keyboards/Aaron/Manuform/keymaps/Aaron/keymap.c **** 		case 14: {
 353:keyboards/Aaron/Manuform/keymaps/Aaron/keymap.c **** 	if(record->event.pressed) 
 354:keyboards/Aaron/Manuform/keymaps/Aaron/keymap.c **** 		return MACRO( I(10),T(TAB), T(I), T(N), T(TAB),T(ENTER), T(TAB),T(TAB),T(TAB),T(I),T(N),T(TAB),T(
 355:keyboards/Aaron/Manuform/keymaps/Aaron/keymap.c **** 	}	
 356:keyboards/Aaron/Manuform/keymaps/Aaron/keymap.c **** 		case 15: {
 357:keyboards/Aaron/Manuform/keymaps/Aaron/keymap.c **** 	if(record->event.pressed) 
 358:keyboards/Aaron/Manuform/keymaps/Aaron/keymap.c **** 		SEND_STRING("ACloughPaez@GSB-Inc"SS_TAP(X_TAB)"Is7f#0n$Z"SS_TAP(X_TAB)SS_TAP(X_ENTER));
 359:keyboards/Aaron/Manuform/keymaps/Aaron/keymap.c **** 		return false; break;
 360:keyboards/Aaron/Manuform/keymaps/Aaron/keymap.c **** 	}
 361:keyboards/Aaron/Manuform/keymaps/Aaron/keymap.c **** 		case 16: {
 362:keyboards/Aaron/Manuform/keymaps/Aaron/keymap.c **** 	if(record->event.pressed) {
 363:keyboards/Aaron/Manuform/keymaps/Aaron/keymap.c **** 	MACRO(T(LGUI), W(50));}
 364:keyboards/Aaron/Manuform/keymaps/Aaron/keymap.c **** 	else{
 365:keyboards/Aaron/Manuform/keymaps/Aaron/keymap.c **** 	SEND_STRING("cmd"SS_TAP(X_ENTER));}
 366:keyboards/Aaron/Manuform/keymaps/Aaron/keymap.c **** 		return false; break;
 367:keyboards/Aaron/Manuform/keymaps/Aaron/keymap.c **** 	}
 368:keyboards/Aaron/Manuform/keymaps/Aaron/keymap.c **** 		break;
 369:keyboards/Aaron/Manuform/keymaps/Aaron/keymap.c **** 	}		
 370:keyboards/Aaron/Manuform/keymaps/Aaron/keymap.c **** 	return MACRO_NONE;
 371:keyboards/Aaron/Manuform/keymaps/Aaron/keymap.c **** }
 372:keyboards/Aaron/Manuform/keymaps/Aaron/keymap.c **** //return MACRO_NONE;
 373:keyboards/Aaron/Manuform/keymaps/Aaron/keymap.c **** 
 374:keyboards/Aaron/Manuform/keymaps/Aaron/keymap.c **** 
 375:keyboards/Aaron/Manuform/keymaps/Aaron/keymap.c **** void cmd_commands(qk_tap_dance_state_t *state, void *user_data) {
  16               		.loc 1 375 0
  17               		.cfi_startproc
  18               	.LVL0:
  19               	/* prologue: function */
  20               	/* frame size = 0 */
  21               	/* stack size = 0 */
  22               	.L__stack_usage = 0
 376:keyboards/Aaron/Manuform/keymaps/Aaron/keymap.c **** 	if (state->count == 1) {
  23               		.loc 1 376 0
  24 0000 FC01      		movw r30,r24
  25 0002 8081      		ld r24,Z
  26               	.LVL1:
  27 0004 8130      		cpi r24,lo8(1)
  28 0006 01F4      		brne .L2
 377:keyboards/Aaron/Manuform/keymaps/Aaron/keymap.c **** 		action_macro_play(MACRO(D(LCTRL), T(C), U(LCTRL),END));
  29               		.loc 1 377 0
  30 0008 80E0      		ldi r24,lo8(__m.3224)
  31 000a 90E0      		ldi r25,hi8(__m.3224)
  32 000c 00C0      		rjmp .L4
  33               	.L2:
 378:keyboards/Aaron/Manuform/keymaps/Aaron/keymap.c **** 	}
 379:keyboards/Aaron/Manuform/keymaps/Aaron/keymap.c **** 	else if (state->count ==2){
  34               		.loc 1 379 0
  35 000e 8230      		cpi r24,lo8(2)
  36 0010 01F4      		brne .L3
 380:keyboards/Aaron/Manuform/keymaps/Aaron/keymap.c **** 		action_macro_play(MACRO(D(LCTRL), T(V), U(LCTRL),END));
  37               		.loc 1 380 0
  38 0012 80E0      		ldi r24,lo8(__m.3226)
  39 0014 90E0      		ldi r25,hi8(__m.3226)
  40 0016 00C0      		rjmp .L4
  41               	.L3:
 381:keyboards/Aaron/Manuform/keymaps/Aaron/keymap.c **** 	}
 382:keyboards/Aaron/Manuform/keymaps/Aaron/keymap.c **** 	else {
 383:keyboards/Aaron/Manuform/keymaps/Aaron/keymap.c **** 		action_macro_play(MACRO(D(LCTRL), T(A), T(C), U(LCTRL),END));
  42               		.loc 1 383 0
  43 0018 80E0      		ldi r24,lo8(__m.3228)
  44 001a 90E0      		ldi r25,hi8(__m.3228)
  45               	.L4:
  46 001c 0C94 0000 		jmp action_macro_play
  47               	.LVL2:
  48               		.cfi_endproc
  49               	.LFE26:
  51               		.section	.text.cmd,"ax",@progbits
  52               	.global	cmd
  54               	cmd:
  55               	.LFB27:
 384:keyboards/Aaron/Manuform/keymaps/Aaron/keymap.c **** 	}
 385:keyboards/Aaron/Manuform/keymaps/Aaron/keymap.c **** }
 386:keyboards/Aaron/Manuform/keymaps/Aaron/keymap.c **** 
 387:keyboards/Aaron/Manuform/keymaps/Aaron/keymap.c **** 
 388:keyboards/Aaron/Manuform/keymaps/Aaron/keymap.c **** void cmd(qk_tap_dance_state_t *state, void *user_data) {
  56               		.loc 1 388 0
  57               		.cfi_startproc
  58               	.LVL3:
  59               	/* prologue: function */
  60               	/* frame size = 0 */
  61               	/* stack size = 0 */
  62               	.L__stack_usage = 0
 389:keyboards/Aaron/Manuform/keymaps/Aaron/keymap.c **** 	if(state->count==1){
  63               		.loc 1 389 0
  64 0000 FC01      		movw r30,r24
  65 0002 8081      		ld r24,Z
  66               	.LVL4:
  67 0004 8130      		cpi r24,lo8(1)
  68 0006 01F4      		brne .L7
 390:keyboards/Aaron/Manuform/keymaps/Aaron/keymap.c **** 		action_macro_play(MACRO(D(LGUI), T(R),W(255), U(LGUI),W(255), T(C), T(M), T(D), T(ENTER),END));
  69               		.loc 1 390 0
  70 0008 80E0      		ldi r24,lo8(__m.3234)
  71 000a 90E0      		ldi r25,hi8(__m.3234)
  72 000c 00C0      		rjmp .L9
  73               	.L7:
 391:keyboards/Aaron/Manuform/keymaps/Aaron/keymap.c **** 	}
 392:keyboards/Aaron/Manuform/keymaps/Aaron/keymap.c **** 	else if (state->count == 2) {
  74               		.loc 1 392 0
  75 000e 8230      		cpi r24,lo8(2)
  76 0010 01F4      		brne .L8
 393:keyboards/Aaron/Manuform/keymaps/Aaron/keymap.c **** 		action_macro_play(MACRO(D(LGUI), T(R), U(LGUI), T(C), T(M), T(D), T(ENTER),W(255),W(255), T(I), T
  77               		.loc 1 393 0
  78 0012 80E0      		ldi r24,lo8(__m.3236)
  79 0014 90E0      		ldi r25,hi8(__m.3236)
  80 0016 00C0      		rjmp .L9
  81               	.L8:
 394:keyboards/Aaron/Manuform/keymaps/Aaron/keymap.c **** 	}
 395:keyboards/Aaron/Manuform/keymaps/Aaron/keymap.c **** 	else{
 396:keyboards/Aaron/Manuform/keymaps/Aaron/keymap.c **** 		action_macro_play(MACRO(D(LGUI), T(R),W(255), U(LGUI),W(255), T(C), T(M), T(D), T(ENTER), W(255),
  82               		.loc 1 396 0
  83 0018 80E0      		ldi r24,lo8(__m.3238)
  84 001a 90E0      		ldi r25,hi8(__m.3238)
  85               	.L9:
  86 001c 0C94 0000 		jmp action_macro_play
  87               	.LVL5:
  88               		.cfi_endproc
  89               	.LFE27:
  91               		.section	.text.VirtualDesktop,"ax",@progbits
  92               	.global	VirtualDesktop
  94               	VirtualDesktop:
  95               	.LFB29:
 397:keyboards/Aaron/Manuform/keymaps/Aaron/keymap.c **** 	}
 398:keyboards/Aaron/Manuform/keymaps/Aaron/keymap.c **** }
 399:keyboards/Aaron/Manuform/keymaps/Aaron/keymap.c **** void SLSH_BSLSH(qk_tap_dance_state_t *state, void *user_data) {
 400:keyboards/Aaron/Manuform/keymaps/Aaron/keymap.c **** 	if (state->count == 1) {
 401:keyboards/Aaron/Manuform/keymaps/Aaron/keymap.c **** 		register_code (KC_SLSH);
 402:keyboards/Aaron/Manuform/keymaps/Aaron/keymap.c **** 		unregister_code (KC_SLSH);
 403:keyboards/Aaron/Manuform/keymaps/Aaron/keymap.c **** 	}
 404:keyboards/Aaron/Manuform/keymaps/Aaron/keymap.c **** 	else{
 405:keyboards/Aaron/Manuform/keymaps/Aaron/keymap.c **** 		register_code (KC_BSLS);
 406:keyboards/Aaron/Manuform/keymaps/Aaron/keymap.c **** 		unregister_code (KC_BSLS);
 407:keyboards/Aaron/Manuform/keymaps/Aaron/keymap.c **** 	}
 408:keyboards/Aaron/Manuform/keymaps/Aaron/keymap.c **** }
 409:keyboards/Aaron/Manuform/keymaps/Aaron/keymap.c **** void VirtualDesktop(qk_tap_dance_state_t *state, void *user_data) {
  96               		.loc 1 409 0
  97               		.cfi_startproc
  98               	.LVL6:
  99               	/* prologue: function */
 100               	/* frame size = 0 */
 101               	/* stack size = 0 */
 102               	.L__stack_usage = 0
 410:keyboards/Aaron/Manuform/keymaps/Aaron/keymap.c **** 	if (state->count == 1) 
 103               		.loc 1 410 0
 104 0000 FC01      		movw r30,r24
 105 0002 8081      		ld r24,Z
 106               	.LVL7:
 107 0004 8130      		cpi r24,lo8(1)
 108 0006 01F4      		brne .L11
 411:keyboards/Aaron/Manuform/keymaps/Aaron/keymap.c **** 		action_macro_play(MACRO(D(LGUI),D(LCTRL),T(LEFT),U(LCTRL),U(LGUI),END));
 109               		.loc 1 411 0
 110 0008 80E0      		ldi r24,lo8(__m.3248)
 111 000a 90E0      		ldi r25,hi8(__m.3248)
 112 000c 00C0      		rjmp .L13
 113               	.L11:
 412:keyboards/Aaron/Manuform/keymaps/Aaron/keymap.c **** 	else if(state->count==2)
 114               		.loc 1 412 0
 115 000e 8230      		cpi r24,lo8(2)
 116 0010 01F4      		brne .L10
 413:keyboards/Aaron/Manuform/keymaps/Aaron/keymap.c **** 		action_macro_play(MACRO(D(LGUI),D(LCTRL),T(RIGHT),U(LCTRL),U(LGUI),END));
 117               		.loc 1 413 0
 118 0012 80E0      		ldi r24,lo8(__m.3250)
 119 0014 90E0      		ldi r25,hi8(__m.3250)
 120               	.L13:
 121 0016 0C94 0000 		jmp action_macro_play
 122               	.LVL8:
 123               	.L10:
 124 001a 0895      		ret
 125               		.cfi_endproc
 126               	.LFE29:
 128               		.section	.text.SLSH_BSLSH,"ax",@progbits
 129               	.global	SLSH_BSLSH
 131               	SLSH_BSLSH:
 132               	.LFB28:
 399:keyboards/Aaron/Manuform/keymaps/Aaron/keymap.c **** void SLSH_BSLSH(qk_tap_dance_state_t *state, void *user_data) {
 133               		.loc 1 399 0
 134               		.cfi_startproc
 135               	.LVL9:
 136               	/* prologue: function */
 137               	/* frame size = 0 */
 138               	/* stack size = 0 */
 139               	.L__stack_usage = 0
 400:keyboards/Aaron/Manuform/keymaps/Aaron/keymap.c **** 	if (state->count == 1) {
 140               		.loc 1 400 0
 141 0000 FC01      		movw r30,r24
 142 0002 8081      		ld r24,Z
 143               	.LVL10:
 144 0004 8130      		cpi r24,lo8(1)
 145 0006 01F4      		brne .L15
 401:keyboards/Aaron/Manuform/keymaps/Aaron/keymap.c **** 		register_code (KC_SLSH);
 146               		.loc 1 401 0
 147 0008 88E3      		ldi r24,lo8(56)
 148 000a 0E94 0000 		call register_code
 149               	.LVL11:
 402:keyboards/Aaron/Manuform/keymaps/Aaron/keymap.c **** 		unregister_code (KC_SLSH);
 150               		.loc 1 402 0
 151 000e 88E3      		ldi r24,lo8(56)
 152 0010 00C0      		rjmp .L16
 153               	.LVL12:
 154               	.L15:
 405:keyboards/Aaron/Manuform/keymaps/Aaron/keymap.c **** 		register_code (KC_BSLS);
 155               		.loc 1 405 0
 156 0012 81E3      		ldi r24,lo8(49)
 157 0014 0E94 0000 		call register_code
 158               	.LVL13:
 406:keyboards/Aaron/Manuform/keymaps/Aaron/keymap.c **** 		unregister_code (KC_BSLS);
 159               		.loc 1 406 0
 160 0018 81E3      		ldi r24,lo8(49)
 161               	.L16:
 162 001a 0C94 0000 		jmp unregister_code
 163               	.LVL14:
 164               		.cfi_endproc
 165               	.LFE28:
 167               		.section	.text.rgblight_toggle,"ax",@progbits
 168               		.weak	rgblight_toggle
 170               	rgblight_toggle:
 171               	.LFB10:
 172               		.file 2 "./quantum/rgb.h"
   1:./quantum/rgb.h **** /* Copyright 2017 Jack Humbert
   2:./quantum/rgb.h ****  *
   3:./quantum/rgb.h ****  * This program is free software: you can redistribute it and/or modify
   4:./quantum/rgb.h ****  * it under the terms of the GNU General Public License as published by
   5:./quantum/rgb.h ****  * the Free Software Foundation, either version 2 of the License, or
   6:./quantum/rgb.h ****  * (at your option) any later version.
   7:./quantum/rgb.h ****  *
   8:./quantum/rgb.h ****  * This program is distributed in the hope that it will be useful,
   9:./quantum/rgb.h ****  * but WITHOUT ANY WARRANTY; without even the implied warranty of
  10:./quantum/rgb.h ****  * MERCHANTABILITY or FITNESS FOR A PARTICULAR PURPOSE.  See the
  11:./quantum/rgb.h ****  * GNU General Public License for more details.
  12:./quantum/rgb.h ****  *
  13:./quantum/rgb.h ****  * You should have received a copy of the GNU General Public License
  14:./quantum/rgb.h ****  * along with this program.  If not, see <http://www.gnu.org/licenses/>.
  15:./quantum/rgb.h ****  */
  16:./quantum/rgb.h **** 
  17:./quantum/rgb.h **** #ifndef RGB_H
  18:./quantum/rgb.h **** #define RGB_H
  19:./quantum/rgb.h **** 
  20:./quantum/rgb.h **** __attribute__((weak))
  21:./quantum/rgb.h **** void rgblight_toggle(void) {};
 173               		.loc 2 21 0
 174               		.cfi_startproc
 175               	/* prologue: function */
 176               	/* frame size = 0 */
 177               	/* stack size = 0 */
 178               	.L__stack_usage = 0
 179 0000 0895      		ret
 180               		.cfi_endproc
 181               	.LFE10:
 183               		.section	.text.rgblight_step,"ax",@progbits
 184               		.weak	rgblight_step
 186               	rgblight_step:
 187               	.LFB11:
  22:./quantum/rgb.h **** 
  23:./quantum/rgb.h **** __attribute__((weak))
  24:./quantum/rgb.h **** void rgblight_step(void) {};
 188               		.loc 2 24 0
 189               		.cfi_startproc
 190               	/* prologue: function */
 191               	/* frame size = 0 */
 192               	/* stack size = 0 */
 193               	.L__stack_usage = 0
 194 0000 0895      		ret
 195               		.cfi_endproc
 196               	.LFE11:
 198               		.section	.text.rgblight_step_reverse,"ax",@progbits
 199               		.weak	rgblight_step_reverse
 201               	rgblight_step_reverse:
 202               	.LFB12:
  25:./quantum/rgb.h **** 
  26:./quantum/rgb.h **** __attribute__((weak))
  27:./quantum/rgb.h **** void rgblight_step_reverse(void) {};
 203               		.loc 2 27 0
 204               		.cfi_startproc
 205               	/* prologue: function */
 206               	/* frame size = 0 */
 207               	/* stack size = 0 */
 208               	.L__stack_usage = 0
 209 0000 0895      		ret
 210               		.cfi_endproc
 211               	.LFE12:
 213               		.section	.text.rgblight_increase_hue,"ax",@progbits
 214               		.weak	rgblight_increase_hue
 216               	rgblight_increase_hue:
 217               	.LFB13:
  28:./quantum/rgb.h **** 
  29:./quantum/rgb.h **** __attribute__((weak))
  30:./quantum/rgb.h **** void rgblight_increase_hue(void) {};
 218               		.loc 2 30 0
 219               		.cfi_startproc
 220               	/* prologue: function */
 221               	/* frame size = 0 */
 222               	/* stack size = 0 */
 223               	.L__stack_usage = 0
 224 0000 0895      		ret
 225               		.cfi_endproc
 226               	.LFE13:
 228               		.section	.text.rgblight_decrease_hue,"ax",@progbits
 229               		.weak	rgblight_decrease_hue
 231               	rgblight_decrease_hue:
 232               	.LFB14:
  31:./quantum/rgb.h **** 
  32:./quantum/rgb.h **** __attribute__((weak))
  33:./quantum/rgb.h **** void rgblight_decrease_hue(void) {};
 233               		.loc 2 33 0
 234               		.cfi_startproc
 235               	/* prologue: function */
 236               	/* frame size = 0 */
 237               	/* stack size = 0 */
 238               	.L__stack_usage = 0
 239 0000 0895      		ret
 240               		.cfi_endproc
 241               	.LFE14:
 243               		.section	.text.rgblight_increase_sat,"ax",@progbits
 244               		.weak	rgblight_increase_sat
 246               	rgblight_increase_sat:
 247               	.LFB15:
  34:./quantum/rgb.h **** 
  35:./quantum/rgb.h **** __attribute__((weak))
  36:./quantum/rgb.h **** void rgblight_increase_sat(void) {};
 248               		.loc 2 36 0
 249               		.cfi_startproc
 250               	/* prologue: function */
 251               	/* frame size = 0 */
 252               	/* stack size = 0 */
 253               	.L__stack_usage = 0
 254 0000 0895      		ret
 255               		.cfi_endproc
 256               	.LFE15:
 258               		.section	.text.rgblight_decrease_sat,"ax",@progbits
 259               		.weak	rgblight_decrease_sat
 261               	rgblight_decrease_sat:
 262               	.LFB16:
  37:./quantum/rgb.h **** 
  38:./quantum/rgb.h **** __attribute__((weak))
  39:./quantum/rgb.h **** void rgblight_decrease_sat(void) {};
 263               		.loc 2 39 0
 264               		.cfi_startproc
 265               	/* prologue: function */
 266               	/* frame size = 0 */
 267               	/* stack size = 0 */
 268               	.L__stack_usage = 0
 269 0000 0895      		ret
 270               		.cfi_endproc
 271               	.LFE16:
 273               		.section	.text.rgblight_increase_val,"ax",@progbits
 274               		.weak	rgblight_increase_val
 276               	rgblight_increase_val:
 277               	.LFB17:
  40:./quantum/rgb.h **** 
  41:./quantum/rgb.h **** __attribute__((weak))
  42:./quantum/rgb.h **** void rgblight_increase_val(void) {};
 278               		.loc 2 42 0
 279               		.cfi_startproc
 280               	/* prologue: function */
 281               	/* frame size = 0 */
 282               	/* stack size = 0 */
 283               	.L__stack_usage = 0
 284 0000 0895      		ret
 285               		.cfi_endproc
 286               	.LFE17:
 288               		.section	.text.rgblight_decrease_val,"ax",@progbits
 289               		.weak	rgblight_decrease_val
 291               	rgblight_decrease_val:
 292               	.LFB18:
  43:./quantum/rgb.h **** 
  44:./quantum/rgb.h **** __attribute__((weak))
  45:./quantum/rgb.h **** void rgblight_decrease_val(void) {};
 293               		.loc 2 45 0
 294               		.cfi_startproc
 295               	/* prologue: function */
 296               	/* frame size = 0 */
 297               	/* stack size = 0 */
 298               	.L__stack_usage = 0
 299 0000 0895      		ret
 300               		.cfi_endproc
 301               	.LFE18:
 303               		.section	.text.rgblight_increase_speed,"ax",@progbits
 304               		.weak	rgblight_increase_speed
 306               	rgblight_increase_speed:
 307               	.LFB19:
  46:./quantum/rgb.h **** 
  47:./quantum/rgb.h **** __attribute__((weak))
  48:./quantum/rgb.h **** void rgblight_increase_speed(void) {};
 308               		.loc 2 48 0
 309               		.cfi_startproc
 310               	/* prologue: function */
 311               	/* frame size = 0 */
 312               	/* stack size = 0 */
 313               	.L__stack_usage = 0
 314 0000 0895      		ret
 315               		.cfi_endproc
 316               	.LFE19:
 318               		.section	.text.rgblight_decrease_speed,"ax",@progbits
 319               		.weak	rgblight_decrease_speed
 321               	rgblight_decrease_speed:
 322               	.LFB20:
  49:./quantum/rgb.h **** 
  50:./quantum/rgb.h **** __attribute__((weak))
  51:./quantum/rgb.h **** void rgblight_decrease_speed(void) {};
 323               		.loc 2 51 0
 324               		.cfi_startproc
 325               	/* prologue: function */
 326               	/* frame size = 0 */
 327               	/* stack size = 0 */
 328               	.L__stack_usage = 0
 329 0000 0895      		ret
 330               		.cfi_endproc
 331               	.LFE20:
 333               		.section	.text.persistent_default_layer_set,"ax",@progbits
 334               	.global	persistent_default_layer_set
 336               	persistent_default_layer_set:
 337               	.LFB24:
 286:keyboards/Aaron/Manuform/keymaps/Aaron/keymap.c **** void persistent_default_layer_set(uint16_t default_layer) {
 338               		.loc 1 286 0
 339               		.cfi_startproc
 340               	.LVL15:
 286:keyboards/Aaron/Manuform/keymaps/Aaron/keymap.c **** void persistent_default_layer_set(uint16_t default_layer) {
 341               		.loc 1 286 0
 342 0000 CF93      		push r28
 343               	.LCFI0:
 344               		.cfi_def_cfa_offset 3
 345               		.cfi_offset 28, -2
 346 0002 DF93      		push r29
 347               	.LCFI1:
 348               		.cfi_def_cfa_offset 4
 349               		.cfi_offset 29, -3
 350               	/* prologue: function */
 351               	/* frame size = 0 */
 352               	/* stack size = 2 */
 353               	.L__stack_usage = 2
 354 0004 EC01      		movw r28,r24
 287:keyboards/Aaron/Manuform/keymaps/Aaron/keymap.c **** 	eeconfig_update_default_layer(default_layer);
 355               		.loc 1 287 0
 356 0006 0E94 0000 		call eeconfig_update_default_layer
 357               	.LVL16:
 288:keyboards/Aaron/Manuform/keymaps/Aaron/keymap.c **** 	default_layer_set(default_layer);
 358               		.loc 1 288 0
 359 000a BE01      		movw r22,r28
 360 000c 80E0      		ldi r24,0
 361 000e 90E0      		ldi r25,0
 362               	/* epilogue start */
 289:keyboards/Aaron/Manuform/keymaps/Aaron/keymap.c **** }
 363               		.loc 1 289 0
 364 0010 DF91      		pop r29
 365 0012 CF91      		pop r28
 366               	.LVL17:
 288:keyboards/Aaron/Manuform/keymaps/Aaron/keymap.c **** 	default_layer_set(default_layer);
 367               		.loc 1 288 0
 368 0014 0C94 0000 		jmp default_layer_set
 369               	.LVL18:
 370               		.cfi_endproc
 371               	.LFE24:
 373               		.section	.text.action_get_macro,"ax",@progbits
 374               	.global	action_get_macro
 376               	action_get_macro:
 377               	.LFB25:
 299:keyboards/Aaron/Manuform/keymaps/Aaron/keymap.c **** const macro_t *action_get_macro(keyrecord_t *record, uint8_t id, uint8_t opt) {
 378               		.loc 1 299 0
 379               		.cfi_startproc
 380               	.LVL19:
 381               	/* prologue: function */
 382               	/* frame size = 0 */
 383               	/* stack size = 0 */
 384               	.L__stack_usage = 0
 385 0000 DC01      		movw r26,r24
 301:keyboards/Aaron/Manuform/keymaps/Aaron/keymap.c **** 	switch (id) {
 386               		.loc 1 301 0
 387 0002 462F      		mov r20,r22
 388               	.LVL20:
 389 0004 50E0      		ldi r21,0
 390 0006 4131      		cpi r20,17
 391 0008 5105      		cpc r21,__zero_reg__
 392 000a 00F0      		brlo .+2
 393 000c 00C0      		rjmp .L59
 394 000e 4050      		subi r20,lo8(-(gs(.L32)))
 395 0010 5040      		sbci r21,hi8(-(gs(.L32)))
 396 0012 FA01      		movw r30,r20
 397 0014 0C94 0000 		jmp __tablejump2__
 398               		.section	.progmem.gcc_sw_table.action_get_macro,"a",@progbits
 399               		.p2align	1
 400               	.L32:
 401 0000 0000      		.word gs(.L31)
 402 0002 0000      		.word gs(.L33)
 403 0004 0000      		.word gs(.L34)
 404 0006 0000      		.word gs(.L35)
 405 0008 0000      		.word gs(.L36)
 406 000a 0000      		.word gs(.L37)
 407 000c 0000      		.word gs(.L38)
 408 000e 0000      		.word gs(.L59)
 409 0010 0000      		.word gs(.L59)
 410 0012 0000      		.word gs(.L59)
 411 0014 0000      		.word gs(.L39)
 412 0016 0000      		.word gs(.L40)
 413 0018 0000      		.word gs(.L41)
 414 001a 0000      		.word gs(.L42)
 415 001c 0000      		.word gs(.L43)
 416 001e 0000      		.word gs(.L44)
 417 0020 0000      		.word gs(.L45)
 418               		.section	.text.action_get_macro
 419               	.L31:
 303:keyboards/Aaron/Manuform/keymaps/Aaron/keymap.c **** 		if (record->event.pressed) {
 420               		.loc 1 303 0
 421 0018 1296      		adiw r26,2
 422 001a 8C91      		ld r24,X
 423 001c 1297      		sbiw r26,2
 424               	.LVL21:
 425 001e 8111      		cpse r24,__zero_reg__
 426 0020 00C0      		rjmp .L50
 427               	.L33:
 307:keyboards/Aaron/Manuform/keymaps/Aaron/keymap.c **** 		if (record->event.pressed) {
 428               		.loc 1 307 0
 429 0022 1296      		adiw r26,2
 430 0024 8C91      		ld r24,X
 431 0026 1297      		sbiw r26,2
 432 0028 8823      		tst r24
 433 002a 01F0      		breq .L34
 308:keyboards/Aaron/Manuform/keymaps/Aaron/keymap.c **** 			SEND_STRING("admin"SS_TAP(X_TAB)"1111"SS_TAP(X_ENTER));
 434               		.loc 1 308 0
 435 002c 80E0      		ldi r24,lo8(__c.3178)
 436 002e 90E0      		ldi r25,hi8(__c.3178)
 437 0030 00C0      		rjmp .L81
 438               	.L34:
 313:keyboards/Aaron/Manuform/keymaps/Aaron/keymap.c **** 		if (record->event.pressed) {
 439               		.loc 1 313 0
 440 0032 1296      		adiw r26,2
 441 0034 8C91      		ld r24,X
 442 0036 1297      		sbiw r26,2
 443 0038 8823      		tst r24
 444 003a 01F0      		breq .L35
 314:keyboards/Aaron/Manuform/keymaps/Aaron/keymap.c **** 			SEND_STRING("apaez@gotocos.com");
 445               		.loc 1 314 0
 446 003c 80E0      		ldi r24,lo8(__c.3181)
 447 003e 90E0      		ldi r25,hi8(__c.3181)
 448 0040 00C0      		rjmp .L81
 449               	.L35:
 318:keyboards/Aaron/Manuform/keymaps/Aaron/keymap.c **** 		if (record->event.pressed) {
 450               		.loc 1 318 0
 451 0042 1296      		adiw r26,2
 452 0044 8C91      		ld r24,X
 453 0046 1297      		sbiw r26,2
 454 0048 8823      		tst r24
 455 004a 01F0      		breq .L36
 319:keyboards/Aaron/Manuform/keymaps/Aaron/keymap.c **** 			SEND_STRING("www.support.xerox.com"SS_TAP(X_ENTER));
 456               		.loc 1 319 0
 457 004c 80E0      		ldi r24,lo8(__c.3184)
 458 004e 90E0      		ldi r25,hi8(__c.3184)
 459 0050 00C0      		rjmp .L81
 460               	.L36:
 323:keyboards/Aaron/Manuform/keymaps/Aaron/keymap.c **** 		if(record->event.pressed) {
 461               		.loc 1 323 0
 462 0052 1296      		adiw r26,2
 463 0054 8C91      		ld r24,X
 464 0056 1297      		sbiw r26,2
 465 0058 8111      		cpse r24,__zero_reg__
 466 005a 00C0      		rjmp .L51
 467               	.L37:
 328:keyboards/Aaron/Manuform/keymaps/Aaron/keymap.c **** 			return  MACRO_TAP_HOLD_LAYER(record, MACRO(TYPE(KC_X), END), _LOWER);	
 468               		.loc 1 328 0
 469 005c 1296      		adiw r26,2
 470 005e 9C91      		ld r25,X
 471 0060 1297      		sbiw r26,2
 472 0062 1596      		adiw r26,5
 473 0064 8C91      		ld r24,X
 474 0066 9923      		tst r25
 475 0068 01F0      		breq .L46
 328:keyboards/Aaron/Manuform/keymaps/Aaron/keymap.c **** 			return  MACRO_TAP_HOLD_LAYER(record, MACRO(TYPE(KC_X), END), _LOWER);	
 476               		.loc 1 328 0 is_stmt 0 discriminator 1
 477 006a 982F      		mov r25,r24
 478 006c 9295      		swap r25
 479 006e 9F70      		andi r25,lo8(15)
 480 0070 01F0      		breq .L47
 328:keyboards/Aaron/Manuform/keymaps/Aaron/keymap.c **** 			return  MACRO_TAP_HOLD_LAYER(record, MACRO(TYPE(KC_X), END), _LOWER);	
 481               		.loc 1 328 0 discriminator 4
 482 0072 80FF      		sbrs r24,0
 483 0074 00C0      		rjmp .L59
 484               	.L47:
 485               	.LBB2:
 328:keyboards/Aaron/Manuform/keymaps/Aaron/keymap.c **** 			return  MACRO_TAP_HOLD_LAYER(record, MACRO(TYPE(KC_X), END), _LOWER);	
 486               		.loc 1 328 0 discriminator 3
 487 0076 83E0      		ldi r24,lo8(3)
 488 0078 0E94 0000 		call layer_on
 489               	.LVL22:
 490 007c 00C0      		rjmp .L59
 491               	.LVL23:
 492               	.L46:
 493               	.LBE2:
 328:keyboards/Aaron/Manuform/keymaps/Aaron/keymap.c **** 			return  MACRO_TAP_HOLD_LAYER(record, MACRO(TYPE(KC_X), END), _LOWER);	
 494               		.loc 1 328 0 discriminator 2
 495 007e 982F      		mov r25,r24
 496 0080 9295      		swap r25
 497 0082 9F70      		andi r25,lo8(15)
 498 0084 01F0      		breq .L48
 328:keyboards/Aaron/Manuform/keymaps/Aaron/keymap.c **** 			return  MACRO_TAP_HOLD_LAYER(record, MACRO(TYPE(KC_X), END), _LOWER);	
 499               		.loc 1 328 0 discriminator 6
 500 0086 80FF      		sbrs r24,0
 501 0088 00C0      		rjmp .L53
 502               	.L48:
 503               	.LBB3:
 328:keyboards/Aaron/Manuform/keymaps/Aaron/keymap.c **** 			return  MACRO_TAP_HOLD_LAYER(record, MACRO(TYPE(KC_X), END), _LOWER);	
 504               		.loc 1 328 0 discriminator 7
 505 008a 83E0      		ldi r24,lo8(3)
 506 008c 0E94 0000 		call layer_off
 507               	.LVL24:
 508 0090 00C0      		rjmp .L59
 509               	.LVL25:
 510               	.L38:
 511               	.LBE3:
 331:keyboards/Aaron/Manuform/keymaps/Aaron/keymap.c **** 			if(record->event.pressed) 
 512               		.loc 1 331 0 is_stmt 1
 513 0092 1296      		adiw r26,2
 514 0094 8C91      		ld r24,X
 515 0096 1297      		sbiw r26,2
 516               	.LVL26:
 517 0098 8111      		cpse r24,__zero_reg__
 518 009a 00C0      		rjmp .L54
 519               	.L39:
 335:keyboards/Aaron/Manuform/keymaps/Aaron/keymap.c **** 		if(record->event.pressed) {
 520               		.loc 1 335 0
 521 009c 1296      		adiw r26,2
 522 009e 8C91      		ld r24,X
 523 00a0 1297      		sbiw r26,2
 524 00a2 8823      		tst r24
 525 00a4 01F0      		breq .L40
 336:keyboards/Aaron/Manuform/keymaps/Aaron/keymap.c **** 		SEND_STRING("Mydogc3rri35");
 526               		.loc 1 336 0
 527 00a6 80E0      		ldi r24,lo8(__c.3198)
 528 00a8 90E0      		ldi r25,hi8(__c.3198)
 529 00aa 00C0      		rjmp .L81
 530               	.L40:
 340:keyboards/Aaron/Manuform/keymaps/Aaron/keymap.c **** 		if(record->event.pressed) {
 531               		.loc 1 340 0
 532 00ac 1296      		adiw r26,2
 533 00ae 8C91      		ld r24,X
 534 00b0 1297      		sbiw r26,2
 535 00b2 8823      		tst r24
 536 00b4 01F0      		breq .L41
 341:keyboards/Aaron/Manuform/keymaps/Aaron/keymap.c **** 			SEND_STRING("ipconfig /all");
 537               		.loc 1 341 0
 538 00b6 80E0      		ldi r24,lo8(__c.3201)
 539 00b8 90E0      		ldi r25,hi8(__c.3201)
 540 00ba 00C0      		rjmp .L81
 541               	.L41:
 345:keyboards/Aaron/Manuform/keymaps/Aaron/keymap.c **** 	if(record->event.pressed) 
 542               		.loc 1 345 0
 543 00bc 1296      		adiw r26,2
 544 00be 8C91      		ld r24,X
 545 00c0 1297      		sbiw r26,2
 546 00c2 8111      		cpse r24,__zero_reg__
 547 00c4 00C0      		rjmp .L55
 548               	.L42:
 349:keyboards/Aaron/Manuform/keymaps/Aaron/keymap.c **** 	if(record->event.pressed) 
 549               		.loc 1 349 0
 550 00c6 1296      		adiw r26,2
 551 00c8 8C91      		ld r24,X
 552 00ca 1297      		sbiw r26,2
 553 00cc 8111      		cpse r24,__zero_reg__
 554 00ce 00C0      		rjmp .L56
 555               	.L43:
 353:keyboards/Aaron/Manuform/keymaps/Aaron/keymap.c **** 	if(record->event.pressed) 
 556               		.loc 1 353 0
 557 00d0 1296      		adiw r26,2
 558 00d2 8C91      		ld r24,X
 559 00d4 1297      		sbiw r26,2
 560 00d6 8111      		cpse r24,__zero_reg__
 561 00d8 00C0      		rjmp .L57
 562               	.L44:
 357:keyboards/Aaron/Manuform/keymaps/Aaron/keymap.c **** 	if(record->event.pressed) 
 563               		.loc 1 357 0
 564 00da 1296      		adiw r26,2
 565 00dc 8C91      		ld r24,X
 566 00de 8823      		tst r24
 567 00e0 01F0      		breq .L59
 358:keyboards/Aaron/Manuform/keymaps/Aaron/keymap.c **** 		SEND_STRING("ACloughPaez@GSB-Inc"SS_TAP(X_TAB)"Is7f#0n$Z"SS_TAP(X_TAB)SS_TAP(X_ENTER));
 568               		.loc 1 358 0
 569 00e2 80E0      		ldi r24,lo8(__c.3213)
 570 00e4 90E0      		ldi r25,hi8(__c.3213)
 571 00e6 00C0      		rjmp .L81
 572               	.LVL27:
 573               	.L45:
 362:keyboards/Aaron/Manuform/keymaps/Aaron/keymap.c **** 	if(record->event.pressed) {
 574               		.loc 1 362 0
 575 00e8 1296      		adiw r26,2
 576 00ea 8C91      		ld r24,X
 577               	.LVL28:
 578 00ec 8111      		cpse r24,__zero_reg__
 579 00ee 00C0      		rjmp .L59
 365:keyboards/Aaron/Manuform/keymaps/Aaron/keymap.c **** 	SEND_STRING("cmd"SS_TAP(X_ENTER));}
 580               		.loc 1 365 0
 581 00f0 80E0      		ldi r24,lo8(__c.3218)
 582 00f2 90E0      		ldi r25,hi8(__c.3218)
 583               	.L81:
 584 00f4 0E94 0000 		call send_string_P
 585               	.LVL29:
 586 00f8 00C0      		rjmp .L59
 587               	.LVL30:
 588               	.L50:
 304:keyboards/Aaron/Manuform/keymaps/Aaron/keymap.c **** 			return MACRO(D(LGUI), T(TAB), U(LGUI), END);
 589               		.loc 1 304 0
 590 00fa 80E0      		ldi r24,lo8(__m.3175)
 591 00fc 90E0      		ldi r25,hi8(__m.3175)
 592 00fe 0895      		ret
 593               	.L51:
 324:keyboards/Aaron/Manuform/keymaps/Aaron/keymap.c **** 			return MACRO(I(10), D(LCTRL), T(T), T(V), T(ENTER), U(LCTRL), END);
 594               		.loc 1 324 0
 595 0100 80E0      		ldi r24,lo8(__m.3187)
 596 0102 90E0      		ldi r25,hi8(__m.3187)
 597 0104 0895      		ret
 598               	.L53:
 328:keyboards/Aaron/Manuform/keymaps/Aaron/keymap.c **** 			return  MACRO_TAP_HOLD_LAYER(record, MACRO(TYPE(KC_X), END), _LOWER);	
 599               		.loc 1 328 0
 600 0106 80E0      		ldi r24,lo8(__m.3191)
 601 0108 90E0      		ldi r25,hi8(__m.3191)
 602 010a 0895      		ret
 603               	.L54:
 332:keyboards/Aaron/Manuform/keymaps/Aaron/keymap.c **** 			return MACRO(I(10), T(0), T(C), T(TAB), T(TAB), T(A), T(TAB), END);
 604               		.loc 1 332 0
 605 010c 80E0      		ldi r24,lo8(__m.3195)
 606 010e 90E0      		ldi r25,hi8(__m.3195)
 607 0110 0895      		ret
 608               	.L55:
 346:keyboards/Aaron/Manuform/keymaps/Aaron/keymap.c **** 		return MACRO( I(10),T(TAB), T(O), T(P), T(TAB),T(ENTER), T(TAB),T(TAB),T(TAB),T(Z),T(R),T(TAB),T(
 609               		.loc 1 346 0
 610 0112 80E0      		ldi r24,lo8(__m.3204)
 611 0114 90E0      		ldi r25,hi8(__m.3204)
 612 0116 0895      		ret
 613               	.L56:
 350:keyboards/Aaron/Manuform/keymaps/Aaron/keymap.c **** 		return MACRO( I(10),T(TAB), T(O), T(T), T(TAB),T(ENTER), T(TAB),T(TAB),T(TAB),T(Z),T(R),T(TAB),T(
 614               		.loc 1 350 0
 615 0118 80E0      		ldi r24,lo8(__m.3207)
 616 011a 90E0      		ldi r25,hi8(__m.3207)
 617 011c 0895      		ret
 618               	.L57:
 354:keyboards/Aaron/Manuform/keymaps/Aaron/keymap.c **** 		return MACRO( I(10),T(TAB), T(I), T(N), T(TAB),T(ENTER), T(TAB),T(TAB),T(TAB),T(I),T(N),T(TAB),T(
 619               		.loc 1 354 0
 620 011e 80E0      		ldi r24,lo8(__m.3210)
 621 0120 90E0      		ldi r25,hi8(__m.3210)
 622 0122 0895      		ret
 623               	.LVL31:
 624               	.L59:
 328:keyboards/Aaron/Manuform/keymaps/Aaron/keymap.c **** 			return  MACRO_TAP_HOLD_LAYER(record, MACRO(TYPE(KC_X), END), _LOWER);	
 625               		.loc 1 328 0
 626 0124 80E0      		ldi r24,0
 627 0126 90E0      		ldi r25,0
 371:keyboards/Aaron/Manuform/keymaps/Aaron/keymap.c **** }
 628               		.loc 1 371 0
 629 0128 0895      		ret
 630               		.cfi_endproc
 631               	.LFE25:
 633               		.section	.text.matrix_init_user,"ax",@progbits
 634               	.global	matrix_init_user
 636               	matrix_init_user:
 637               	.LFB30:
 414:keyboards/Aaron/Manuform/keymaps/Aaron/keymap.c **** }
 415:keyboards/Aaron/Manuform/keymaps/Aaron/keymap.c **** 	
 416:keyboards/Aaron/Manuform/keymaps/Aaron/keymap.c **** qk_tap_dance_action_t tap_dance_actions[] = {
 417:keyboards/Aaron/Manuform/keymaps/Aaron/keymap.c **** 	
 418:keyboards/Aaron/Manuform/keymaps/Aaron/keymap.c **** 	//Tap once for Esc, twice for Caps Lock
 419:keyboards/Aaron/Manuform/keymaps/Aaron/keymap.c **** 	[TD_CPY_PST] = ACTION_TAP_DANCE_FN(cmd_commands),
 420:keyboards/Aaron/Manuform/keymaps/Aaron/keymap.c **** 	[TD_SLSH]= ACTION_TAP_DANCE_FN(SLSH_BSLSH),
 421:keyboards/Aaron/Manuform/keymaps/Aaron/keymap.c **** 	[TD_CMD]=ACTION_TAP_DANCE_FN(cmd),
 422:keyboards/Aaron/Manuform/keymaps/Aaron/keymap.c **** 	[TD_VRDSK]=ACTION_TAP_DANCE_FN(VirtualDesktop)
 423:keyboards/Aaron/Manuform/keymaps/Aaron/keymap.c **** };
 424:keyboards/Aaron/Manuform/keymaps/Aaron/keymap.c **** 
 425:keyboards/Aaron/Manuform/keymaps/Aaron/keymap.c **** void matrix_init_user(void) {
 638               		.loc 1 425 0
 639               		.cfi_startproc
 640               	/* prologue: function */
 641               	/* frame size = 0 */
 642               	/* stack size = 0 */
 643               	.L__stack_usage = 0
 644 0000 0895      		ret
 645               		.cfi_endproc
 646               	.LFE30:
 648               		.section	.text.matrix_scan_user,"ax",@progbits
 649               	.global	matrix_scan_user
 651               	matrix_scan_user:
 652               	.LFB31:
 426:keyboards/Aaron/Manuform/keymaps/Aaron/keymap.c **** }
 427:keyboards/Aaron/Manuform/keymaps/Aaron/keymap.c **** 
 428:keyboards/Aaron/Manuform/keymaps/Aaron/keymap.c **** void matrix_scan_user(void) {
 653               		.loc 1 428 0
 654               		.cfi_startproc
 655               	/* prologue: function */
 656               	/* frame size = 0 */
 657               	/* stack size = 0 */
 658               	.L__stack_usage = 0
 659 0000 0895      		ret
 660               		.cfi_endproc
 661               	.LFE31:
 663               		.section	.text.process_record_user,"ax",@progbits
 664               	.global	process_record_user
 666               	process_record_user:
 667               	.LFB32:
 429:keyboards/Aaron/Manuform/keymaps/Aaron/keymap.c **** 	
 430:keyboards/Aaron/Manuform/keymaps/Aaron/keymap.c **** 	
 431:keyboards/Aaron/Manuform/keymaps/Aaron/keymap.c **** }
 432:keyboards/Aaron/Manuform/keymaps/Aaron/keymap.c **** bool process_record_user(uint16_t keycode, keyrecord_t *record) {
 668               		.loc 1 432 0
 669               		.cfi_startproc
 670               	.LVL32:
 671               		.loc 1 432 0
 672 0000 CF93      		push r28
 673               	.LCFI2:
 674               		.cfi_def_cfa_offset 3
 675               		.cfi_offset 28, -2
 676               	/* prologue: function */
 677               	/* frame size = 0 */
 678               	/* stack size = 1 */
 679               	.L__stack_usage = 1
 680 0002 FB01      		movw r30,r22
 433:keyboards/Aaron/Manuform/keymaps/Aaron/keymap.c **** 	switch (keycode) {
 681               		.loc 1 433 0
 682 0004 8C3D      		cpi r24,-36
 683 0006 2CE5      		ldi r18,92
 684 0008 9207      		cpc r25,r18
 685 000a 01F0      		breq .L86
 686 000c 00F4      		brsh .L87
 687 000e 8A3D      		cpi r24,-38
 688 0010 2CE5      		ldi r18,92
 689 0012 9207      		cpc r25,r18
 690 0014 01F0      		breq .L88
 691 0016 8B3D      		cpi r24,-37
 692 0018 9C45      		sbci r25,92
 693 001a 01F0      		breq .L89
 694 001c 00C0      		rjmp .L96
 695               	.L87:
 696 001e 8E3D      		cpi r24,-34
 697 0020 2CE5      		ldi r18,92
 698 0022 9207      		cpc r25,r18
 699 0024 01F0      		breq .L90
 700 0026 00F0      		brlo .L91
 701 0028 803E      		cpi r24,-32
 702 002a 9C45      		sbci r25,92
 703 002c 01F0      		breq .L92
 704 002e 00C0      		rjmp .L96
 705               	.L88:
 434:keyboards/Aaron/Manuform/keymaps/Aaron/keymap.c **** 		case COLEMAK:
 435:keyboards/Aaron/Manuform/keymaps/Aaron/keymap.c **** 		if (record->event.pressed) {
 706               		.loc 1 435 0
 707 0030 C281      		ldd r28,Z+2
 708 0032 CC23      		tst r28
 709 0034 01F0      		breq .L85
 436:keyboards/Aaron/Manuform/keymaps/Aaron/keymap.c **** 			#ifdef AUDIO_ENABLE
 437:keyboards/Aaron/Manuform/keymaps/Aaron/keymap.c **** 			PLAY_NOTE_ARRAY(tone_colemak, false, 0);
 438:keyboards/Aaron/Manuform/keymaps/Aaron/keymap.c **** 			#endif
 439:keyboards/Aaron/Manuform/keymaps/Aaron/keymap.c **** 			persistent_default_layer_set(1UL<<_COLEMAK);
 710               		.loc 1 439 0
 711 0036 81E0      		ldi r24,lo8(1)
 712 0038 90E0      		ldi r25,0
 713               	.LVL33:
 714 003a 00C0      		rjmp .L107
 715               	.LVL34:
 716               	.L89:
 440:keyboards/Aaron/Manuform/keymaps/Aaron/keymap.c **** 		}
 441:keyboards/Aaron/Manuform/keymaps/Aaron/keymap.c **** 		return false;
 442:keyboards/Aaron/Manuform/keymaps/Aaron/keymap.c **** 		break;
 443:keyboards/Aaron/Manuform/keymaps/Aaron/keymap.c **** 	case QWERTY:
 444:keyboards/Aaron/Manuform/keymaps/Aaron/keymap.c **** 		if (record->event.pressed) {
 717               		.loc 1 444 0
 718 003c C281      		ldd r28,Z+2
 719 003e CC23      		tst r28
 720 0040 01F0      		breq .L85
 445:keyboards/Aaron/Manuform/keymaps/Aaron/keymap.c **** 			#ifdef AUDIO_ENABLE
 446:keyboards/Aaron/Manuform/keymaps/Aaron/keymap.c **** 			PLAY_NOTE_ARRAY(tone_qwerty, false, 0);
 447:keyboards/Aaron/Manuform/keymaps/Aaron/keymap.c **** 			#endif
 448:keyboards/Aaron/Manuform/keymaps/Aaron/keymap.c **** 			persistent_default_layer_set(1UL<<_QWERTY);
 721               		.loc 1 448 0
 722 0042 82E0      		ldi r24,lo8(2)
 723 0044 90E0      		ldi r25,0
 724               	.LVL35:
 725               	.L107:
 726 0046 0E94 0000 		call persistent_default_layer_set
 727               	.LVL36:
 728 004a 00C0      		rjmp .L106
 729               	.LVL37:
 730               	.L86:
 449:keyboards/Aaron/Manuform/keymaps/Aaron/keymap.c **** 		}
 450:keyboards/Aaron/Manuform/keymaps/Aaron/keymap.c **** 		return false;
 451:keyboards/Aaron/Manuform/keymaps/Aaron/keymap.c **** 		break;
 452:keyboards/Aaron/Manuform/keymaps/Aaron/keymap.c **** 	case DVORAK:
 453:keyboards/Aaron/Manuform/keymaps/Aaron/keymap.c **** 		if (record->event.pressed) {
 731               		.loc 1 453 0
 732 004c C281      		ldd r28,Z+2
 733 004e CC23      		tst r28
 734 0050 01F0      		breq .L85
 454:keyboards/Aaron/Manuform/keymaps/Aaron/keymap.c **** 			#ifdef AUDIO_ENABLE
 455:keyboards/Aaron/Manuform/keymaps/Aaron/keymap.c **** 			PLAY_NOTE_ARRAY(tone_dvorak, false, 0);
 456:keyboards/Aaron/Manuform/keymaps/Aaron/keymap.c **** 			#endif
 457:keyboards/Aaron/Manuform/keymaps/Aaron/keymap.c **** 			persistent_default_layer_set(1UL<<_DVORAK);
 735               		.loc 1 457 0
 736 0052 84E0      		ldi r24,lo8(4)
 737 0054 90E0      		ldi r25,0
 738               	.LVL38:
 739 0056 00C0      		rjmp .L107
 740               	.LVL39:
 741               	.L91:
 458:keyboards/Aaron/Manuform/keymaps/Aaron/keymap.c **** 		}
 459:keyboards/Aaron/Manuform/keymaps/Aaron/keymap.c **** 		return false;
 460:keyboards/Aaron/Manuform/keymaps/Aaron/keymap.c **** 		break;
 461:keyboards/Aaron/Manuform/keymaps/Aaron/keymap.c **** 	case LOWER:
 462:keyboards/Aaron/Manuform/keymaps/Aaron/keymap.c **** 		if (record->event.pressed) {
 742               		.loc 1 462 0
 743 0058 C281      		ldd r28,Z+2
 463:keyboards/Aaron/Manuform/keymaps/Aaron/keymap.c **** 			layer_on(_LOWER);
 744               		.loc 1 463 0
 745 005a 83E0      		ldi r24,lo8(3)
 746               	.LVL40:
 747 005c 00C0      		rjmp .L110
 748               	.LVL41:
 749               	.L90:
 464:keyboards/Aaron/Manuform/keymaps/Aaron/keymap.c **** 			update_tri_layer(_LOWER, _RAISE, _ADJUST);
 465:keyboards/Aaron/Manuform/keymaps/Aaron/keymap.c **** 		} else {
 466:keyboards/Aaron/Manuform/keymaps/Aaron/keymap.c **** 			layer_off(_LOWER);
 467:keyboards/Aaron/Manuform/keymaps/Aaron/keymap.c **** 			update_tri_layer(_LOWER, _RAISE, _ADJUST);
 468:keyboards/Aaron/Manuform/keymaps/Aaron/keymap.c **** 		}
 469:keyboards/Aaron/Manuform/keymaps/Aaron/keymap.c **** 		return false;
 470:keyboards/Aaron/Manuform/keymaps/Aaron/keymap.c **** 		break;
 471:keyboards/Aaron/Manuform/keymaps/Aaron/keymap.c **** 	case RAISE:
 472:keyboards/Aaron/Manuform/keymaps/Aaron/keymap.c **** 		if (record->event.pressed) {
 750               		.loc 1 472 0
 751 005e C281      		ldd r28,Z+2
 473:keyboards/Aaron/Manuform/keymaps/Aaron/keymap.c **** 			layer_on(_RAISE);
 752               		.loc 1 473 0
 753 0060 84E0      		ldi r24,lo8(4)
 754               	.LVL42:
 755               	.L110:
 472:keyboards/Aaron/Manuform/keymaps/Aaron/keymap.c **** 		if (record->event.pressed) {
 756               		.loc 1 472 0
 757 0062 CC23      		tst r28
 758 0064 01F0      		breq .L94
 759               		.loc 1 473 0
 760 0066 0E94 0000 		call layer_on
 761               	.LVL43:
 474:keyboards/Aaron/Manuform/keymaps/Aaron/keymap.c **** 			update_tri_layer(_LOWER, _RAISE, _ADJUST);
 762               		.loc 1 474 0
 763 006a 40E1      		ldi r20,lo8(16)
 764 006c 64E0      		ldi r22,lo8(4)
 765 006e 83E0      		ldi r24,lo8(3)
 766 0070 0E94 0000 		call update_tri_layer
 767               	.LVL44:
 768 0074 00C0      		rjmp .L106
 769               	.LVL45:
 770               	.L94:
 475:keyboards/Aaron/Manuform/keymaps/Aaron/keymap.c **** 		} else {
 476:keyboards/Aaron/Manuform/keymaps/Aaron/keymap.c **** 			layer_off(_RAISE);
 771               		.loc 1 476 0
 772 0076 0E94 0000 		call layer_off
 773               	.LVL46:
 477:keyboards/Aaron/Manuform/keymaps/Aaron/keymap.c **** 			update_tri_layer(_LOWER, _RAISE, _ADJUST);
 774               		.loc 1 477 0
 775 007a 40E1      		ldi r20,lo8(16)
 776 007c 64E0      		ldi r22,lo8(4)
 777 007e 83E0      		ldi r24,lo8(3)
 778 0080 0E94 0000 		call update_tri_layer
 779               	.LVL47:
 780 0084 00C0      		rjmp .L85
 781               	.LVL48:
 782               	.L92:
 478:keyboards/Aaron/Manuform/keymaps/Aaron/keymap.c **** 		}
 479:keyboards/Aaron/Manuform/keymaps/Aaron/keymap.c **** 		return false;
 480:keyboards/Aaron/Manuform/keymaps/Aaron/keymap.c **** 		break;
 481:keyboards/Aaron/Manuform/keymaps/Aaron/keymap.c **** 	case ADJUST:
 482:keyboards/Aaron/Manuform/keymaps/Aaron/keymap.c **** 		if (record->event.pressed) {
 783               		.loc 1 482 0
 784 0086 C281      		ldd r28,Z+2
 483:keyboards/Aaron/Manuform/keymaps/Aaron/keymap.c **** 			layer_on(_ADJUST);
 785               		.loc 1 483 0
 786 0088 80E1      		ldi r24,lo8(16)
 787               	.LVL49:
 482:keyboards/Aaron/Manuform/keymaps/Aaron/keymap.c **** 		if (record->event.pressed) {
 788               		.loc 1 482 0
 789 008a CC23      		tst r28
 790 008c 01F0      		breq .L95
 791               		.loc 1 483 0
 792 008e 0E94 0000 		call layer_on
 793               	.LVL50:
 794               	.L106:
 484:keyboards/Aaron/Manuform/keymaps/Aaron/keymap.c **** 		} else {
 485:keyboards/Aaron/Manuform/keymaps/Aaron/keymap.c **** 			layer_off(_ADJUST);
 486:keyboards/Aaron/Manuform/keymaps/Aaron/keymap.c **** 		}
 487:keyboards/Aaron/Manuform/keymaps/Aaron/keymap.c **** 		return false;
 795               		.loc 1 487 0
 796 0092 C0E0      		ldi r28,0
 797 0094 00C0      		rjmp .L85
 798               	.LVL51:
 799               	.L95:
 485:keyboards/Aaron/Manuform/keymaps/Aaron/keymap.c **** 			layer_off(_ADJUST);
 800               		.loc 1 485 0
 801 0096 0E94 0000 		call layer_off
 802               	.LVL52:
 803 009a 00C0      		rjmp .L85
 804               	.LVL53:
 805               	.L96:
 488:keyboards/Aaron/Manuform/keymaps/Aaron/keymap.c **** 		break;
 489:keyboards/Aaron/Manuform/keymaps/Aaron/keymap.c **** 	}
 490:keyboards/Aaron/Manuform/keymaps/Aaron/keymap.c **** 	return true;
 806               		.loc 1 490 0
 807 009c C1E0      		ldi r28,lo8(1)
 808               	.LVL54:
 809               	.L85:
 491:keyboards/Aaron/Manuform/keymaps/Aaron/keymap.c **** }
 810               		.loc 1 491 0
 811 009e 8C2F      		mov r24,r28
 812               	/* epilogue start */
 813 00a0 CF91      		pop r28
 814 00a2 0895      		ret
 815               		.cfi_endproc
 816               	.LFE32:
 818               		.section	.progmem.data.__m.3250,"a",@progbits
 821               	__m.3250:
 822 0000 01        		.byte	1
 823 0001 E3        		.byte	-29
 824 0002 01        		.byte	1
 825 0003 E0        		.byte	-32
 826 0004 01        		.byte	1
 827 0005 4F        		.byte	79
 828 0006 02        		.byte	2
 829 0007 4F        		.byte	79
 830 0008 02        		.byte	2
 831 0009 E0        		.byte	-32
 832 000a 02        		.byte	2
 833 000b E3        		.byte	-29
 834 000c 00        		.byte	0
 835               		.section	.progmem.data.__m.3248,"a",@progbits
 838               	__m.3248:
 839 0000 01        		.byte	1
 840 0001 E3        		.byte	-29
 841 0002 01        		.byte	1
 842 0003 E0        		.byte	-32
 843 0004 01        		.byte	1
 844 0005 50        		.byte	80
 845 0006 02        		.byte	2
 846 0007 50        		.byte	80
 847 0008 02        		.byte	2
 848 0009 E0        		.byte	-32
 849 000a 02        		.byte	2
 850 000b E3        		.byte	-29
 851 000c 00        		.byte	0
 852               		.section	.progmem.data.__m.3238,"a",@progbits
 855               	__m.3238:
 856 0000 01        		.byte	1
 857 0001 E3        		.byte	-29
 858 0002 01        		.byte	1
 859 0003 15        		.byte	21
 860 0004 02        		.byte	2
 861 0005 15        		.byte	21
 862 0006 74        		.byte	116
 863 0007 FF        		.byte	-1
 864 0008 02        		.byte	2
 865 0009 E3        		.byte	-29
 866 000a 74        		.byte	116
 867 000b FF        		.byte	-1
 868 000c 01        		.byte	1
 869 000d 06        		.byte	6
 870 000e 02        		.byte	2
 871 000f 06        		.byte	6
 872 0010 01        		.byte	1
 873 0011 10        		.byte	16
 874 0012 02        		.byte	2
 875 0013 10        		.byte	16
 876 0014 01        		.byte	1
 877 0015 07        		.byte	7
 878 0016 02        		.byte	2
 879 0017 07        		.byte	7
 880 0018 01        		.byte	1
 881 0019 28        		.byte	40
 882 001a 02        		.byte	2
 883 001b 28        		.byte	40
 884 001c 74        		.byte	116
 885 001d FF        		.byte	-1
 886 001e 01        		.byte	1
 887 001f 13        		.byte	19
 888 0020 02        		.byte	2
 889 0021 13        		.byte	19
 890 0022 01        		.byte	1
 891 0023 0C        		.byte	12
 892 0024 02        		.byte	2
 893 0025 0C        		.byte	12
 894 0026 01        		.byte	1
 895 0027 11        		.byte	17
 896 0028 02        		.byte	2
 897 0029 11        		.byte	17
 898 002a 01        		.byte	1
 899 002b 0A        		.byte	10
 900 002c 02        		.byte	2
 901 002d 0A        		.byte	10
 902 002e 01        		.byte	1
 903 002f 2C        		.byte	44
 904 0030 02        		.byte	2
 905 0031 2C        		.byte	44
 906 0032 01        		.byte	1
 907 0033 E0        		.byte	-32
 908 0034 01        		.byte	1
 909 0035 19        		.byte	25
 910 0036 02        		.byte	2
 911 0037 19        		.byte	25
 912 0038 02        		.byte	2
 913 0039 E0        		.byte	-32
 914 003a 00        		.byte	0
 915               		.section	.progmem.data.__m.3236,"a",@progbits
 918               	__m.3236:
 919 0000 01        		.byte	1
 920 0001 E3        		.byte	-29
 921 0002 01        		.byte	1
 922 0003 15        		.byte	21
 923 0004 02        		.byte	2
 924 0005 15        		.byte	21
 925 0006 02        		.byte	2
 926 0007 E3        		.byte	-29
 927 0008 01        		.byte	1
 928 0009 06        		.byte	6
 929 000a 02        		.byte	2
 930 000b 06        		.byte	6
 931 000c 01        		.byte	1
 932 000d 10        		.byte	16
 933 000e 02        		.byte	2
 934 000f 10        		.byte	16
 935 0010 01        		.byte	1
 936 0011 07        		.byte	7
 937 0012 02        		.byte	2
 938 0013 07        		.byte	7
 939 0014 01        		.byte	1
 940 0015 28        		.byte	40
 941 0016 02        		.byte	2
 942 0017 28        		.byte	40
 943 0018 74        		.byte	116
 944 0019 FF        		.byte	-1
 945 001a 74        		.byte	116
 946 001b FF        		.byte	-1
 947 001c 01        		.byte	1
 948 001d 0C        		.byte	12
 949 001e 02        		.byte	2
 950 001f 0C        		.byte	12
 951 0020 01        		.byte	1
 952 0021 13        		.byte	19
 953 0022 02        		.byte	2
 954 0023 13        		.byte	19
 955 0024 01        		.byte	1
 956 0025 06        		.byte	6
 957 0026 02        		.byte	2
 958 0027 06        		.byte	6
 959 0028 01        		.byte	1
 960 0029 12        		.byte	18
 961 002a 02        		.byte	2
 962 002b 12        		.byte	18
 963 002c 01        		.byte	1
 964 002d 11        		.byte	17
 965 002e 02        		.byte	2
 966 002f 11        		.byte	17
 967 0030 01        		.byte	1
 968 0031 09        		.byte	9
 969 0032 02        		.byte	2
 970 0033 09        		.byte	9
 971 0034 01        		.byte	1
 972 0035 0C        		.byte	12
 973 0036 02        		.byte	2
 974 0037 0C        		.byte	12
 975 0038 01        		.byte	1
 976 0039 0A        		.byte	10
 977 003a 02        		.byte	2
 978 003b 0A        		.byte	10
 979 003c 01        		.byte	1
 980 003d 2C        		.byte	44
 981 003e 02        		.byte	2
 982 003f 2C        		.byte	44
 983 0040 01        		.byte	1
 984 0041 38        		.byte	56
 985 0042 02        		.byte	2
 986 0043 38        		.byte	56
 987 0044 01        		.byte	1
 988 0045 04        		.byte	4
 989 0046 02        		.byte	2
 990 0047 04        		.byte	4
 991 0048 01        		.byte	1
 992 0049 0F        		.byte	15
 993 004a 02        		.byte	2
 994 004b 0F        		.byte	15
 995 004c 01        		.byte	1
 996 004d 0F        		.byte	15
 997 004e 02        		.byte	2
 998 004f 0F        		.byte	15
 999 0050 01        		.byte	1
 1000 0051 28        		.byte	40
 1001 0052 02        		.byte	2
 1002 0053 28        		.byte	40
 1003 0054 00        		.byte	0
 1004               		.section	.progmem.data.__m.3234,"a",@progbits
 1007               	__m.3234:
 1008 0000 01        		.byte	1
 1009 0001 E3        		.byte	-29
 1010 0002 01        		.byte	1
 1011 0003 15        		.byte	21
 1012 0004 02        		.byte	2
 1013 0005 15        		.byte	21
 1014 0006 74        		.byte	116
 1015 0007 FF        		.byte	-1
 1016 0008 02        		.byte	2
 1017 0009 E3        		.byte	-29
 1018 000a 74        		.byte	116
 1019 000b FF        		.byte	-1
 1020 000c 01        		.byte	1
 1021 000d 06        		.byte	6
 1022 000e 02        		.byte	2
 1023 000f 06        		.byte	6
 1024 0010 01        		.byte	1
 1025 0011 10        		.byte	16
 1026 0012 02        		.byte	2
 1027 0013 10        		.byte	16
 1028 0014 01        		.byte	1
 1029 0015 07        		.byte	7
 1030 0016 02        		.byte	2
 1031 0017 07        		.byte	7
 1032 0018 01        		.byte	1
 1033 0019 28        		.byte	40
 1034 001a 02        		.byte	2
 1035 001b 28        		.byte	40
 1036 001c 00        		.byte	0
 1037               		.section	.progmem.data.__m.3228,"a",@progbits
 1040               	__m.3228:
 1041 0000 01        		.byte	1
 1042 0001 E0        		.byte	-32
 1043 0002 01        		.byte	1
 1044 0003 04        		.byte	4
 1045 0004 02        		.byte	2
 1046 0005 04        		.byte	4
 1047 0006 01        		.byte	1
 1048 0007 06        		.byte	6
 1049 0008 02        		.byte	2
 1050 0009 06        		.byte	6
 1051 000a 02        		.byte	2
 1052 000b E0        		.byte	-32
 1053 000c 00        		.byte	0
 1054               		.section	.progmem.data.__m.3226,"a",@progbits
 1057               	__m.3226:
 1058 0000 01        		.byte	1
 1059 0001 E0        		.byte	-32
 1060 0002 01        		.byte	1
 1061 0003 19        		.byte	25
 1062 0004 02        		.byte	2
 1063 0005 19        		.byte	25
 1064 0006 02        		.byte	2
 1065 0007 E0        		.byte	-32
 1066 0008 00        		.byte	0
 1067               		.section	.progmem.data.__m.3224,"a",@progbits
 1070               	__m.3224:
 1071 0000 01        		.byte	1
 1072 0001 E0        		.byte	-32
 1073 0002 01        		.byte	1
 1074 0003 06        		.byte	6
 1075 0004 02        		.byte	2
 1076 0005 06        		.byte	6
 1077 0006 02        		.byte	2
 1078 0007 E0        		.byte	-32
 1079 0008 00        		.byte	0
 1080               		.section	.progmem.data.__c.3218,"a",@progbits
 1083               	__c.3218:
 1084 0000 636D 6401 		.string	"cmd\001("
 1084      2800 
 1085               		.section	.progmem.data.__c.3213,"a",@progbits
 1088               	__c.3213:
 1089 0000 4143 6C6F 		.string	"ACloughPaez@GSB-Inc\001+Is7f#0n$Z\001+\001("
 1089      7567 6850 
 1089      6165 7A40 
 1089      4753 422D 
 1089      496E 6301 
 1090               		.section	.progmem.data.__m.3210,"a",@progbits
 1093               	__m.3210:
 1094 0000 75        		.byte	117
 1095 0001 0A        		.byte	10
 1096 0002 01        		.byte	1
 1097 0003 2B        		.byte	43
 1098 0004 02        		.byte	2
 1099 0005 2B        		.byte	43
 1100 0006 01        		.byte	1
 1101 0007 0C        		.byte	12
 1102 0008 02        		.byte	2
 1103 0009 0C        		.byte	12
 1104 000a 01        		.byte	1
 1105 000b 11        		.byte	17
 1106 000c 02        		.byte	2
 1107 000d 11        		.byte	17
 1108 000e 01        		.byte	1
 1109 000f 2B        		.byte	43
 1110 0010 02        		.byte	2
 1111 0011 2B        		.byte	43
 1112 0012 01        		.byte	1
 1113 0013 28        		.byte	40
 1114 0014 02        		.byte	2
 1115 0015 28        		.byte	40
 1116 0016 01        		.byte	1
 1117 0017 2B        		.byte	43
 1118 0018 02        		.byte	2
 1119 0019 2B        		.byte	43
 1120 001a 01        		.byte	1
 1121 001b 2B        		.byte	43
 1122 001c 02        		.byte	2
 1123 001d 2B        		.byte	43
 1124 001e 01        		.byte	1
 1125 001f 2B        		.byte	43
 1126 0020 02        		.byte	2
 1127 0021 2B        		.byte	43
 1128 0022 01        		.byte	1
 1129 0023 0C        		.byte	12
 1130 0024 02        		.byte	2
 1131 0025 0C        		.byte	12
 1132 0026 01        		.byte	1
 1133 0027 11        		.byte	17
 1134 0028 02        		.byte	2
 1135 0029 11        		.byte	17
 1136 002a 01        		.byte	1
 1137 002b 2B        		.byte	43
 1138 002c 02        		.byte	2
 1139 002d 2B        		.byte	43
 1140 002e 01        		.byte	1
 1141 002f 28        		.byte	40
 1142 0030 02        		.byte	2
 1143 0031 28        		.byte	40
 1144 0032 00        		.byte	0
 1145               		.section	.progmem.data.__m.3207,"a",@progbits
 1148               	__m.3207:
 1149 0000 75        		.byte	117
 1150 0001 0A        		.byte	10
 1151 0002 01        		.byte	1
 1152 0003 2B        		.byte	43
 1153 0004 02        		.byte	2
 1154 0005 2B        		.byte	43
 1155 0006 01        		.byte	1
 1156 0007 12        		.byte	18
 1157 0008 02        		.byte	2
 1158 0009 12        		.byte	18
 1159 000a 01        		.byte	1
 1160 000b 17        		.byte	23
 1161 000c 02        		.byte	2
 1162 000d 17        		.byte	23
 1163 000e 01        		.byte	1
 1164 000f 2B        		.byte	43
 1165 0010 02        		.byte	2
 1166 0011 2B        		.byte	43
 1167 0012 01        		.byte	1
 1168 0013 28        		.byte	40
 1169 0014 02        		.byte	2
 1170 0015 28        		.byte	40
 1171 0016 01        		.byte	1
 1172 0017 2B        		.byte	43
 1173 0018 02        		.byte	2
 1174 0019 2B        		.byte	43
 1175 001a 01        		.byte	1
 1176 001b 2B        		.byte	43
 1177 001c 02        		.byte	2
 1178 001d 2B        		.byte	43
 1179 001e 01        		.byte	1
 1180 001f 2B        		.byte	43
 1181 0020 02        		.byte	2
 1182 0021 2B        		.byte	43
 1183 0022 01        		.byte	1
 1184 0023 1D        		.byte	29
 1185 0024 02        		.byte	2
 1186 0025 1D        		.byte	29
 1187 0026 01        		.byte	1
 1188 0027 15        		.byte	21
 1189 0028 02        		.byte	2
 1190 0029 15        		.byte	21
 1191 002a 01        		.byte	1
 1192 002b 2B        		.byte	43
 1193 002c 02        		.byte	2
 1194 002d 2B        		.byte	43
 1195 002e 01        		.byte	1
 1196 002f 28        		.byte	40
 1197 0030 02        		.byte	2
 1198 0031 28        		.byte	40
 1199 0032 00        		.byte	0
 1200               		.section	.progmem.data.__m.3204,"a",@progbits
 1203               	__m.3204:
 1204 0000 75        		.byte	117
 1205 0001 0A        		.byte	10
 1206 0002 01        		.byte	1
 1207 0003 2B        		.byte	43
 1208 0004 02        		.byte	2
 1209 0005 2B        		.byte	43
 1210 0006 01        		.byte	1
 1211 0007 12        		.byte	18
 1212 0008 02        		.byte	2
 1213 0009 12        		.byte	18
 1214 000a 01        		.byte	1
 1215 000b 13        		.byte	19
 1216 000c 02        		.byte	2
 1217 000d 13        		.byte	19
 1218 000e 01        		.byte	1
 1219 000f 2B        		.byte	43
 1220 0010 02        		.byte	2
 1221 0011 2B        		.byte	43
 1222 0012 01        		.byte	1
 1223 0013 28        		.byte	40
 1224 0014 02        		.byte	2
 1225 0015 28        		.byte	40
 1226 0016 01        		.byte	1
 1227 0017 2B        		.byte	43
 1228 0018 02        		.byte	2
 1229 0019 2B        		.byte	43
 1230 001a 01        		.byte	1
 1231 001b 2B        		.byte	43
 1232 001c 02        		.byte	2
 1233 001d 2B        		.byte	43
 1234 001e 01        		.byte	1
 1235 001f 2B        		.byte	43
 1236 0020 02        		.byte	2
 1237 0021 2B        		.byte	43
 1238 0022 01        		.byte	1
 1239 0023 1D        		.byte	29
 1240 0024 02        		.byte	2
 1241 0025 1D        		.byte	29
 1242 0026 01        		.byte	1
 1243 0027 15        		.byte	21
 1244 0028 02        		.byte	2
 1245 0029 15        		.byte	21
 1246 002a 01        		.byte	1
 1247 002b 2B        		.byte	43
 1248 002c 02        		.byte	2
 1249 002d 2B        		.byte	43
 1250 002e 01        		.byte	1
 1251 002f 28        		.byte	40
 1252 0030 02        		.byte	2
 1253 0031 28        		.byte	40
 1254 0032 00        		.byte	0
 1255               		.section	.progmem.data.__c.3201,"a",@progbits
 1258               	__c.3201:
 1259 0000 6970 636F 		.string	"ipconfig /all"
 1259      6E66 6967 
 1259      202F 616C 
 1259      6C00 
 1260               		.section	.progmem.data.__c.3198,"a",@progbits
 1263               	__c.3198:
 1264 0000 4D79 646F 		.string	"Mydogc3rri35"
 1264      6763 3372 
 1264      7269 3335 
 1264      00
 1265               		.section	.progmem.data.__m.3195,"a",@progbits
 1268               	__m.3195:
 1269 0000 75        		.byte	117
 1270 0001 0A        		.byte	10
 1271 0002 01        		.byte	1
 1272 0003 27        		.byte	39
 1273 0004 02        		.byte	2
 1274 0005 27        		.byte	39
 1275 0006 01        		.byte	1
 1276 0007 06        		.byte	6
 1277 0008 02        		.byte	2
 1278 0009 06        		.byte	6
 1279 000a 01        		.byte	1
 1280 000b 2B        		.byte	43
 1281 000c 02        		.byte	2
 1282 000d 2B        		.byte	43
 1283 000e 01        		.byte	1
 1284 000f 2B        		.byte	43
 1285 0010 02        		.byte	2
 1286 0011 2B        		.byte	43
 1287 0012 01        		.byte	1
 1288 0013 04        		.byte	4
 1289 0014 02        		.byte	2
 1290 0015 04        		.byte	4
 1291 0016 01        		.byte	1
 1292 0017 2B        		.byte	43
 1293 0018 02        		.byte	2
 1294 0019 2B        		.byte	43
 1295 001a 00        		.byte	0
 1296               		.section	.progmem.data.__m.3191,"a",@progbits
 1299               	__m.3191:
 1300 0000 01        		.byte	1
 1301 0001 1B        		.byte	27
 1302 0002 02        		.byte	2
 1303 0003 1B        		.byte	27
 1304 0004 00        		.byte	0
 1305               		.section	.progmem.data.__m.3187,"a",@progbits
 1308               	__m.3187:
 1309 0000 75        		.byte	117
 1310 0001 0A        		.byte	10
 1311 0002 01        		.byte	1
 1312 0003 E0        		.byte	-32
 1313 0004 01        		.byte	1
 1314 0005 17        		.byte	23
 1315 0006 02        		.byte	2
 1316 0007 17        		.byte	23
 1317 0008 01        		.byte	1
 1318 0009 19        		.byte	25
 1319 000a 02        		.byte	2
 1320 000b 19        		.byte	25
 1321 000c 01        		.byte	1
 1322 000d 28        		.byte	40
 1323 000e 02        		.byte	2
 1324 000f 28        		.byte	40
 1325 0010 02        		.byte	2
 1326 0011 E0        		.byte	-32
 1327 0012 00        		.byte	0
 1328               		.section	.progmem.data.__c.3184,"a",@progbits
 1331               	__c.3184:
 1332 0000 7777 772E 		.string	"www.support.xerox.com\001("
 1332      7375 7070 
 1332      6F72 742E 
 1332      7865 726F 
 1332      782E 636F 
 1333               		.section	.progmem.data.__c.3181,"a",@progbits
 1336               	__c.3181:
 1337 0000 6170 6165 		.string	"apaez@gotocos.com"
 1337      7A40 676F 
 1337      746F 636F 
 1337      732E 636F 
 1337      6D00 
 1338               		.section	.progmem.data.__c.3178,"a",@progbits
 1341               	__c.3178:
 1342 0000 6164 6D69 		.string	"admin\001+1111\001("
 1342      6E01 2B31 
 1342      3131 3101 
 1342      2800 
 1343               		.section	.progmem.data.__m.3175,"a",@progbits
 1346               	__m.3175:
 1347 0000 01        		.byte	1
 1348 0001 E3        		.byte	-29
 1349 0002 01        		.byte	1
 1350 0003 2B        		.byte	43
 1351 0004 02        		.byte	2
 1352 0005 2B        		.byte	43
 1353 0006 02        		.byte	2
 1354 0007 E3        		.byte	-29
 1355 0008 00        		.byte	0
 1356               	.global	tap_dance_actions
 1357               		.section	.data.tap_dance_actions,"aw",@progbits
 1360               	tap_dance_actions:
 1361 0000 0000      		.word	0
 1362 0002 0000      		.word	gs(cmd_commands)
 1363 0004 0000      		.word	0
 1364 0006 0000 0000 		.zero	12
 1364      0000 0000 
 1364      0000 0000 
 1365 0012 0000      		.word	0
 1366 0014 0000      		.word	0
 1367 0016 0000      		.word	gs(cmd)
 1368 0018 0000      		.word	0
 1369 001a 0000 0000 		.zero	12
 1369      0000 0000 
 1369      0000 0000 
 1370 0026 0000      		.word	0
 1371 0028 0000      		.word	0
 1372 002a 0000      		.word	gs(SLSH_BSLSH)
 1373 002c 0000      		.word	0
 1374 002e 0000 0000 		.zero	12
 1374      0000 0000 
 1374      0000 0000 
 1375 003a 0000      		.word	0
 1376 003c 0000      		.word	0
 1377 003e 0000      		.word	gs(VirtualDesktop)
 1378 0040 0000      		.word	0
 1379 0042 0000 0000 		.zero	12
 1379      0000 0000 
 1379      0000 0000 
 1380 004e 0000      		.word	0
 1381               	.global	keymaps
 1382               		.section	.progmem.data.keymaps,"a",@progbits
 1385               	keymaps:
 1386 0000 2E00      		.word	46
 1387 0002 1E00      		.word	30
 1388 0004 1F00      		.word	31
 1389 0006 2000      		.word	32
 1390 0008 2100      		.word	33
 1391 000a 2200      		.word	34
 1392 000c 2B45      		.word	17707
 1393 000e 1400      		.word	20
 1394 0010 1A00      		.word	26
 1395 0012 0900      		.word	9
 1396 0014 1300      		.word	19
 1397 0016 0A00      		.word	10
 1398 0018 2840      		.word	16424
 1399 001a 0400      		.word	4
 1400 001c 1500      		.word	21
 1401 001e 1600      		.word	22
 1402 0020 1700      		.word	23
 1403 0022 0700      		.word	7
 1404 0024 E100      		.word	225
 1405 0026 1D00      		.word	29
 1406 0028 1B00      		.word	27
 1407 002a 0600      		.word	6
 1408 002c 1900      		.word	25
 1409 002e 0500      		.word	5
 1410 0030 2961      		.word	24873
 1411 0032 E200      		.word	226
 1412 0034 E300      		.word	227
 1413 0036 1E00      		.word	30
 1414 0038 1E00      		.word	30
 1415 003a 3500      		.word	53
 1416 003c 0100      		.word	1
 1417 003e 0100      		.word	1
 1418 0040 5000      		.word	80
 1419 0042 4F00      		.word	79
 1420 0044 2A00      		.word	42
 1421 0046 DD5C      		.word	23773
 1422 0048 0100      		.word	1
 1423 004a 0100      		.word	1
 1424 004c 4A00      		.word	74
 1425 004e 4D00      		.word	77
 1426 0050 0030      		.word	12288
 1427 0052 4600      		.word	70
 1428 0054 2D00      		.word	45
 1429 0056 2700      		.word	39
 1430 0058 2600      		.word	38
 1431 005a 2500      		.word	37
 1432 005c 2400      		.word	36
 1433 005e 2300      		.word	35
 1434 0060 3100      		.word	49
 1435 0062 3300      		.word	51
 1436 0064 1C00      		.word	28
 1437 0066 1800      		.word	24
 1438 0068 0F00      		.word	15
 1439 006a 0D00      		.word	13
 1440 006c 2800      		.word	40
 1441 006e 1200      		.word	18
 1442 0070 0C00      		.word	12
 1443 0072 0800      		.word	8
 1444 0074 1100      		.word	17
 1445 0076 0B00      		.word	11
 1446 0078 3500      		.word	53
 1447 007a 3800      		.word	56
 1448 007c 3700      		.word	55
 1449 007e 3600      		.word	54
 1450 0080 1000      		.word	16
 1451 0082 0E00      		.word	14
 1452 0084 3400      		.word	52
 1453 0086 0100      		.word	1
 1454 0088 4F00      		.word	79
 1455 008a 5000      		.word	80
 1456 008c 0100      		.word	1
 1457 008e 4C00      		.word	76
 1458 0090 0100      		.word	1
 1459 0092 0100      		.word	1
 1460 0094 5100      		.word	81
 1461 0096 5200      		.word	82
 1462 0098 2C00      		.word	44
 1463 009a 2800      		.word	40
 1464 009c 0100      		.word	1
 1465 009e 0100      		.word	1
 1466 00a0 4E00      		.word	78
 1467 00a2 4B00      		.word	75
 1468 00a4 DE5C      		.word	23774
 1469 00a6 4C00      		.word	76
 1470 00a8 2E00      		.word	46
 1471 00aa 1E00      		.word	30
 1472 00ac 1F00      		.word	31
 1473 00ae 2000      		.word	32
 1474 00b0 2100      		.word	33
 1475 00b2 2200      		.word	34
 1476 00b4 2B45      		.word	17707
 1477 00b6 1400      		.word	20
 1478 00b8 1A00      		.word	26
 1479 00ba 0800      		.word	8
 1480 00bc 1500      		.word	21
 1481 00be 1700      		.word	23
 1482 00c0 2840      		.word	16424
 1483 00c2 0400      		.word	4
 1484 00c4 1600      		.word	22
 1485 00c6 0700      		.word	7
 1486 00c8 0900      		.word	9
 1487 00ca 0A00      		.word	10
 1488 00cc E100      		.word	225
 1489 00ce 1D00      		.word	29
 1490 00d0 1B00      		.word	27
 1491 00d2 0600      		.word	6
 1492 00d4 1900      		.word	25
 1493 00d6 0500      		.word	5
 1494 00d8 2961      		.word	24873
 1495 00da E200      		.word	226
 1496 00dc E300      		.word	227
 1497 00de 5000      		.word	80
 1498 00e0 4F00      		.word	79
 1499 00e2 2A00      		.word	42
 1500 00e4 0100      		.word	1
 1501 00e6 4A00      		.word	74
 1502 00e8 2900      		.word	41
 1503 00ea 4600      		.word	70
 1504 00ec 0030      		.word	12288
 1505 00ee DD5C      		.word	23773
 1506 00f0 2B45      		.word	17707
 1507 00f2 1E00      		.word	30
 1508 00f4 1F00      		.word	31
 1509 00f6 2000      		.word	32
 1510 00f8 2100      		.word	33
 1511 00fa 2200      		.word	34
 1512 00fc 2D00      		.word	45
 1513 00fe 2700      		.word	39
 1514 0100 2600      		.word	38
 1515 0102 2500      		.word	37
 1516 0104 2400      		.word	36
 1517 0106 2300      		.word	35
 1518 0108 3100      		.word	49
 1519 010a 1300      		.word	19
 1520 010c 1200      		.word	18
 1521 010e 0C00      		.word	12
 1522 0110 1800      		.word	24
 1523 0112 1C00      		.word	28
 1524 0114 2800      		.word	40
 1525 0116 3300      		.word	51
 1526 0118 0F00      		.word	15
 1527 011a 0E00      		.word	14
 1528 011c 0D00      		.word	13
 1529 011e 0B00      		.word	11
 1530 0120 3500      		.word	53
 1531 0122 3800      		.word	56
 1532 0124 3700      		.word	55
 1533 0126 3600      		.word	54
 1534 0128 1000      		.word	16
 1535 012a 1100      		.word	17
 1536 012c 3400      		.word	52
 1537 012e 5100      		.word	81
 1538 0130 5200      		.word	82
 1539 0132 4F00      		.word	79
 1540 0134 5000      		.word	80
 1541 0136 2C00      		.word	44
 1542 0138 0100      		.word	1
 1543 013a 4D00      		.word	77
 1544 013c 4A00      		.word	74
 1545 013e 4C00      		.word	76
 1546 0140 DE5C      		.word	23774
 1547 0142 2800      		.word	40
 1548 0144 2D00      		.word	45
 1549 0146 1F00      		.word	31
 1550 0148 1F00      		.word	31
 1551 014a 1F00      		.word	31
 1552 014c 1F00      		.word	31
 1553 014e 1F00      		.word	31
 1554 0150 2E00      		.word	46
 1555 0152 1E00      		.word	30
 1556 0154 1F00      		.word	31
 1557 0156 2000      		.word	32
 1558 0158 2100      		.word	33
 1559 015a 2200      		.word	34
 1560 015c 2B00      		.word	43
 1561 015e 3400      		.word	52
 1562 0160 3600      		.word	54
 1563 0162 3700      		.word	55
 1564 0164 1300      		.word	19
 1565 0166 1C00      		.word	28
 1566 0168 2961      		.word	24873
 1567 016a 0400      		.word	4
 1568 016c 1200      		.word	18
 1569 016e 0800      		.word	8
 1570 0170 1800      		.word	24
 1571 0172 0C00      		.word	12
 1572 0174 E100      		.word	225
 1573 0176 3300      		.word	51
 1574 0178 1400      		.word	20
 1575 017a 0D00      		.word	13
 1576 017c 0E00      		.word	14
 1577 017e 1B00      		.word	27
 1578 0180 2B45      		.word	17707
 1579 0182 E000      		.word	224
 1580 0184 E200      		.word	226
 1581 0186 E300      		.word	227
 1582 0188 DD5C      		.word	23773
 1583 018a 2C00      		.word	44
 1584 018c 2B45      		.word	17707
 1585 018e 1E00      		.word	30
 1586 0190 1F00      		.word	31
 1587 0192 2000      		.word	32
 1588 0194 2100      		.word	33
 1589 0196 2200      		.word	34
 1590 0198 2B45      		.word	17707
 1591 019a 1E00      		.word	30
 1592 019c 1F00      		.word	31
 1593 019e 2000      		.word	32
 1594 01a0 2100      		.word	33
 1595 01a2 2200      		.word	34
 1596 01a4 2D00      		.word	45
 1597 01a6 2700      		.word	39
 1598 01a8 2600      		.word	38
 1599 01aa 2500      		.word	37
 1600 01ac 2400      		.word	36
 1601 01ae 2300      		.word	35
 1602 01b0 2D00      		.word	45
 1603 01b2 0F00      		.word	15
 1604 01b4 1500      		.word	21
 1605 01b6 0600      		.word	6
 1606 01b8 0A00      		.word	10
 1607 01ba 0900      		.word	9
 1608 01bc 3800      		.word	56
 1609 01be 1600      		.word	22
 1610 01c0 1100      		.word	17
 1611 01c2 1700      		.word	23
 1612 01c4 0B00      		.word	11
 1613 01c6 0700      		.word	7
 1614 01c8 2840      		.word	16424
 1615 01ca 1D00      		.word	29
 1616 01cc 1900      		.word	25
 1617 01ce 1A00      		.word	26
 1618 01d0 1000      		.word	16
 1619 01d2 0500      		.word	5
 1620 01d4 4F00      		.word	79
 1621 01d6 5200      		.word	82
 1622 01d8 5100      		.word	81
 1623 01da 5000      		.word	80
 1624 01dc 5200      		.word	82
 1625 01de 2A00      		.word	42
 1626 01e0 2D00      		.word	45
 1627 01e2 1F00      		.word	31
 1628 01e4 1F00      		.word	31
 1629 01e6 1F00      		.word	31
 1630 01e8 1F00      		.word	31
 1631 01ea 1F00      		.word	31
 1632 01ec 2D00      		.word	45
 1633 01ee 1F00      		.word	31
 1634 01f0 1F00      		.word	31
 1635 01f2 1F00      		.word	31
 1636 01f4 1F00      		.word	31
 1637 01f6 1F00      		.word	31
 1638 01f8 3500      		.word	53
 1639 01fa 0C30      		.word	12300
 1640 01fc 0D30      		.word	12301
 1641 01fe 0E30      		.word	12302
 1642 0200 0100      		.word	1
 1643 0202 0100      		.word	1
 1644 0204 0100      		.word	1
 1645 0206 0100      		.word	1
 1646 0208 0330      		.word	12291
 1647 020a 0230      		.word	12290
 1648 020c 0100      		.word	1
 1649 020e 0F30      		.word	12303
 1650 0210 0100      		.word	1
 1651 0212 0630      		.word	12294
 1652 0214 0100      		.word	1
 1653 0216 0100      		.word	1
 1654 0218 0100      		.word	1
 1655 021a 0100      		.word	1
 1656 021c 0100      		.word	1
 1657 021e 0100      		.word	1
 1658 0220 0130      		.word	12289
 1659 0222 0100      		.word	1
 1660 0224 0100      		.word	1
 1661 0226 0100      		.word	1
 1662 0228 005C      		.word	23552
 1663 022a 0100      		.word	1
 1664 022c 0100      		.word	1
 1665 022e 0100      		.word	1
 1666 0230 0100      		.word	1
 1667 0232 005C      		.word	23552
 1668 0234 005C      		.word	23552
 1669 0236 0100      		.word	1
 1670 0238 0100      		.word	1
 1671 023a 0100      		.word	1
 1672 023c 0100      		.word	1
 1673 023e DD5C      		.word	23773
 1674 0240 2B45      		.word	17707
 1675 0242 0100      		.word	1
 1676 0244 0100      		.word	1
 1677 0246 0100      		.word	1
 1678 0248 0100      		.word	1
 1679 024a 0100      		.word	1
 1680 024c 0100      		.word	1
 1681 024e 3000      		.word	48
 1682 0250 2F00      		.word	47
 1683 0252 0100      		.word	1
 1684 0254 0100      		.word	1
 1685 0256 0100      		.word	1
 1686 0258 0100      		.word	1
 1687 025a 0A30      		.word	12298
 1688 025c 1030      		.word	12304
 1689 025e 0100      		.word	1
 1690 0260 0100      		.word	1
 1691 0262 0100      		.word	1
 1692 0264 0100      		.word	1
 1693 0266 0100      		.word	1
 1694 0268 0B30      		.word	12299
 1695 026a 5200      		.word	82
 1696 026c 0100      		.word	1
 1697 026e 0100      		.word	1
 1698 0270 0100      		.word	1
 1699 0272 0100      		.word	1
 1700 0274 4F00      		.word	79
 1701 0276 5100      		.word	81
 1702 0278 5000      		.word	80
 1703 027a 0100      		.word	1
 1704 027c 005C      		.word	23552
 1705 027e 0100      		.word	1
 1706 0280 0100      		.word	1
 1707 0282 0100      		.word	1
 1708 0284 0100      		.word	1
 1709 0286 0100      		.word	1
 1710 0288 0100      		.word	1
 1711 028a 0100      		.word	1
 1712 028c 0100      		.word	1
 1713 028e 0100      		.word	1
 1714 0290 DE5C      		.word	23774
 1715 0292 DE5C      		.word	23774
 1716 0294 2D00      		.word	45
 1717 0296 0100      		.word	1
 1718 0298 0100      		.word	1
 1719 029a 0100      		.word	1
 1720 029c 0100      		.word	1
 1721 029e 0100      		.word	1
 1722 02a0 3500      		.word	53
 1723 02a2 1E00      		.word	30
 1724 02a4 1F00      		.word	31
 1725 02a6 2000      		.word	32
 1726 02a8 2100      		.word	33
 1727 02aa 2200      		.word	34
 1728 02ac 2500      		.word	37
 1729 02ae 1E00      		.word	30
 1730 02b0 0330      		.word	12291
 1731 02b2 1E00      		.word	30
 1732 02b4 1E00      		.word	30
 1733 02b6 1E00      		.word	30
 1734 02b8 2500      		.word	37
 1735 02ba 1E00      		.word	30
 1736 02bc 1E00      		.word	30
 1737 02be 1E00      		.word	30
 1738 02c0 1E00      		.word	30
 1739 02c2 1E00      		.word	30
 1740 02c4 2500      		.word	37
 1741 02c6 1E00      		.word	30
 1742 02c8 1E00      		.word	30
 1743 02ca 1E00      		.word	30
 1744 02cc 1E00      		.word	30
 1745 02ce 1E00      		.word	30
 1746 02d0 005C      		.word	23552
 1747 02d2 1E00      		.word	30
 1748 02d4 1E00      		.word	30
 1749 02d6 1E00      		.word	30
 1750 02d8 1E00      		.word	30
 1751 02da 0100      		.word	1
 1752 02dc 0100      		.word	1
 1753 02de 0100      		.word	1
 1754 02e0 0100      		.word	1
 1755 02e2 0100      		.word	1
 1756 02e4 0100      		.word	1
 1757 02e6 DD5C      		.word	23773
 1758 02e8 2B45      		.word	17707
 1759 02ea 0100      		.word	1
 1760 02ec 0100      		.word	1
 1761 02ee 0100      		.word	1
 1762 02f0 0100      		.word	1
 1763 02f2 0100      		.word	1
 1764 02f4 2D00      		.word	45
 1765 02f6 2700      		.word	39
 1766 02f8 2600      		.word	38
 1767 02fa 2500      		.word	37
 1768 02fc 2400      		.word	36
 1769 02fe 2300      		.word	35
 1770 0300 0000      		.word	0
 1771 0302 5600      		.word	86
 1772 0304 2300      		.word	35
 1773 0306 2200      		.word	34
 1774 0308 2100      		.word	33
 1775 030a 0000      		.word	0
 1776 030c 0000      		.word	0
 1777 030e 5700      		.word	87
 1778 0310 2000      		.word	32
 1779 0312 1F00      		.word	31
 1780 0314 1E00      		.word	30
 1781 0316 0000      		.word	0
 1782 0318 0000      		.word	0
 1783 031a 0000      		.word	0
 1784 031c 3700      		.word	55
 1785 031e 2700      		.word	39
 1786 0320 2700      		.word	39
 1787 0322 0000      		.word	0
 1788 0324 005C      		.word	23552
 1789 0326 0000      		.word	0
 1790 0328 0000      		.word	0
 1791 032a 5500      		.word	85
 1792 032c 5400      		.word	84
 1793 032e 005C      		.word	23552
 1794 0330 0100      		.word	1
 1795 0332 0100      		.word	1
 1796 0334 0100      		.word	1
 1797 0336 4C00      		.word	76
 1798 0338 DE5C      		.word	23774
 1799 033a DE5C      		.word	23774
 1800 033c 2D00      		.word	45
 1801 033e 0100      		.word	1
 1802 0340 0100      		.word	1
 1803 0342 0100      		.word	1
 1804 0344 0100      		.word	1
 1805 0346 0100      		.word	1
 1806 0348 4500      		.word	69
 1807 034a 3A00      		.word	58
 1808 034c 3B00      		.word	59
 1809 034e 3C00      		.word	60
 1810 0350 3D00      		.word	61
 1811 0352 3E00      		.word	62
 1812 0354 0100      		.word	1
 1813 0356 2000      		.word	32
 1814 0358 2000      		.word	32
 1815 035a 2000      		.word	32
 1816 035c 2000      		.word	32
 1817 035e 2000      		.word	32
 1818 0360 0100      		.word	1
 1819 0362 0100      		.word	1
 1820 0364 5200      		.word	82
 1821 0366 0100      		.word	1
 1822 0368 0100      		.word	1
 1823 036a 0100      		.word	1
 1824 036c 0100      		.word	1
 1825 036e 5000      		.word	80
 1826 0370 5100      		.word	81
 1827 0372 4F00      		.word	79
 1828 0374 0100      		.word	1
 1829 0376 0100      		.word	1
 1830 0378 2961      		.word	24873
 1831 037a E200      		.word	226
 1832 037c E300      		.word	227
 1833 037e 0357      		.word	22275
 1834 0380 DD5C      		.word	23773
 1835 0382 2A00      		.word	42
 1836 0384 2B45      		.word	17707
 1837 0386 1E00      		.word	30
 1838 0388 1F00      		.word	31
 1839 038a 2000      		.word	32
 1840 038c 2100      		.word	33
 1841 038e 2200      		.word	34
 1842 0390 2B45      		.word	17707
 1843 0392 1E00      		.word	30
 1844 0394 1F00      		.word	31
 1845 0396 2000      		.word	32
 1846 0398 2100      		.word	33
 1847 039a 2200      		.word	34
 1848 039c 4400      		.word	68
 1849 039e 4300      		.word	67
 1850 03a0 4200      		.word	66
 1851 03a2 4100      		.word	65
 1852 03a4 4000      		.word	64
 1853 03a6 3F00      		.word	63
 1854 03a8 0100      		.word	1
 1855 03aa 0100      		.word	1
 1856 03ac 0100      		.word	1
 1857 03ae 0100      		.word	1
 1858 03b0 0100      		.word	1
 1859 03b2 0100      		.word	1
 1860 03b4 0100      		.word	1
 1861 03b6 5200      		.word	82
 1862 03b8 0100      		.word	1
 1863 03ba 0100      		.word	1
 1864 03bc 0100      		.word	1
 1865 03be 0100      		.word	1
 1866 03c0 4F00      		.word	79
 1867 03c2 5100      		.word	81
 1868 03c4 5000      		.word	80
 1869 03c6 0100      		.word	1
 1870 03c8 0100      		.word	1
 1871 03ca 0100      		.word	1
 1872 03cc 4F00      		.word	79
 1873 03ce 5100      		.word	81
 1874 03d0 5000      		.word	80
 1875 03d2 3400      		.word	52
 1876 03d4 5200      		.word	82
 1877 03d6 2C00      		.word	44
 1878 03d8 2D00      		.word	45
 1879 03da 2700      		.word	39
 1880 03dc 2600      		.word	38
 1881 03de 2500      		.word	37
 1882 03e0 2400      		.word	36
 1883 03e2 2300      		.word	35
 1884 03e4 2D00      		.word	45
 1885 03e6 1F00      		.word	31
 1886 03e8 1F00      		.word	31
 1887 03ea 1F00      		.word	31
 1888 03ec 1F00      		.word	31
 1889 03ee 1F00      		.word	31
 1890 03f0 0000 0000 		.zero	1680
 1890      0000 0000 
 1890      0000 0000 
 1890      0000 0000 
 1890      0000 0000 
 1891 0a80 0100      		.word	1
 1892 0a82 DA5C      		.word	23770
 1893 0a84 DB5C      		.word	23771
 1894 0a86 C15C      		.word	23745
 1895 0a88 C45C      		.word	23748
 1896 0a8a C35C      		.word	23747
 1897 0a8c 0100      		.word	1
 1898 0a8e DB5C      		.word	23771
 1899 0a90 0100      		.word	1
 1900 0a92 1D5C      		.word	23581
 1901 0a94 1E5C      		.word	23582
 1902 0a96 135C      		.word	23571
 1903 0a98 0100      		.word	1
 1904 0a9a 1E00      		.word	30
 1905 0a9c 1E00      		.word	30
 1906 0a9e 0100      		.word	1
 1907 0aa0 0100      		.word	1
 1908 0aa2 0100      		.word	1
 1909 0aa4 0100      		.word	1
 1910 0aa6 0100      		.word	1
 1911 0aa8 0100      		.word	1
 1912 0aaa DA5C      		.word	23770
 1913 0aac 0100      		.word	1
 1914 0aae 0100      		.word	1
 1915 0ab0 0100      		.word	1
 1916 0ab2 0100      		.word	1
 1917 0ab4 0100      		.word	1
 1918 0ab6 0100      		.word	1
 1919 0ab8 0100      		.word	1
 1920 0aba 0100      		.word	1
 1921 0abc 0100      		.word	1
 1922 0abe 0100      		.word	1
 1923 0ac0 0100      		.word	1
 1924 0ac2 0100      		.word	1
 1925 0ac4 0100      		.word	1
 1926 0ac6 0100      		.word	1
 1927 0ac8 0100      		.word	1
 1928 0aca 0100      		.word	1
 1929 0acc 0100      		.word	1
 1930 0ace 0100      		.word	1
 1931 0ad0 0100      		.word	1
 1932 0ad2 0100      		.word	1
 1933 0ad4 005C      		.word	23552
 1934 0ad6 005C      		.word	23552
 1935 0ad8 C75C      		.word	23751
 1936 0ada C85C      		.word	23752
 1937 0adc C55C      		.word	23749
 1938 0ade C65C      		.word	23750
 1939 0ae0 0100      		.word	1
 1940 0ae2 015C      		.word	23553
 1941 0ae4 DC5C      		.word	23772
 1942 0ae6 DA5C      		.word	23770
 1943 0ae8 DB5C      		.word	23771
 1944 0aea 0A5C      		.word	23562
 1945 0aec 0100      		.word	1
 1946 0aee 0100      		.word	1
 1947 0af0 0100      		.word	1
 1948 0af2 0100      		.word	1
 1949 0af4 0100      		.word	1
 1950 0af6 0100      		.word	1
 1951 0af8 0100      		.word	1
 1952 0afa 0100      		.word	1
 1953 0afc 0100      		.word	1
 1954 0afe 0100      		.word	1
 1955 0b00 0100      		.word	1
 1956 0b02 0100      		.word	1
 1957 0b04 0100      		.word	1
 1958 0b06 0100      		.word	1
 1959 0b08 0100      		.word	1
 1960 0b0a 0100      		.word	1
 1961 0b0c 0100      		.word	1
 1962 0b0e 0100      		.word	1
 1963 0b10 0100      		.word	1
 1964 0b12 0100      		.word	1
 1965 0b14 0100      		.word	1
 1966 0b16 0100      		.word	1
 1967 0b18 0100      		.word	1
 1968 0b1a 0100      		.word	1
 1969 0b1c 0100      		.word	1
 1970 0b1e 0100      		.word	1
 1971 0b20 0100      		.word	1
 1972 0b22 0100      		.word	1
 1973 0b24 0100      		.word	1
 1974 0b26 0100      		.word	1
 1975               		.text
 1976               	.Letext0:
 1977               		.file 3 "/usr/lib/avr/include/stdint.h"
 1978               		.file 4 "./tmk_core/common/keyboard.h"
 1979               		.file 5 "./tmk_core/common/keycode.h"
 1980               		.file 6 "./tmk_core/common/action_code.h"
 1981               		.file 7 "./tmk_core/common/action_macro.h"
 1982               		.file 8 "./tmk_core/common/action.h"
 1983               		.file 9 "./tmk_core/common/report.h"
 1984               		.file 10 "./quantum/quantum_keycodes.h"
 1985               		.file 11 "./quantum/process_keycode/process_tap_dance.h"
 1986               		.file 12 "./tmk_core/common/action_util.h"
 1987               		.file 13 "./tmk_core/common/eeconfig.h"
 1988               		.file 14 "./tmk_core/common/action_layer.h"
 1989               		.file 15 "./quantum/quantum.h"