   1               		.file	"keymap.c"
   2               	__SP_H__ = 0x3e
   3               	__SP_L__ = 0x3d
   4               	__SREG__ = 0x3f
   5               	__tmp_reg__ = 0
   6               	__zero_reg__ = 1
   7               		.text
   8               	.Ltext0:
   9               		.cfi_sections	.debug_frame
  10               		.section	.text.rgblight_toggle,"ax",@progbits
  11               		.weak	rgblight_toggle
  13               	rgblight_toggle:
  14               	.LFB54:
  15               		.cfi_startproc
  16               	/* prologue: function */
  17               	/* frame size = 0 */
  18               	/* stack size = 0 */
  19               	.L__stack_usage = 0
  20 0000 0895      		ret
  21               		.cfi_endproc
  22               	.LFE54:
  24               		.section	.text.rgblight_step,"ax",@progbits
  25               		.weak	rgblight_step
  27               	rgblight_step:
  28               	.LFB52:
  29               		.cfi_startproc
  30               	/* prologue: function */
  31               	/* frame size = 0 */
  32               	/* stack size = 0 */
  33               	.L__stack_usage = 0
  34 0000 0895      		ret
  35               		.cfi_endproc
  36               	.LFE52:
  38               		.section	.text.rgblight_step_reverse,"ax",@progbits
  39               		.weak	rgblight_step_reverse
  41               	rgblight_step_reverse:
  42               	.LFB50:
  43               		.cfi_startproc
  44               	/* prologue: function */
  45               	/* frame size = 0 */
  46               	/* stack size = 0 */
  47               	.L__stack_usage = 0
  48 0000 0895      		ret
  49               		.cfi_endproc
  50               	.LFE50:
  52               		.section	.text.rgblight_increase_hue,"ax",@progbits
  53               		.weak	rgblight_increase_hue
  55               	rgblight_increase_hue:
  56               	.LFB48:
  57               		.cfi_startproc
  58               	/* prologue: function */
  59               	/* frame size = 0 */
  60               	/* stack size = 0 */
  61               	.L__stack_usage = 0
  62 0000 0895      		ret
  63               		.cfi_endproc
  64               	.LFE48:
  66               		.section	.text.rgblight_decrease_hue,"ax",@progbits
  67               		.weak	rgblight_decrease_hue
  69               	rgblight_decrease_hue:
  70               	.LFB46:
  71               		.cfi_startproc
  72               	/* prologue: function */
  73               	/* frame size = 0 */
  74               	/* stack size = 0 */
  75               	.L__stack_usage = 0
  76 0000 0895      		ret
  77               		.cfi_endproc
  78               	.LFE46:
  80               		.section	.text.rgblight_increase_sat,"ax",@progbits
  81               		.weak	rgblight_increase_sat
  83               	rgblight_increase_sat:
  84               	.LFB44:
  85               		.cfi_startproc
  86               	/* prologue: function */
  87               	/* frame size = 0 */
  88               	/* stack size = 0 */
  89               	.L__stack_usage = 0
  90 0000 0895      		ret
  91               		.cfi_endproc
  92               	.LFE44:
  94               		.section	.text.rgblight_decrease_sat,"ax",@progbits
  95               		.weak	rgblight_decrease_sat
  97               	rgblight_decrease_sat:
  98               	.LFB42:
  99               		.cfi_startproc
 100               	/* prologue: function */
 101               	/* frame size = 0 */
 102               	/* stack size = 0 */
 103               	.L__stack_usage = 0
 104 0000 0895      		ret
 105               		.cfi_endproc
 106               	.LFE42:
 108               		.section	.text.rgblight_increase_val,"ax",@progbits
 109               		.weak	rgblight_increase_val
 111               	rgblight_increase_val:
 112               	.LFB40:
 113               		.cfi_startproc
 114               	/* prologue: function */
 115               	/* frame size = 0 */
 116               	/* stack size = 0 */
 117               	.L__stack_usage = 0
 118 0000 0895      		ret
 119               		.cfi_endproc
 120               	.LFE40:
 122               		.section	.text.rgblight_decrease_val,"ax",@progbits
 123               		.weak	rgblight_decrease_val
 125               	rgblight_decrease_val:
 126               	.LFB38:
 127               		.cfi_startproc
 128               	/* prologue: function */
 129               	/* frame size = 0 */
 130               	/* stack size = 0 */
 131               	.L__stack_usage = 0
 132 0000 0895      		ret
 133               		.cfi_endproc
 134               	.LFE38:
 136               		.section	.text.rgblight_increase_speed,"ax",@progbits
 137               		.weak	rgblight_increase_speed
 139               	rgblight_increase_speed:
 140               	.LFB36:
 141               		.cfi_startproc
 142               	/* prologue: function */
 143               	/* frame size = 0 */
 144               	/* stack size = 0 */
 145               	.L__stack_usage = 0
 146 0000 0895      		ret
 147               		.cfi_endproc
 148               	.LFE36:
 150               		.section	.text.rgblight_decrease_speed,"ax",@progbits
 151               		.weak	rgblight_decrease_speed
 153               	rgblight_decrease_speed:
 154               	.LFB20:
 155               		.file 1 "./quantum/rgb.h"
   1:./quantum/rgb.h **** /* Copyright 2017 Jack Humbert
   2:./quantum/rgb.h ****  *
   3:./quantum/rgb.h ****  * This program is free software: you can redistribute it and/or modify
   4:./quantum/rgb.h ****  * it under the terms of the GNU General Public License as published by
   5:./quantum/rgb.h ****  * the Free Software Foundation, either version 2 of the License, or
   6:./quantum/rgb.h ****  * (at your option) any later version.
   7:./quantum/rgb.h ****  *
   8:./quantum/rgb.h ****  * This program is distributed in the hope that it will be useful,
   9:./quantum/rgb.h ****  * but WITHOUT ANY WARRANTY; without even the implied warranty of
  10:./quantum/rgb.h ****  * MERCHANTABILITY or FITNESS FOR A PARTICULAR PURPOSE.  See the
  11:./quantum/rgb.h ****  * GNU General Public License for more details.
  12:./quantum/rgb.h ****  *
  13:./quantum/rgb.h ****  * You should have received a copy of the GNU General Public License
  14:./quantum/rgb.h ****  * along with this program.  If not, see <http://www.gnu.org/licenses/>.
  15:./quantum/rgb.h ****  */
  16:./quantum/rgb.h **** 
  17:./quantum/rgb.h **** #ifndef RGB_H
  18:./quantum/rgb.h **** #define RGB_H
  19:./quantum/rgb.h **** 
  20:./quantum/rgb.h **** __attribute__((weak))
  21:./quantum/rgb.h **** void rgblight_toggle(void) {};
  22:./quantum/rgb.h **** 
  23:./quantum/rgb.h **** __attribute__((weak))
  24:./quantum/rgb.h **** void rgblight_step(void) {};
  25:./quantum/rgb.h **** 
  26:./quantum/rgb.h **** __attribute__((weak))
  27:./quantum/rgb.h **** void rgblight_step_reverse(void) {};
  28:./quantum/rgb.h **** 
  29:./quantum/rgb.h **** __attribute__((weak))
  30:./quantum/rgb.h **** void rgblight_increase_hue(void) {};
  31:./quantum/rgb.h **** 
  32:./quantum/rgb.h **** __attribute__((weak))
  33:./quantum/rgb.h **** void rgblight_decrease_hue(void) {};
  34:./quantum/rgb.h **** 
  35:./quantum/rgb.h **** __attribute__((weak))
  36:./quantum/rgb.h **** void rgblight_increase_sat(void) {};
  37:./quantum/rgb.h **** 
  38:./quantum/rgb.h **** __attribute__((weak))
  39:./quantum/rgb.h **** void rgblight_decrease_sat(void) {};
  40:./quantum/rgb.h **** 
  41:./quantum/rgb.h **** __attribute__((weak))
  42:./quantum/rgb.h **** void rgblight_increase_val(void) {};
  43:./quantum/rgb.h **** 
  44:./quantum/rgb.h **** __attribute__((weak))
  45:./quantum/rgb.h **** void rgblight_decrease_val(void) {};
  46:./quantum/rgb.h **** 
  47:./quantum/rgb.h **** __attribute__((weak))
  48:./quantum/rgb.h **** void rgblight_increase_speed(void) {};
  49:./quantum/rgb.h **** 
  50:./quantum/rgb.h **** __attribute__((weak))
  51:./quantum/rgb.h **** void rgblight_decrease_speed(void) {};
 156               		.loc 1 51 0
 157               		.cfi_startproc
 158               	/* prologue: function */
 159               	/* frame size = 0 */
 160               	/* stack size = 0 */
 161               	.L__stack_usage = 0
 162 0000 0895      		ret
 163               		.cfi_endproc
 164               	.LFE20:
 166               		.section	.text.persistent_default_layer_set,"ax",@progbits
 167               	.global	persistent_default_layer_set
 169               	persistent_default_layer_set:
 170               	.LFB28:
 171               		.file 2 "keyboards/Dactylv2/keymaps/Noah/keymap.c"
   1:keyboards/Dactylv2/keymaps/Noah/keymap.c **** #include "Dactyl.h"
   2:keyboards/Dactylv2/keymaps/Noah/keymap.c **** #include "action_layer.h"
   3:keyboards/Dactylv2/keymaps/Noah/keymap.c **** #include "eeconfig.h"
   4:keyboards/Dactylv2/keymaps/Noah/keymap.c **** 
   5:keyboards/Dactylv2/keymaps/Noah/keymap.c **** extern keymap_config_t keymap_config;
   6:keyboards/Dactylv2/keymaps/Noah/keymap.c **** #define _QWERTY 0
   7:keyboards/Dactylv2/keymaps/Noah/keymap.c **** #define _ALT 1
   8:keyboards/Dactylv2/keymaps/Noah/keymap.c **** #define _ALTSH 2
   9:keyboards/Dactylv2/keymaps/Noah/keymap.c **** #define _FN 3
  10:keyboards/Dactylv2/keymaps/Noah/keymap.c **** #define _SELECT 4
  11:keyboards/Dactylv2/keymaps/Noah/keymap.c **** #define _SELECT_ALT 5
  12:keyboards/Dactylv2/keymaps/Noah/keymap.c **** #define _SELECT_ALT_SHIFT 6
  13:keyboards/Dactylv2/keymaps/Noah/keymap.c **** #define _FN3 7
  14:keyboards/Dactylv2/keymaps/Noah/keymap.c **** 
  15:keyboards/Dactylv2/keymaps/Noah/keymap.c **** //#define _FN4 6
  16:keyboards/Dactylv2/keymaps/Noah/keymap.c **** enum {
  17:keyboards/Dactylv2/keymaps/Noah/keymap.c **** 	TD_CPY_PST = 0,
  18:keyboards/Dactylv2/keymaps/Noah/keymap.c **** 	TD_CMD,
  19:keyboards/Dactylv2/keymaps/Noah/keymap.c **** 	TD_SLSH,
  20:keyboards/Dactylv2/keymaps/Noah/keymap.c ****  	TD_VRDSK
  21:keyboards/Dactylv2/keymaps/Noah/keymap.c **** };
  22:keyboards/Dactylv2/keymaps/Noah/keymap.c **** enum custom_keycodes {
  23:keyboards/Dactylv2/keymaps/Noah/keymap.c **** 	ALT,
  24:keyboards/Dactylv2/keymaps/Noah/keymap.c **** 	ALTSH,
  25:keyboards/Dactylv2/keymaps/Noah/keymap.c **** 	CTR,
  26:keyboards/Dactylv2/keymaps/Noah/keymap.c **** 	SELECT,
  27:keyboards/Dactylv2/keymaps/Noah/keymap.c **** 	SELECT_ALT,
  28:keyboards/Dactylv2/keymaps/Noah/keymap.c **** 	SELECT_ALT_SHIFT,
  29:keyboards/Dactylv2/keymaps/Noah/keymap.c **** 	FN3,
  30:keyboards/Dactylv2/keymaps/Noah/keymap.c **** 	ADJUST,
  31:keyboards/Dactylv2/keymaps/Noah/keymap.c **** 	dance_cln_finished,
  32:keyboards/Dactylv2/keymaps/Noah/keymap.c **** 	KC_SPACETHING = SAFE_RANGE,
  33:keyboards/Dactylv2/keymaps/Noah/keymap.c **** 	KC_GUITAB
  34:keyboards/Dactylv2/keymaps/Noah/keymap.c **** };
  35:keyboards/Dactylv2/keymaps/Noah/keymap.c **** 
  36:keyboards/Dactylv2/keymaps/Noah/keymap.c **** #define KC_ KC_TRNS
  37:keyboards/Dactylv2/keymaps/Noah/keymap.c **** #define _______ KC_TRNS
  38:keyboards/Dactylv2/keymaps/Noah/keymap.c **** #define KC_CAPW LGUI(X_LSHIFT(KC_3))        // Capture whole screen
  39:keyboards/Dactylv2/keymaps/Noah/keymap.c **** #define KC_CPYW LGUI(X_LSHIFT(LCTL(KC_3)))  // Copy whole screen
  40:keyboards/Dactylv2/keymaps/Noah/keymap.c **** #define KC_CAPP LGUI(X_LSHIFT(KC_4))       // Capture portion of screen
  41:keyboards/Dactylv2/keymaps/Noah/keymap.c **** #define KC_CPYP LGUI(X_LSHIFT(LCTL(KC_4)))  // Copy portion of screen
  42:keyboards/Dactylv2/keymaps/Noah/keymap.c **** #define KC_X0 MT(MOD_LCTL, KC_ESC)
  43:keyboards/Dactylv2/keymaps/Noah/keymap.c **** #define KC_TOGUP TG(4)
  44:keyboards/Dactylv2/keymaps/Noah/keymap.c **** #define KC_REST RESET
  45:keyboards/Dactylv2/keymaps/Noah/keymap.c **** #define KC_MALT M(20) // MO(_ALT) // goes to alt layer when held, maybe behaves like regular alt
  46:keyboards/Dactylv2/keymaps/Noah/keymap.c **** #define KC_MSHIFT M(21) // MO(_ALTSH)
  47:keyboards/Dactylv2/keymaps/Noah/keymap.c **** #define KC_FN_L M(22) // LM(_FN, MOD_LCTL) // goes to ctrl layer when held, maybe behaves like regu
  48:keyboards/Dactylv2/keymaps/Noah/keymap.c **** #define KC_SEL_A M(23) // OSL(_SELECT) // turns on the select oneshot, turns off when any key is pr
  49:keyboards/Dactylv2/keymaps/Noah/keymap.c **** #define KC_SELALT LT(_SELECT_ALT, KC_LALT) // goes to the alt select layer, which can move around b
  50:keyboards/Dactylv2/keymaps/Noah/keymap.c **** #define KC_SELALTSHIFT MO(_SELECT_ALT_SHIFT) // when shift + alt held down in select mode.
  51:keyboards/Dactylv2/keymaps/Noah/keymap.c **** #define KC_FN3_A MO(_FN3)
  52:keyboards/Dactylv2/keymaps/Noah/keymap.c **** //#define KC_GUITAB RWIN_T(KC_TAB)
  53:keyboards/Dactylv2/keymaps/Noah/keymap.c **** #define KC_SHIFTSPC M(25)
  54:keyboards/Dactylv2/keymaps/Noah/keymap.c **** #define KC_RESTL M(24)
  55:keyboards/Dactylv2/keymaps/Noah/keymap.c **** 
  56:keyboards/Dactylv2/keymaps/Noah/keymap.c **** #define KC_X9 RGUI(KC_TAB)	//gui tab to switch desktops
  57:keyboards/Dactylv2/keymaps/Noah/keymap.c **** #define KC_X10 TD(TD_VRDSK)
  58:keyboards/Dactylv2/keymaps/Noah/keymap.c **** 
  59:keyboards/Dactylv2/keymaps/Noah/keymap.c **** #define KC_SAVE LCTL(KC_S)
  60:keyboards/Dactylv2/keymaps/Noah/keymap.c **** #define KC_COPY LCTL(KC_C)
  61:keyboards/Dactylv2/keymaps/Noah/keymap.c **** #define KC_S_COPY M(15)
  62:keyboards/Dactylv2/keymaps/Noah/keymap.c **** #define KC_S_CUT M(16)
  63:keyboards/Dactylv2/keymaps/Noah/keymap.c **** #define KC_CUT LCTL(KC_X)
  64:keyboards/Dactylv2/keymaps/Noah/keymap.c **** #define KC_PASTE LCTL(KC_V)
  65:keyboards/Dactylv2/keymaps/Noah/keymap.c **** #define KC_UNDO LCTL(KC_Z)
  66:keyboards/Dactylv2/keymaps/Noah/keymap.c **** #define KC_ALTENT LALT(KC_ENT)
  67:keyboards/Dactylv2/keymaps/Noah/keymap.c **** #define KC_REDO LCTL(LSFT(KC_Z))
  68:keyboards/Dactylv2/keymaps/Noah/keymap.c **** #define KC_FORMAT LALT(LSFT(KC_L))
  69:keyboards/Dactylv2/keymaps/Noah/keymap.c **** #define KC_DIR LALT(LSFT(KC_D))
  70:keyboards/Dactylv2/keymaps/Noah/keymap.c **** #define KC_OPEN LALT(LSFT(KC_O))
  71:keyboards/Dactylv2/keymaps/Noah/keymap.c **** #define KC_FINDA LALT(LSFT(KC_F))
  72:keyboards/Dactylv2/keymaps/Noah/keymap.c **** #define KC_OOG LALT(LSFT(KC_4)) // Open in oposite group intellij
  73:keyboards/Dactylv2/keymaps/Noah/keymap.c **** #define KC_RUN LALT(LCTL(KC_R)) // Run on cursor intellij
  74:keyboards/Dactylv2/keymaps/Noah/keymap.c **** #define KC_DEBUG LALT(LCTL(KC_D)) // Debug on cursor intellij
  75:keyboards/Dactylv2/keymaps/Noah/keymap.c **** #define KC_MVRT LALT(KC_4) // Move window right (do a split) in intellij
  76:keyboards/Dactylv2/keymaps/Noah/keymap.c **** #define KC_MVGRP LALT(LSFT(KC_4)) // Alternate the group of the window in intellij
  77:keyboards/Dactylv2/keymaps/Noah/keymap.c **** #define KC_CLOSE LCTL(KC_W)
  78:keyboards/Dactylv2/keymaps/Noah/keymap.c **** #define KC_REP LCTL(KC_R)
  79:keyboards/Dactylv2/keymaps/Noah/keymap.c **** #define KC_REPA LALT(LSFT(KC_R))
  80:keyboards/Dactylv2/keymaps/Noah/keymap.c **** #define KC_OPG LALT(KC_S) // Move to the opposite group intellij
  81:keyboards/Dactylv2/keymaps/Noah/keymap.c **** #define KC_FIND LCTL(KC_F)
  82:keyboards/Dactylv2/keymaps/Noah/keymap.c **** #define KC_P_TAB LCTL(KC_PGUP)
  83:keyboards/Dactylv2/keymaps/Noah/keymap.c **** #define KC_N_TAB LCTL(KC_PGDN)
  84:keyboards/Dactylv2/keymaps/Noah/keymap.c **** #define KC_PTAB LALT(KC_LBRC)
  85:keyboards/Dactylv2/keymaps/Noah/keymap.c **** #define KC_NTAB LALT(KC_RBRC)
  86:keyboards/Dactylv2/keymaps/Noah/keymap.c **** 
  87:keyboards/Dactylv2/keymaps/Noah/keymap.c **** #define KC_SELALL LCTL(KC_A)
  88:keyboards/Dactylv2/keymaps/Noah/keymap.c **** 
  89:keyboards/Dactylv2/keymaps/Noah/keymap.c **** #define KC_SEL_L M(0)
  90:keyboards/Dactylv2/keymaps/Noah/keymap.c **** #define KC_SEL_R M(1)
  91:keyboards/Dactylv2/keymaps/Noah/keymap.c **** #define KC_SEL_U M(2)
  92:keyboards/Dactylv2/keymaps/Noah/keymap.c **** #define KC_SEL_D M(3)
  93:keyboards/Dactylv2/keymaps/Noah/keymap.c **** #define KC_SEL_L_WRD M(4)
  94:keyboards/Dactylv2/keymaps/Noah/keymap.c **** #define KC_SEL_R_WRD M(5)
  95:keyboards/Dactylv2/keymaps/Noah/keymap.c **** #define KC_SEL_PG_UP M(6)
  96:keyboards/Dactylv2/keymaps/Noah/keymap.c **** #define KC_SEL_PG_D M(7)
  97:keyboards/Dactylv2/keymaps/Noah/keymap.c **** 
  98:keyboards/Dactylv2/keymaps/Noah/keymap.c **** #define KC_SEL_HOME M(8)
  99:keyboards/Dactylv2/keymaps/Noah/keymap.c **** #define KC_SEL_END M(9)
 100:keyboards/Dactylv2/keymaps/Noah/keymap.c **** 
 101:keyboards/Dactylv2/keymaps/Noah/keymap.c **** #define KC_L_WRD M(10)
 102:keyboards/Dactylv2/keymaps/Noah/keymap.c **** #define KC_R_WRD M(11)
 103:keyboards/Dactylv2/keymaps/Noah/keymap.c **** 
 104:keyboards/Dactylv2/keymaps/Noah/keymap.c **** #define KC_B_WRD M(12)
 105:keyboards/Dactylv2/keymaps/Noah/keymap.c **** 
 106:keyboards/Dactylv2/keymaps/Noah/keymap.c **** // #define MOVE X_LALT // mac
 107:keyboards/Dactylv2/keymaps/Noah/keymap.c **** #define MOVE X_LCTRL // linux/windows
 108:keyboards/Dactylv2/keymaps/Noah/keymap.c **** 
 109:keyboards/Dactylv2/keymaps/Noah/keymap.c **** #define KC_AG_NORM AG_NORM
 110:keyboards/Dactylv2/keymaps/Noah/keymap.c **** 
 111:keyboards/Dactylv2/keymaps/Noah/keymap.c **** 
 112:keyboards/Dactylv2/keymaps/Noah/keymap.c **** const uint16_t PROGMEM keymaps[][MATRIX_ROWS][MATRIX_COLS] = {
 113:keyboards/Dactylv2/keymaps/Noah/keymap.c **** /* Keymap 0: Basic layer
 114:keyboards/Dactylv2/keymaps/Noah/keymap.c ****  *
 115:keyboards/Dactylv2/keymaps/Noah/keymap.c ****  * ,-------------------------------------------.           ,----------------------------------_----
 116:keyboards/Dactylv2/keymaps/Noah/keymap.c ****  * |   =    |   1  |   2  |   3  |   4  |   5  |           |   6  |   7  |   8  |   9  |   0  |   -
 117:keyboards/Dactylv2/keymaps/Noah/keymap.c ****  * |--------+------+------+------+------+------|           |------+------+------+------+------|----
 118:keyboards/Dactylv2/keymaps/Noah/keymap.c ****  * |Tab\FN3 |   Q  |   W  |   F  |   P  |   G  |           |   J  |   L  |   U  |   Y  |   :  |   \
 119:keyboards/Dactylv2/keymaps/Noah/keymap.c ****  * |--------+------+------+------+------+----- |           |------+------+------+------+------|----
 120:keyboards/Dactylv2/keymaps/Noah/keymap.c ****  * | ENT/ADJ|   A  |   R  |   S  |   T  |   D  |           |   H  |   N  |   E  |   I  |   O  | ENT
 121:keyboards/Dactylv2/keymaps/Noah/keymap.c ****  * |--------+------+------+------+------+------|           |------+------+------+------+------|----
 122:keyboards/Dactylv2/keymaps/Noah/keymap.c ****  * | LShift |   Z  |   X  |   C  |   V  |   B  |           |   K  |   M  |   ,  |   .  |  /   |RShi
 123:keyboards/Dactylv2/keymaps/Noah/keymap.c ****  * `--------+------+------+------+------+------'           `-------+------+------+------+------|---
 124:keyboards/Dactylv2/keymaps/Noah/keymap.c ****  * |CTR     |  ALT | GUI  | Left | Right|    1                1   | LEFT | RIGHT|  UP  | DOWN  | ~L
 125:keyboards/Dactylv2/keymaps/Noah/keymap.c ****  * `----------------------------------'                          `---------------------------------
 126:keyboards/Dactylv2/keymaps/Noah/keymap.c ****  *				6	5		4	   3		2				2		 3		4		5		6
 127:keyboards/Dactylv2/keymaps/Noah/keymap.c ****  *                                 ,-------------.       ,-------------.
 128:keyboards/Dactylv2/keymaps/Noah/keymap.c ****  *                                 |   6  |   5  |       | 5    |  6     |
 129:keyboards/Dactylv2/keymaps/Noah/keymap.c ****  *                          ,------|------|------|       |------+--------+------.
 130:keyboards/Dactylv2/keymaps/Noah/keymap.c ****  *                          |   1  |  2    |   4  |       | 4    |        |      |
 131:keyboards/Dactylv2/keymaps/Noah/keymap.c ****  *                          |Backsp|GUI   |------|       |------|    1   |    2 |
 132:keyboards/Dactylv2/keymaps/Noah/keymap.c ****  *                          |  acs |TAB   |   3  |       | 3    |        |      |
 133:keyboards/Dactylv2/keymaps/Noah/keymap.c ****  *                         `--------------------'       `----------------------'
 134:keyboards/Dactylv2/keymaps/Noah/keymap.c **** 
 135:keyboards/Dactylv2/keymaps/Noah/keymap.c **** 
 136:keyboards/Dactylv2/keymaps/Noah/keymap.c **** 
 137:keyboards/Dactylv2/keymaps/Noah/keymap.c ****  */
 138:keyboards/Dactylv2/keymaps/Noah/keymap.c **** 
 139:keyboards/Dactylv2/keymaps/Noah/keymap.c ****     //
 140:keyboards/Dactylv2/keymaps/Noah/keymap.c **** 	[_QWERTY] = KC_KEYMAP(
 141:keyboards/Dactylv2/keymaps/Noah/keymap.c **** 	//,----+----+----+----+----+----.										,----+----+----+----+----+----.
 142:keyboards/Dactylv2/keymaps/Noah/keymap.c **** 	  GRV  , 1  , 2  , 3  , 4  , 5  ,     									 6  , 7  , 8  , 9   , 0  , EQL,
 143:keyboards/Dactylv2/keymaps/Noah/keymap.c **** 	//,----+----+----+----+----+----.										,----+----+----+----+----+----.
 144:keyboards/Dactylv2/keymaps/Noah/keymap.c **** 		TAB , Q  , W  , E  , R  , T  ,    									  Y  , U  , I  , O , P  , MINS,
 145:keyboards/Dactylv2/keymaps/Noah/keymap.c **** 	//|----+----+----+----+----+----|   									|----+----+----+----+----+----|
 146:keyboards/Dactylv2/keymaps/Noah/keymap.c ****       CLCK, A  , S  , D  , F  , G  ,								      H  , J  , K  , L  ,SCLN,QUOT,
 147:keyboards/Dactylv2/keymaps/Noah/keymap.c **** 	//|----+----+----+----+----+----|										|----+----+----+----+----+----|
 148:keyboards/Dactylv2/keymaps/Noah/keymap.c **** 		MSHIFT, Z  , X  , C  , V  , B  ,										    N  , M  ,COMM,DOT,SLSH,ENT,
 149:keyboards/Dactylv2/keymaps/Noah/keymap.c **** 	//|----+----+----+----+----+----|										|----+----+----+----+----+----|
 150:keyboards/Dactylv2/keymaps/Noah/keymap.c **** 	  FN3_A,LCTRL,LWIN,MSHIFT,LALT,   ,										     ,LBRC,RBRC,LCTRL,BSLS,   ,
 151:keyboards/Dactylv2/keymaps/Noah/keymap.c **** 	//`----+----+----+----+----+----'   									 `----+----+----+----+----+----'
 152:keyboards/Dactylv2/keymaps/Noah/keymap.c **** 	//							`----+----+----+'			`----+----+----'
 153:keyboards/Dactylv2/keymaps/Noah/keymap.c **** 										ESC,F6,			 FORMAT, DEL,
 154:keyboards/Dactylv2/keymaps/Noah/keymap.c **** 	//							`----+----+----+'			`----+----+----'
 155:keyboards/Dactylv2/keymaps/Noah/keymap.c **** 											HOME,			PGUP,
 156:keyboards/Dactylv2/keymaps/Noah/keymap.c **** 	//							`----+----+----+'			`----+----+----'
 157:keyboards/Dactylv2/keymaps/Noah/keymap.c **** 							    MALT, GUITAB,END,			    PGDN, BSPC, SPACETHING
 158:keyboards/Dactylv2/keymaps/Noah/keymap.c **** 	//							`----+----+----+'			`----+----+----'
 159:keyboards/Dactylv2/keymaps/Noah/keymap.c **** 
 160:keyboards/Dactylv2/keymaps/Noah/keymap.c **** 	),
 161:keyboards/Dactylv2/keymaps/Noah/keymap.c **** 	[_ALT] = KC_KEYMAP(
 162:keyboards/Dactylv2/keymaps/Noah/keymap.c **** 	//,----+----+----+----+----+----.  								  ,----+----+----+----+----+----.
 163:keyboards/Dactylv2/keymaps/Noah/keymap.c **** 		   ,    ,    ,    ,MVRT,    ,   							      ,    ,    ,     ,   ,    ,
 164:keyboards/Dactylv2/keymaps/Noah/keymap.c **** 	//|----+----+----+----+----+----|   							 |----+----+----+----+----+----|
 165:keyboards/Dactylv2/keymaps/Noah/keymap.c **** 		   ,    ,CLOSE,B_WRD,REP,    ,   							      ,L_WRD,UP ,R_WRD,    ,    ,
 166:keyboards/Dactylv2/keymaps/Noah/keymap.c **** 	//|----+----+----+----+----+----|   							 |----+----+----+----+----+----|
 167:keyboards/Dactylv2/keymaps/Noah/keymap.c **** 	   ,SELALL,SAVE,    ,FIND,    ,     							  END ,LEFT,DOWN,RIGHT,     ,   ,
 168:keyboards/Dactylv2/keymaps/Noah/keymap.c **** 	//|----+----+----+----+----+----|   							 |----+----+----+----+----+----|
 169:keyboards/Dactylv2/keymaps/Noah/keymap.c ****   MSHIFT , UNDO , CUT,COPY,PASTE,  ,							      ,    ,    ,    ,    ,  ALTENT,
 170:keyboards/Dactylv2/keymaps/Noah/keymap.c **** 	//|----+----+----+----+----+----|   							 |----+----+----+----+----+----|
 171:keyboards/Dactylv2/keymaps/Noah/keymap.c ****       ,    ,    ,MSHIFT,   ,   ,    						                  ,PTAB,NTAB,    ,    ,     ,
 172:keyboards/Dactylv2/keymaps/Noah/keymap.c **** 	//|----+----+----+----+----+----|  								  |----+----+----+----+----+----|
 173:keyboards/Dactylv2/keymaps/Noah/keymap.c **** 	//							`----+----+----+'			`----+----+----'
 174:keyboards/Dactylv2/keymaps/Noah/keymap.c **** 										  ,    ,			 RUN,DEBUG,
 175:keyboards/Dactylv2/keymaps/Noah/keymap.c **** 	//							`----+----+----+'			`----+----+----'
 176:keyboards/Dactylv2/keymaps/Noah/keymap.c **** 											   ,			     ,
 177:keyboards/Dactylv2/keymaps/Noah/keymap.c **** 	//							`----+----+----+'			`----+----+----'
 178:keyboards/Dactylv2/keymaps/Noah/keymap.c **** 									,     ,    ,			     ,    ,SEL_A
 179:keyboards/Dactylv2/keymaps/Noah/keymap.c **** 	//							`----+----+----+'			`----+----+----'
 180:keyboards/Dactylv2/keymaps/Noah/keymap.c **** 	),
 181:keyboards/Dactylv2/keymaps/Noah/keymap.c **** 
 182:keyboards/Dactylv2/keymaps/Noah/keymap.c **** 	[_ALTSH] = KC_KEYMAP(
 183:keyboards/Dactylv2/keymaps/Noah/keymap.c **** 	//,----+----+----+----+----+----.  								  ,----+----+----+----+----+----.
 184:keyboards/Dactylv2/keymaps/Noah/keymap.c **** 		   ,    ,    ,    ,MVGRP ,    ,   							      ,    ,    ,     ,   ,    ,
 185:keyboards/Dactylv2/keymaps/Noah/keymap.c **** 	//|----+----+----+----+----+----|   							 |----+----+----+----+----+----|
 186:keyboards/Dactylv2/keymaps/Noah/keymap.c **** 		   ,    ,    ,    ,REPA,    ,   							      ,    ,PGUP,OPEN,    ,    ,
 187:keyboards/Dactylv2/keymaps/Noah/keymap.c **** 	//|----+----+----+----+----+----|   							 |----+----+----+----+----+----|
 188:keyboards/Dactylv2/keymaps/Noah/keymap.c **** 		   ,    ,    ,DIR,FINDA,    ,     							  HOME,    ,PGDN,    ,     ,   ,
 189:keyboards/Dactylv2/keymaps/Noah/keymap.c **** 	//|----+----+----+----+----+----|   							 |----+----+----+----+----+----|
 190:keyboards/Dactylv2/keymaps/Noah/keymap.c **** 		  ,REDO ,  ,    ,   RUN,DEBUG,							         ,    ,    ,    ,    ,   ,
 191:keyboards/Dactylv2/keymaps/Noah/keymap.c **** 	//|----+----+----+----+----+----|   							 |----+----+----+----+----+----|
 192:keyboards/Dactylv2/keymaps/Noah/keymap.c **** 		   ,    ,    ,    ,    ,    ,    						          ,,   ,    ,    ,     ,
 193:keyboards/Dactylv2/keymaps/Noah/keymap.c **** 	//|----+----+----+----+----+----|  								  |----+----+----+----+----+----|
 194:keyboards/Dactylv2/keymaps/Noah/keymap.c **** 	//							`----+----+----+'			`----+----+----'
 195:keyboards/Dactylv2/keymaps/Noah/keymap.c **** 										  ,    ,			 RUN,DEBUG,
 196:keyboards/Dactylv2/keymaps/Noah/keymap.c **** 	//							`----+----+----+'			`----+----+----'
 197:keyboards/Dactylv2/keymaps/Noah/keymap.c **** 											   ,			     ,
 198:keyboards/Dactylv2/keymaps/Noah/keymap.c **** 	//							`----+----+----+'			`----+----+----'
 199:keyboards/Dactylv2/keymaps/Noah/keymap.c **** 							     MALT,     ,    ,			     ,    ,
 200:keyboards/Dactylv2/keymaps/Noah/keymap.c **** 	//							`----+----+----+'			`----+----+----'
 201:keyboards/Dactylv2/keymaps/Noah/keymap.c **** 	),
 202:keyboards/Dactylv2/keymaps/Noah/keymap.c **** 
 203:keyboards/Dactylv2/keymaps/Noah/keymap.c **** 	[_FN] = KC_KEYMAP(
 204:keyboards/Dactylv2/keymaps/Noah/keymap.c **** 	//,----+----+----+----+----+----.  								  ,----+----+----+----+----+----.
 205:keyboards/Dactylv2/keymaps/Noah/keymap.c **** 		   ,    ,    ,    ,    ,    ,   							      ,    ,    ,     ,   ,    ,
 206:keyboards/Dactylv2/keymaps/Noah/keymap.c **** 	//|----+----+----+----+----+----|   							 |----+----+----+----+----+----|
 207:keyboards/Dactylv2/keymaps/Noah/keymap.c **** 		   ,    ,    ,    ,    ,    ,   							      ,    ,    ,    ,    ,    ,
 208:keyboards/Dactylv2/keymaps/Noah/keymap.c **** 	//|----+----+----+----+----+----|   							 |----+----+----+----+----+----|
 209:keyboards/Dactylv2/keymaps/Noah/keymap.c **** 		   ,    ,    ,    ,    ,    ,     							      ,    ,    ,    , OPG ,   ,
 210:keyboards/Dactylv2/keymaps/Noah/keymap.c **** 	//|----+----+----+----+----+----|   							 |----+----+----+----+----+----|
 211:keyboards/Dactylv2/keymaps/Noah/keymap.c **** 		  ,  ,  ,    ,    ,    ,							         ,    ,    ,    ,    ,   ,
 212:keyboards/Dactylv2/keymaps/Noah/keymap.c **** 	//|----+----+----+----+----+----|   							 |----+----+----+----+----+----|
 213:keyboards/Dactylv2/keymaps/Noah/keymap.c **** 		    ,    ,    ,,   ,   ,    						          ,,   ,    ,    ,     ,
 214:keyboards/Dactylv2/keymaps/Noah/keymap.c **** 	//|----+----+----+----+----+----|  								  |----+----+----+----+----+----|
 215:keyboards/Dactylv2/keymaps/Noah/keymap.c **** 	//							`----+----+----+'			`----+----+----'
 216:keyboards/Dactylv2/keymaps/Noah/keymap.c **** 										  ,    ,			     ,    ,
 217:keyboards/Dactylv2/keymaps/Noah/keymap.c **** 	//							`----+----+----+'			`----+----+----'
 218:keyboards/Dactylv2/keymaps/Noah/keymap.c **** 											   ,			     ,
 219:keyboards/Dactylv2/keymaps/Noah/keymap.c **** 	//							`----+----+----+'			`----+----+----'
 220:keyboards/Dactylv2/keymaps/Noah/keymap.c **** 									,     ,    ,			     ,P_TAB,N_TAB
 221:keyboards/Dactylv2/keymaps/Noah/keymap.c **** 	//							`----+----+----+'			`----+----+----'
 222:keyboards/Dactylv2/keymaps/Noah/keymap.c **** 	),
 223:keyboards/Dactylv2/keymaps/Noah/keymap.c **** 
 224:keyboards/Dactylv2/keymaps/Noah/keymap.c ****     [_SELECT] = KC_KEYMAP(
 225:keyboards/Dactylv2/keymaps/Noah/keymap.c **** 	//,----+----+----+----+----+----.  								  ,----+----+----+----+----+----.
 226:keyboards/Dactylv2/keymaps/Noah/keymap.c **** 	       ,    ,    ,    ,    ,    ,   							       ,    ,    ,    ,    ,    ,
 227:keyboards/Dactylv2/keymaps/Noah/keymap.c **** 	//|----+----+----+----+----+----|   							 |----+----+----+----+----+----|
 228:keyboards/Dactylv2/keymaps/Noah/keymap.c **** 	       ,    ,    ,    ,    ,    ,   							       ,    ,    ,    ,    ,    ,
 229:keyboards/Dactylv2/keymaps/Noah/keymap.c **** 	//|----+----+----+----+----+----|   							 |----+----+----+----+----+----|
 230:keyboards/Dactylv2/keymaps/Noah/keymap.c **** 	       ,    ,    ,    ,    ,    ,   							       ,    ,    ,    ,    ,    ,
 231:keyboards/Dactylv2/keymaps/Noah/keymap.c **** 	//|----+----+----+----+----+----|   							 |----+----+----+----+----+----|
 232:keyboards/Dactylv2/keymaps/Noah/keymap.c ****      MSHIFT,   , ,  ,  ,    ,   							       ,    ,    ,    ,    ,    ,
 233:keyboards/Dactylv2/keymaps/Noah/keymap.c **** 	//|----+----+----+----+----+----|   							 |----+----+----+----+----+----|
 234:keyboards/Dactylv2/keymaps/Noah/keymap.c **** 	       ,    ,    ,MSHIFT,    ,    ,   							       ,    ,    ,    ,    ,    ,
 235:keyboards/Dactylv2/keymaps/Noah/keymap.c **** 	//|----+----+----+----+----+----|  								  |----+----+----+----+----+----|
 236:keyboards/Dactylv2/keymaps/Noah/keymap.c **** 	//							`----+----+----+'			`----+----+----'
 237:keyboards/Dactylv2/keymaps/Noah/keymap.c **** 									    ,    ,			         ,    ,
 238:keyboards/Dactylv2/keymaps/Noah/keymap.c **** 	//							`----+----+----+'			`----+----+----'
 239:keyboards/Dactylv2/keymaps/Noah/keymap.c **** 											    ,			     ,
 240:keyboards/Dactylv2/keymaps/Noah/keymap.c **** 	//							`----+----+----+'			`----+----+----'
 241:keyboards/Dactylv2/keymaps/Noah/keymap.c **** 							      MALT,    ,    ,			     ,    ,
 242:keyboards/Dactylv2/keymaps/Noah/keymap.c **** 	//							`----+----+----+'			`----+----+----'
 243:keyboards/Dactylv2/keymaps/Noah/keymap.c **** 	),
 244:keyboards/Dactylv2/keymaps/Noah/keymap.c **** 
 245:keyboards/Dactylv2/keymaps/Noah/keymap.c **** 	[_SELECT_ALT] = KC_KEYMAP(
 246:keyboards/Dactylv2/keymaps/Noah/keymap.c **** 	//,----+----+----+----+----+----.  								  ,----+----+----+----+----+----.
 247:keyboards/Dactylv2/keymaps/Noah/keymap.c **** 	       ,    ,    ,    ,    ,    ,   							       ,    ,    ,    ,    ,    ,
 248:keyboards/Dactylv2/keymaps/Noah/keymap.c **** 	//|----+----+----+----+----+----|   							 |----+----+----+----+----+----|
 249:keyboards/Dactylv2/keymaps/Noah/keymap.c **** 	       ,    ,    ,    ,    ,    ,   							      ,SEL_L_WRD,SEL_U,SEL_R_WRD,    ,    ,
 250:keyboards/Dactylv2/keymaps/Noah/keymap.c **** 	//|----+----+----+----+----+----|   							 |----+----+----+----+----+----|
 251:keyboards/Dactylv2/keymaps/Noah/keymap.c **** 	       ,    ,    ,    ,    ,    ,     							  SEL_END,SEL_L,SEL_D,SEL_R,    ,    ,
 252:keyboards/Dactylv2/keymaps/Noah/keymap.c **** 	//|----+----+----+----+----+----|   							 |----+----+----+----+----+----|
 253:keyboards/Dactylv2/keymaps/Noah/keymap.c **** 	 MSHIFT,UNDO ,S_CUT ,S_COPY ,PASTE ,    ,   							       ,    ,    ,    ,    ,    ,
 254:keyboards/Dactylv2/keymaps/Noah/keymap.c **** 	//|----+----+----+----+----+----|   							 |----+----+----+----+----+----|
 255:keyboards/Dactylv2/keymaps/Noah/keymap.c **** 	       ,    ,    ,SELALTSHIFT,    ,    ,   							       ,    ,    ,    ,    ,    ,
 256:keyboards/Dactylv2/keymaps/Noah/keymap.c **** 	//|----+----+----+----+----+----|  								  |----+----+----+----+----+----|
 257:keyboards/Dactylv2/keymaps/Noah/keymap.c **** 	//							`----+----+----+'			`----+----+----'
 258:keyboards/Dactylv2/keymaps/Noah/keymap.c **** 									    ,    ,			         ,    ,
 259:keyboards/Dactylv2/keymaps/Noah/keymap.c **** 	//							`----+----+----+'			`----+----+----'
 260:keyboards/Dactylv2/keymaps/Noah/keymap.c **** 											    ,			     ,
 261:keyboards/Dactylv2/keymaps/Noah/keymap.c **** 	//							`----+----+----+'			`----+----+----'
 262:keyboards/Dactylv2/keymaps/Noah/keymap.c **** 								MALT,     ,    ,			     ,    ,
 263:keyboards/Dactylv2/keymaps/Noah/keymap.c **** 	//							`----+----+----+'			`----+----+----'
 264:keyboards/Dactylv2/keymaps/Noah/keymap.c **** 	),
 265:keyboards/Dactylv2/keymaps/Noah/keymap.c **** 
 266:keyboards/Dactylv2/keymaps/Noah/keymap.c ****     [_SELECT_ALT_SHIFT] = KC_KEYMAP(
 267:keyboards/Dactylv2/keymaps/Noah/keymap.c **** 	//,----+----+----+----+----+----.  								  ,----+----+----+----+----+----.
 268:keyboards/Dactylv2/keymaps/Noah/keymap.c **** 	       ,    ,    ,    ,    ,    ,   							       ,    ,    ,    ,    ,    ,
 269:keyboards/Dactylv2/keymaps/Noah/keymap.c **** 	//|----+----+----+----+----+----|   							 |----+----+----+----+----+----|
 270:keyboards/Dactylv2/keymaps/Noah/keymap.c **** 	       ,    ,    ,    ,    ,    ,   							       ,    ,  SEL_PG_UP  , ,    ,    ,
 271:keyboards/Dactylv2/keymaps/Noah/keymap.c **** 	//|----+----+----+----+----+----|   							 |----+----+----+----+----+----|
 272:keyboards/Dactylv2/keymaps/Noah/keymap.c **** 	       ,    ,    ,    ,    ,    ,     							  SEL_HOME,     ,  SEL_PG_D ,    ,    ,    ,
 273:keyboards/Dactylv2/keymaps/Noah/keymap.c **** 	//|----+----+----+----+----+----|   							 |----+----+----+----+----+----|
 274:keyboards/Dactylv2/keymaps/Noah/keymap.c **** 	       ,    ,    ,    ,    ,    ,   							       ,    ,    ,    ,    ,    ,
 275:keyboards/Dactylv2/keymaps/Noah/keymap.c **** 	//|----+----+----+----+----+----|   							 |----+----+----+----+----+----|
 276:keyboards/Dactylv2/keymaps/Noah/keymap.c **** 	       ,    ,    ,    ,    ,    ,   							      ,    ,    ,    ,    ,    ,
 277:keyboards/Dactylv2/keymaps/Noah/keymap.c **** 	//|----+----+----+----+----+----|  								  |----+----+----+----+----+----|
 278:keyboards/Dactylv2/keymaps/Noah/keymap.c **** 	//							`----+----+----+'			`----+----+----'
 279:keyboards/Dactylv2/keymaps/Noah/keymap.c **** 									    ,    ,			         ,    ,
 280:keyboards/Dactylv2/keymaps/Noah/keymap.c **** 	//							`----+----+----+'			`----+----+----'
 281:keyboards/Dactylv2/keymaps/Noah/keymap.c **** 											    ,			     ,
 282:keyboards/Dactylv2/keymaps/Noah/keymap.c **** 	//							`----+----+----+'			`----+----+----'
 283:keyboards/Dactylv2/keymaps/Noah/keymap.c **** 								 MALT,     ,    ,			     ,    ,
 284:keyboards/Dactylv2/keymaps/Noah/keymap.c **** 	//							`----+----+----+'			`----+----+----'
 285:keyboards/Dactylv2/keymaps/Noah/keymap.c **** 	),
 286:keyboards/Dactylv2/keymaps/Noah/keymap.c **** 
 287:keyboards/Dactylv2/keymaps/Noah/keymap.c **** 	
 288:keyboards/Dactylv2/keymaps/Noah/keymap.c **** 	
 289:keyboards/Dactylv2/keymaps/Noah/keymap.c **** 	[_FN3] = KC_KEYMAP(
 290:keyboards/Dactylv2/keymaps/Noah/keymap.c **** 	//,----+----+----+----+----+----.    ,----+----+----+----+----+----.
 291:keyboards/Dactylv2/keymaps/Noah/keymap.c **** 		F12 , F1 , F2 , F3 , F4 , F5 ,      F6 , F7 , F8 , F9 ,F10 ,F11 ,
 292:keyboards/Dactylv2/keymaps/Noah/keymap.c **** 	//|----+----+----+----+----+----|    |----+----+----+----+----+----|
 293:keyboards/Dactylv2/keymaps/Noah/keymap.c **** 	  ,    ,    ,    ,   ,     ,         ,    ,    ,    ,    ,    ,
 294:keyboards/Dactylv2/keymaps/Noah/keymap.c **** 	//|----+----+----+----+----+----|    |----+----+----+----+----+----|
 295:keyboards/Dactylv2/keymaps/Noah/keymap.c **** 			,    ,   ,    ,    ,    ,         ,    ,    ,    ,     ,    ,
 296:keyboards/Dactylv2/keymaps/Noah/keymap.c **** 	//|----+----+----+----+----+----|    |----+----+----+----+----+----|
 297:keyboards/Dactylv2/keymaps/Noah/keymap.c **** 		REST,AG_NORM,RESTL,    ,    ,    ,   ,    ,    ,   ,   ,      ,
 298:keyboards/Dactylv2/keymaps/Noah/keymap.c **** 	//`----+----+----+----+----+----'    `----+----+----+----+----+----'
 299:keyboards/Dactylv2/keymaps/Noah/keymap.c **** 		   ,    ,   ,     ,  ,   ,            ,    ,    ,    ,    ,    ,
 300:keyboards/Dactylv2/keymaps/Noah/keymap.c **** 	//`----+----+----+----+----+----'    `----+----+----+----+----+----'
 301:keyboards/Dactylv2/keymaps/Noah/keymap.c **** //		X3  , 1  , 2  , 3  , 4  , 5  ,      6  , 7  , 8  , 9 , 0  ,MINS,
 302:keyboards/Dactylv2/keymaps/Noah/keymap.c **** 	//							`----+----+----+'			`----+----+----'
 303:keyboards/Dactylv2/keymaps/Noah/keymap.c **** 										  ,    ,			     ,    ,
 304:keyboards/Dactylv2/keymaps/Noah/keymap.c **** 	//							`----+----+----+'			`----+----+----'
 305:keyboards/Dactylv2/keymaps/Noah/keymap.c **** 											   ,			     ,
 306:keyboards/Dactylv2/keymaps/Noah/keymap.c **** 	//							`----+----+----+'			`----+----+----'
 307:keyboards/Dactylv2/keymaps/Noah/keymap.c **** 									 ,    ,    ,			     , SPC, SPC
 308:keyboards/Dactylv2/keymaps/Noah/keymap.c **** 	//							`----+----+----+'			`----+----+----'
 309:keyboards/Dactylv2/keymaps/Noah/keymap.c **** 
 310:keyboards/Dactylv2/keymaps/Noah/keymap.c **** 	//`----+----+----+----+----+----'    `----+----+----+----+----+----'
 311:keyboards/Dactylv2/keymaps/Noah/keymap.c **** 	),
 312:keyboards/Dactylv2/keymaps/Noah/keymap.c **** /*
 313:keyboards/Dactylv2/keymaps/Noah/keymap.c **** 	[_FN4] = KEYMAP( \
 314:keyboards/Dactylv2/keymaps/Noah/keymap.c **** 	_______, _______, M(3)   , M(2)     , _______,  M(4)  ,		 _______, _______, _______, _______, ____
 315:keyboards/Dactylv2/keymaps/Noah/keymap.c **** 	_______, M(6)   , _______, _______  , _______, _______,		 _______, _______, _______, _______, ____
 316:keyboards/Dactylv2/keymaps/Noah/keymap.c **** 	_______, _______, M(1)   ,TD(TD_CMD), _______, _______,		 _______, _______, _______, _______, KC_U
 317:keyboards/Dactylv2/keymaps/Noah/keymap.c **** 	M(7)   , M(8)   , M(9)   , _______  , _______, _______,		 _______, _______, _______, KC_LEFT, KC_D
 318:keyboards/Dactylv2/keymaps/Noah/keymap.c **** 	_______, _______, _______, _______  , _______, _______,		 _______, _______, _______, _______, ____
 319:keyboards/Dactylv2/keymaps/Noah/keymap.c **** 	_______, _______ , _______, _______  , _______, _______,	 _______, _______, _______, _______, ____
 320:keyboards/Dactylv2/keymaps/Noah/keymap.c **** 	),*/
 321:keyboards/Dactylv2/keymaps/Noah/keymap.c **** 
 322:keyboards/Dactylv2/keymaps/Noah/keymap.c **** };
 323:keyboards/Dactylv2/keymaps/Noah/keymap.c **** 
 324:keyboards/Dactylv2/keymaps/Noah/keymap.c **** #ifdef AUDIO_ENABLE
 325:keyboards/Dactylv2/keymaps/Noah/keymap.c **** float tone_qwerty[][2]     = SONG(QWERTY_SOUND);
 326:keyboards/Dactylv2/keymaps/Noah/keymap.c **** float tone_dvorak[][2]     = SONG(DVORAK_SOUND);
 327:keyboards/Dactylv2/keymaps/Noah/keymap.c **** float tone_colemak[][2]    = SONG(COLEMAK_SOUND);
 328:keyboards/Dactylv2/keymaps/Noah/keymap.c **** #endif
 329:keyboards/Dactylv2/keymaps/Noah/keymap.c **** 
 330:keyboards/Dactylv2/keymaps/Noah/keymap.c **** void persistent_default_layer_set(uint16_t default_layer) {
 172               		.loc 2 330 0
 173               		.cfi_startproc
 174               	.LVL0:
 175               		.loc 2 330 0
 176 0000 CF93      		push r28
 177               	.LCFI0:
 178               		.cfi_def_cfa_offset 3
 179               		.cfi_offset 28, -2
 180 0002 DF93      		push r29
 181               	.LCFI1:
 182               		.cfi_def_cfa_offset 4
 183               		.cfi_offset 29, -3
 184               	/* prologue: function */
 185               	/* frame size = 0 */
 186               	/* stack size = 2 */
 187               	.L__stack_usage = 2
 188 0004 EC01      		movw r28,r24
 331:keyboards/Dactylv2/keymaps/Noah/keymap.c **** 	eeconfig_update_default_layer(default_layer);
 189               		.loc 2 331 0
 190 0006 0E94 0000 		call eeconfig_update_default_layer
 191               	.LVL1:
 332:keyboards/Dactylv2/keymaps/Noah/keymap.c **** 	default_layer_set(default_layer);
 192               		.loc 2 332 0
 193 000a BE01      		movw r22,r28
 194 000c 80E0      		ldi r24,0
 195 000e 90E0      		ldi r25,0
 196               	/* epilogue start */
 333:keyboards/Dactylv2/keymaps/Noah/keymap.c **** }
 197               		.loc 2 333 0
 198 0010 DF91      		pop r29
 199 0012 CF91      		pop r28
 200               	.LVL2:
 332:keyboards/Dactylv2/keymaps/Noah/keymap.c **** 	default_layer_set(default_layer);
 201               		.loc 2 332 0
 202 0014 0C94 0000 		jmp default_layer_set
 203               	.LVL3:
 204               		.cfi_endproc
 205               	.LFE28:
 207               		.section	.text.process_record_user,"ax",@progbits
 208               	.global	process_record_user
 210               	process_record_user:
 211               	.LFB29:
 334:keyboards/Dactylv2/keymaps/Noah/keymap.c **** 
 335:keyboards/Dactylv2/keymaps/Noah/keymap.c **** /*
 336:keyboards/Dactylv2/keymaps/Noah/keymap.c **** void dance_cln_finished(void){
 337:keyboards/Dactylv2/keymaps/Noah/keymap.c **** register_code (KC_LGUI);
 338:keyboards/Dactylv2/keymaps/Noah/keymap.c **** register_code(KC_TAB);
 339:keyboards/Dactylv2/keymaps/Noah/keymap.c **** unregister_code(KC_TAB);
 340:keyboards/Dactylv2/keymaps/Noah/keymap.c **** unregister_code(KC_LGUI);
 341:keyboards/Dactylv2/keymaps/Noah/keymap.c **** }*/
 342:keyboards/Dactylv2/keymaps/Noah/keymap.c **** 
 343:keyboards/Dactylv2/keymaps/Noah/keymap.c **** 
 344:keyboards/Dactylv2/keymaps/Noah/keymap.c **** bool volatile shift_down=false;
 345:keyboards/Dactylv2/keymaps/Noah/keymap.c **** bool volatile space_shift_down=false;
 346:keyboards/Dactylv2/keymaps/Noah/keymap.c **** bool volatile gui_down=false;
 347:keyboards/Dactylv2/keymaps/Noah/keymap.c **** bool volatile alt_down=false;
 348:keyboards/Dactylv2/keymaps/Noah/keymap.c **** bool volatile select_active=false;
 349:keyboards/Dactylv2/keymaps/Noah/keymap.c **** bool volatile pressed_something_else=false;
 350:keyboards/Dactylv2/keymaps/Noah/keymap.c **** bool volatile pressed_something_else_gui=false;
 351:keyboards/Dactylv2/keymaps/Noah/keymap.c **** 
 352:keyboards/Dactylv2/keymaps/Noah/keymap.c **** bool process_record_user(uint16_t keycode, keyrecord_t *record) {
 212               		.loc 2 352 0
 213               		.cfi_startproc
 214               	.LVL4:
 215               	/* prologue: function */
 216               	/* frame size = 0 */
 217               	/* stack size = 0 */
 218               	.L__stack_usage = 0
 219 0000 9C01      		movw r18,r24
 220 0002 FB01      		movw r30,r22
 221 0004 9281      		ldd r25,Z+2
 353:keyboards/Dactylv2/keymaps/Noah/keymap.c **** 
 354:keyboards/Dactylv2/keymaps/Noah/keymap.c ****      // This bit of code makes it so that if I hold down the spacebar, it becomes a shift key, assu
 355:keyboards/Dactylv2/keymaps/Noah/keymap.c ****      // that I press another key after holding it down. If no other key is pressed, I clearly wasn'
 356:keyboards/Dactylv2/keymaps/Noah/keymap.c ****      // a shift key, and so it comes through as a space. The only consequence of this is that space
 357:keyboards/Dactylv2/keymaps/Noah/keymap.c ****      // key up, and not key down. So I need to make sure the space has been released before typing 
 358:keyboards/Dactylv2/keymaps/Noah/keymap.c ****      // realistically, if I'm light on my fingers, this shouldn't be a problem.
 359:keyboards/Dactylv2/keymaps/Noah/keymap.c ****      if (keycode == KC_SPACETHING) {
 222               		.loc 2 359 0
 223 0006 2A3D      		cpi r18,-38
 224 0008 FCE5      		ldi r31,92
 225 000a 3F07      		cpc r19,r31
 226 000c 01F4      		brne .L14
 360:keyboards/Dactylv2/keymaps/Noah/keymap.c ****            if (record->event.pressed) {
 227               		.loc 2 360 0
 228 000e 9923      		tst r25
 229 0010 01F0      		breq .L15
 361:keyboards/Dactylv2/keymaps/Noah/keymap.c ****                 space_shift_down = true;
 230               		.loc 2 361 0
 231 0012 81E0      		ldi r24,lo8(1)
 232               	.LVL5:
 233 0014 8093 0000 		sts space_shift_down,r24
 362:keyboards/Dactylv2/keymaps/Noah/keymap.c ****                 pressed_something_else=false;
 234               		.loc 2 362 0
 235 0018 1092 0000 		sts pressed_something_else,__zero_reg__
 363:keyboards/Dactylv2/keymaps/Noah/keymap.c ****                 SEND_STRING(SS_DOWN(X_LSHIFT));
 236               		.loc 2 363 0
 237 001c 80E0      		ldi r24,lo8(__c.3346)
 238 001e 90E0      		ldi r25,hi8(__c.3346)
 239 0020 00C0      		rjmp .L28
 240               	.L15:
 364:keyboards/Dactylv2/keymaps/Noah/keymap.c ****            }
 365:keyboards/Dactylv2/keymaps/Noah/keymap.c ****            else {
 366:keyboards/Dactylv2/keymaps/Noah/keymap.c ****                 space_shift_down = false;
 241               		.loc 2 366 0
 242 0022 1092 0000 		sts space_shift_down,__zero_reg__
 367:keyboards/Dactylv2/keymaps/Noah/keymap.c ****                 SEND_STRING(SS_UP(X_LSHIFT));
 243               		.loc 2 367 0
 244 0026 80E0      		ldi r24,lo8(__c.3348)
 245 0028 90E0      		ldi r25,hi8(__c.3348)
 246 002a 0E94 0000 		call send_string_P
 247               	.LVL6:
 368:keyboards/Dactylv2/keymaps/Noah/keymap.c ****                 if (!pressed_something_else) {
 248               		.loc 2 368 0
 249 002e 8091 0000 		lds r24,pressed_something_else
 250 0032 8111      		cpse r24,__zero_reg__
 251 0034 00C0      		rjmp .L17
 369:keyboards/Dactylv2/keymaps/Noah/keymap.c ****                    SEND_STRING(" ");
 252               		.loc 2 369 0
 253 0036 80E0      		ldi r24,lo8(__c.3350)
 254 0038 90E0      		ldi r25,hi8(__c.3350)
 255 003a 0E94 0000 		call send_string_P
 256               	.LVL7:
 257               	.L17:
 370:keyboards/Dactylv2/keymaps/Noah/keymap.c ****                 }
 371:keyboards/Dactylv2/keymaps/Noah/keymap.c ****                 pressed_something_else=false;
 258               		.loc 2 371 0
 259 003e 1092 0000 		sts pressed_something_else,__zero_reg__
 260 0042 00C0      		rjmp .L16
 261               	.LVL8:
 262               	.L14:
 372:keyboards/Dactylv2/keymaps/Noah/keymap.c ****            }
 373:keyboards/Dactylv2/keymaps/Noah/keymap.c ****      }
 374:keyboards/Dactylv2/keymaps/Noah/keymap.c ****      else if (keycode == KC_GUITAB) {
 263               		.loc 2 374 0
 264 0044 2B3D      		cpi r18,-37
 265 0046 3C45      		sbci r19,92
 266 0048 01F4      		brne .L18
 375:keyboards/Dactylv2/keymaps/Noah/keymap.c ****         if (record->event.pressed) {
 267               		.loc 2 375 0
 268 004a 9923      		tst r25
 269 004c 01F0      		breq .L19
 376:keyboards/Dactylv2/keymaps/Noah/keymap.c ****           gui_down = true;
 270               		.loc 2 376 0
 271 004e 81E0      		ldi r24,lo8(1)
 272 0050 8093 0000 		sts gui_down,r24
 377:keyboards/Dactylv2/keymaps/Noah/keymap.c ****           pressed_something_else_gui=false;
 273               		.loc 2 377 0
 274 0054 1092 0000 		sts pressed_something_else_gui,__zero_reg__
 378:keyboards/Dactylv2/keymaps/Noah/keymap.c ****           SEND_STRING(SS_DOWN(X_LGUI));
 275               		.loc 2 378 0
 276 0058 80E0      		ldi r24,lo8(__c.3352)
 277 005a 90E0      		ldi r25,hi8(__c.3352)
 278               	.L28:
 279 005c 0E94 0000 		call send_string_P
 280               	.LVL9:
 281 0060 00C0      		rjmp .L16
 282               	.LVL10:
 283               	.L19:
 379:keyboards/Dactylv2/keymaps/Noah/keymap.c ****         }
 380:keyboards/Dactylv2/keymaps/Noah/keymap.c ****         else{
 381:keyboards/Dactylv2/keymaps/Noah/keymap.c ****           gui_down = false;
 284               		.loc 2 381 0
 285 0062 1092 0000 		sts gui_down,__zero_reg__
 382:keyboards/Dactylv2/keymaps/Noah/keymap.c ****           SEND_STRING(SS_UP(X_LGUI));
 286               		.loc 2 382 0
 287 0066 80E0      		ldi r24,lo8(__c.3354)
 288 0068 90E0      		ldi r25,hi8(__c.3354)
 289 006a 0E94 0000 		call send_string_P
 290               	.LVL11:
 383:keyboards/Dactylv2/keymaps/Noah/keymap.c ****           if(!pressed_something_else_gui) {
 291               		.loc 2 383 0
 292 006e 8091 0000 		lds r24,pressed_something_else_gui
 293 0072 8111      		cpse r24,__zero_reg__
 294 0074 00C0      		rjmp .L20
 384:keyboards/Dactylv2/keymaps/Noah/keymap.c ****             SEND_STRING(SS_TAP(X_TAB));
 295               		.loc 2 384 0
 296 0076 80E0      		ldi r24,lo8(__c.3356)
 297 0078 90E0      		ldi r25,hi8(__c.3356)
 298 007a 0E94 0000 		call send_string_P
 299               	.LVL12:
 300               	.L20:
 385:keyboards/Dactylv2/keymaps/Noah/keymap.c ****           }
 386:keyboards/Dactylv2/keymaps/Noah/keymap.c ****           pressed_something_else_gui=false;
 301               		.loc 2 386 0
 302 007e 1092 0000 		sts pressed_something_else_gui,__zero_reg__
 303 0082 00C0      		rjmp .L16
 304               	.LVL13:
 305               	.L18:
 387:keyboards/Dactylv2/keymaps/Noah/keymap.c ****         }
 388:keyboards/Dactylv2/keymaps/Noah/keymap.c ****      }
 389:keyboards/Dactylv2/keymaps/Noah/keymap.c ****      else {
 390:keyboards/Dactylv2/keymaps/Noah/keymap.c ****         if (record->event.pressed && space_shift_down) {
 306               		.loc 2 390 0
 307 0084 9923      		tst r25
 308 0086 01F0      		breq .L16
 309               		.loc 2 390 0 is_stmt 0 discriminator 1
 310 0088 8091 0000 		lds r24,space_shift_down
 311 008c 8823      		tst r24
 312 008e 01F0      		breq .L21
 391:keyboards/Dactylv2/keymaps/Noah/keymap.c ****             pressed_something_else=true;
 313               		.loc 2 391 0 is_stmt 1
 314 0090 81E0      		ldi r24,lo8(1)
 315 0092 8093 0000 		sts pressed_something_else,r24
 316 0096 00C0      		rjmp .L16
 317               	.L21:
 392:keyboards/Dactylv2/keymaps/Noah/keymap.c ****         }
 393:keyboards/Dactylv2/keymaps/Noah/keymap.c ****         else if (record->event.pressed && gui_down) {
 318               		.loc 2 393 0 discriminator 1
 319 0098 8091 0000 		lds r24,gui_down
 320 009c 8823      		tst r24
 321 009e 01F0      		breq .L16
 394:keyboards/Dactylv2/keymaps/Noah/keymap.c ****             pressed_something_else_gui  =true;
 322               		.loc 2 394 0
 323 00a0 81E0      		ldi r24,lo8(1)
 324 00a2 8093 0000 		sts pressed_something_else_gui,r24
 325               	.LVL14:
 326               	.L16:
 395:keyboards/Dactylv2/keymaps/Noah/keymap.c ****         }
 396:keyboards/Dactylv2/keymaps/Noah/keymap.c ****      }
 397:keyboards/Dactylv2/keymaps/Noah/keymap.c **** 
 398:keyboards/Dactylv2/keymaps/Noah/keymap.c ****   return true;
 399:keyboards/Dactylv2/keymaps/Noah/keymap.c **** }
 327               		.loc 2 399 0
 328 00a6 81E0      		ldi r24,lo8(1)
 329 00a8 0895      		ret
 330               		.cfi_endproc
 331               	.LFE29:
 333               		.section	.text.action_get_macro,"ax",@progbits
 334               	.global	action_get_macro
 336               	action_get_macro:
 337               	.LFB30:
 400:keyboards/Dactylv2/keymaps/Noah/keymap.c **** 
 401:keyboards/Dactylv2/keymaps/Noah/keymap.c **** const macro_t *action_get_macro(keyrecord_t *record, uint8_t id, uint8_t opt) {
 338               		.loc 2 401 0
 339               		.cfi_startproc
 340               	.LVL15:
 341 0000 CF93      		push r28
 342               	.LCFI2:
 343               		.cfi_def_cfa_offset 3
 344               		.cfi_offset 28, -2
 345               	/* prologue: function */
 346               	/* frame size = 0 */
 347               	/* stack size = 1 */
 348               	.L__stack_usage = 1
 402:keyboards/Dactylv2/keymaps/Noah/keymap.c ****     bool p = record->event.pressed;
 349               		.loc 2 402 0
 350 0002 FC01      		movw r30,r24
 351 0004 C281      		ldd r28,Z+2
 352               	.LVL16:
 403:keyboards/Dactylv2/keymaps/Noah/keymap.c **** 	switch (id) {
 353               		.loc 2 403 0
 354 0006 862F      		mov r24,r22
 355               	.LVL17:
 356 0008 90E0      		ldi r25,0
 357 000a 8A31      		cpi r24,26
 358 000c 9105      		cpc r25,__zero_reg__
 359 000e 00F0      		brlo .+2
 360 0010 00C0      		rjmp .L31
 361 0012 FC01      		movw r30,r24
 362               	.LVL18:
 363 0014 E050      		subi r30,lo8(-(gs(.L33)))
 364 0016 F040      		sbci r31,hi8(-(gs(.L33)))
 365 0018 0C94 0000 		jmp __tablejump2__
 366               	.LVL19:
 367               		.section	.progmem.gcc_sw_table.action_get_macro,"a",@progbits
 368               		.p2align	1
 369               	.L33:
 370 0000 0000      		.word gs(.L32)
 371 0002 0000      		.word gs(.L34)
 372 0004 0000      		.word gs(.L35)
 373 0006 0000      		.word gs(.L36)
 374 0008 0000      		.word gs(.L37)
 375 000a 0000      		.word gs(.L38)
 376 000c 0000      		.word gs(.L39)
 377 000e 0000      		.word gs(.L40)
 378 0010 0000      		.word gs(.L41)
 379 0012 0000      		.word gs(.L42)
 380 0014 0000      		.word gs(.L43)
 381 0016 0000      		.word gs(.L44)
 382 0018 0000      		.word gs(.L45)
 383 001a 0000      		.word gs(.L46)
 384 001c 0000      		.word gs(.L47)
 385 001e 0000      		.word gs(.L48)
 386 0020 0000      		.word gs(.L49)
 387 0022 0000      		.word gs(.L50)
 388 0024 0000      		.word gs(.L51)
 389 0026 0000      		.word gs(.L52)
 390 0028 0000      		.word gs(.L53)
 391 002a 0000      		.word gs(.L54)
 392 002c 0000      		.word gs(.L55)
 393 002e 0000      		.word gs(.L56)
 394 0030 0000      		.word gs(.L57)
 395 0032 0000      		.word gs(.L58)
 396               		.section	.text.action_get_macro
 397               	.L32:
 404:keyboards/Dactylv2/keymaps/Noah/keymap.c ****     	case 0: // select left
 405:keyboards/Dactylv2/keymaps/Noah/keymap.c ****     	    if (p) {
 398               		.loc 2 405 0
 399 001c CC23      		tst r28
 400 001e 01F0      		breq .L59
 406:keyboards/Dactylv2/keymaps/Noah/keymap.c ****     	      SEND_STRING(SS_DOWN(X_LSHIFT) SS_DOWN(X_LEFT) SS_UP(X_LSHIFT));
 401               		.loc 2 406 0
 402 0020 80E0      		ldi r24,lo8(__c.3365)
 403 0022 90E0      		ldi r25,hi8(__c.3365)
 404 0024 00C0      		rjmp .L101
 405               	.L59:
 407:keyboards/Dactylv2/keymaps/Noah/keymap.c ****     	    }
 408:keyboards/Dactylv2/keymaps/Noah/keymap.c ****     	    else {
 409:keyboards/Dactylv2/keymaps/Noah/keymap.c ****     	      SEND_STRING(SS_UP(X_LEFT) SS_UP(X_LSHIFT));
 406               		.loc 2 409 0
 407 0026 80E0      		ldi r24,lo8(__c.3367)
 408 0028 90E0      		ldi r25,hi8(__c.3367)
 409 002a 00C0      		rjmp .L101
 410               	.L34:
 410:keyboards/Dactylv2/keymaps/Noah/keymap.c ****     	    }
 411:keyboards/Dactylv2/keymaps/Noah/keymap.c **** //    	    set_oneshot_layer(_SELECT, ONESHOT_START)
 412:keyboards/Dactylv2/keymaps/Noah/keymap.c ****     	    return false;
 413:keyboards/Dactylv2/keymaps/Noah/keymap.c **** 
 414:keyboards/Dactylv2/keymaps/Noah/keymap.c ****     	case 1: // select right
 415:keyboards/Dactylv2/keymaps/Noah/keymap.c ****     	    if (p) {
 411               		.loc 2 415 0
 412 002c CC23      		tst r28
 413 002e 01F0      		breq .L60
 416:keyboards/Dactylv2/keymaps/Noah/keymap.c ****               SEND_STRING(SS_DOWN(X_LSHIFT) SS_DOWN(X_RIGHT));
 414               		.loc 2 416 0
 415 0030 80E0      		ldi r24,lo8(__c.3370)
 416 0032 90E0      		ldi r25,hi8(__c.3370)
 417               	.LVL20:
 418               	.L101:
 419 0034 0E94 0000 		call send_string_P
 420               	.LVL21:
 421 0038 00C0      		rjmp .L31
 422               	.LVL22:
 423               	.L60:
 417:keyboards/Dactylv2/keymaps/Noah/keymap.c ****     	    }
 418:keyboards/Dactylv2/keymaps/Noah/keymap.c ****     	    else {
 419:keyboards/Dactylv2/keymaps/Noah/keymap.c ****     	      SEND_STRING(SS_UP(X_RIGHT) SS_UP(X_LSHIFT));
 424               		.loc 2 419 0
 425 003a 80E0      		ldi r24,lo8(__c.3372)
 426 003c 90E0      		ldi r25,hi8(__c.3372)
 427 003e 00C0      		rjmp .L101
 428               	.L35:
 420:keyboards/Dactylv2/keymaps/Noah/keymap.c ****     	    }
 421:keyboards/Dactylv2/keymaps/Noah/keymap.c **** //    	    set_oneshot_layer(_SELECT, ONESHOT_START)
 422:keyboards/Dactylv2/keymaps/Noah/keymap.c ****             return false;
 423:keyboards/Dactylv2/keymaps/Noah/keymap.c **** 
 424:keyboards/Dactylv2/keymaps/Noah/keymap.c ****         case 2: // select up
 425:keyboards/Dactylv2/keymaps/Noah/keymap.c ****             if(p) {
 429               		.loc 2 425 0
 430 0040 CC23      		tst r28
 431 0042 01F0      		breq .L61
 426:keyboards/Dactylv2/keymaps/Noah/keymap.c ****               SEND_STRING(SS_DOWN(X_LSHIFT) SS_DOWN(X_UP));
 432               		.loc 2 426 0
 433 0044 80E0      		ldi r24,lo8(__c.3375)
 434 0046 90E0      		ldi r25,hi8(__c.3375)
 435 0048 00C0      		rjmp .L101
 436               	.L61:
 427:keyboards/Dactylv2/keymaps/Noah/keymap.c ****             }
 428:keyboards/Dactylv2/keymaps/Noah/keymap.c ****             else {
 429:keyboards/Dactylv2/keymaps/Noah/keymap.c ****               SEND_STRING(SS_UP(X_UP) SS_UP(X_LSHIFT));
 437               		.loc 2 429 0
 438 004a 80E0      		ldi r24,lo8(__c.3377)
 439 004c 90E0      		ldi r25,hi8(__c.3377)
 440 004e 00C0      		rjmp .L101
 441               	.L36:
 430:keyboards/Dactylv2/keymaps/Noah/keymap.c ****             }
 431:keyboards/Dactylv2/keymaps/Noah/keymap.c **** //            set_oneshot_layer(_SELECT, ONESHOT_START)
 432:keyboards/Dactylv2/keymaps/Noah/keymap.c ****             return false;
 433:keyboards/Dactylv2/keymaps/Noah/keymap.c **** 
 434:keyboards/Dactylv2/keymaps/Noah/keymap.c ****         case 3: // select down
 435:keyboards/Dactylv2/keymaps/Noah/keymap.c ****             if (p) {
 442               		.loc 2 435 0
 443 0050 CC23      		tst r28
 444 0052 01F0      		breq .L62
 436:keyboards/Dactylv2/keymaps/Noah/keymap.c ****               SEND_STRING(SS_DOWN(X_LSHIFT) SS_DOWN(X_DOWN));
 445               		.loc 2 436 0
 446 0054 80E0      		ldi r24,lo8(__c.3380)
 447 0056 90E0      		ldi r25,hi8(__c.3380)
 448 0058 00C0      		rjmp .L101
 449               	.L62:
 437:keyboards/Dactylv2/keymaps/Noah/keymap.c ****             }
 438:keyboards/Dactylv2/keymaps/Noah/keymap.c ****             else {
 439:keyboards/Dactylv2/keymaps/Noah/keymap.c ****               SEND_STRING(SS_UP(X_DOWN) SS_UP(X_LSHIFT));
 450               		.loc 2 439 0
 451 005a 80E0      		ldi r24,lo8(__c.3382)
 452 005c 90E0      		ldi r25,hi8(__c.3382)
 453 005e 00C0      		rjmp .L101
 454               	.L37:
 440:keyboards/Dactylv2/keymaps/Noah/keymap.c ****             }
 441:keyboards/Dactylv2/keymaps/Noah/keymap.c **** //            set_oneshot_layer(_SELECT, ONESHOT_START)
 442:keyboards/Dactylv2/keymaps/Noah/keymap.c ****             return false;
 443:keyboards/Dactylv2/keymaps/Noah/keymap.c **** 
 444:keyboards/Dactylv2/keymaps/Noah/keymap.c ****         case 4: // select left word
 445:keyboards/Dactylv2/keymaps/Noah/keymap.c ****             if (p) {
 455               		.loc 2 445 0
 456 0060 CC23      		tst r28
 457 0062 01F0      		breq .L63
 446:keyboards/Dactylv2/keymaps/Noah/keymap.c ****               SEND_STRING(SS_DOWN(MOVE) SS_DOWN(X_LSHIFT) SS_DOWN(X_LEFT));
 458               		.loc 2 446 0
 459 0064 80E0      		ldi r24,lo8(__c.3385)
 460 0066 90E0      		ldi r25,hi8(__c.3385)
 461 0068 00C0      		rjmp .L101
 462               	.L63:
 447:keyboards/Dactylv2/keymaps/Noah/keymap.c ****             }
 448:keyboards/Dactylv2/keymaps/Noah/keymap.c ****             else {
 449:keyboards/Dactylv2/keymaps/Noah/keymap.c ****               SEND_STRING(SS_UP(X_LEFT) SS_UP(X_LSHIFT) SS_UP(MOVE));
 463               		.loc 2 449 0
 464 006a 80E0      		ldi r24,lo8(__c.3387)
 465 006c 90E0      		ldi r25,hi8(__c.3387)
 466 006e 00C0      		rjmp .L101
 467               	.L38:
 450:keyboards/Dactylv2/keymaps/Noah/keymap.c ****             }
 451:keyboards/Dactylv2/keymaps/Noah/keymap.c **** //            set_oneshot_layer(_SELECT, ONESHOT_START)
 452:keyboards/Dactylv2/keymaps/Noah/keymap.c ****             return false;
 453:keyboards/Dactylv2/keymaps/Noah/keymap.c **** 
 454:keyboards/Dactylv2/keymaps/Noah/keymap.c ****         case 5: // select right word
 455:keyboards/Dactylv2/keymaps/Noah/keymap.c ****             if(p) {
 468               		.loc 2 455 0
 469 0070 CC23      		tst r28
 470 0072 01F0      		breq .L64
 456:keyboards/Dactylv2/keymaps/Noah/keymap.c ****               SEND_STRING(SS_DOWN(MOVE) SS_DOWN(X_LSHIFT) SS_DOWN(X_RIGHT));
 471               		.loc 2 456 0
 472 0074 80E0      		ldi r24,lo8(__c.3390)
 473 0076 90E0      		ldi r25,hi8(__c.3390)
 474 0078 00C0      		rjmp .L101
 475               	.L64:
 457:keyboards/Dactylv2/keymaps/Noah/keymap.c ****             }
 458:keyboards/Dactylv2/keymaps/Noah/keymap.c ****             else {
 459:keyboards/Dactylv2/keymaps/Noah/keymap.c ****               SEND_STRING(SS_UP(X_RIGHT) SS_UP(X_LSHIFT) SS_UP(MOVE));
 476               		.loc 2 459 0
 477 007a 80E0      		ldi r24,lo8(__c.3392)
 478 007c 90E0      		ldi r25,hi8(__c.3392)
 479 007e 00C0      		rjmp .L101
 480               	.L39:
 460:keyboards/Dactylv2/keymaps/Noah/keymap.c ****             }
 461:keyboards/Dactylv2/keymaps/Noah/keymap.c **** //            set_oneshot_layer(_SELECT, ONESHOT_START)
 462:keyboards/Dactylv2/keymaps/Noah/keymap.c ****             return false;
 463:keyboards/Dactylv2/keymaps/Noah/keymap.c **** 
 464:keyboards/Dactylv2/keymaps/Noah/keymap.c ****         case 6: // select page up
 465:keyboards/Dactylv2/keymaps/Noah/keymap.c ****             if (p) {
 481               		.loc 2 465 0
 482 0080 CC23      		tst r28
 483 0082 01F0      		breq .L65
 466:keyboards/Dactylv2/keymaps/Noah/keymap.c ****               SEND_STRING(SS_DOWN(X_LSHIFT) SS_DOWN(X_PGUP));
 484               		.loc 2 466 0
 485 0084 80E0      		ldi r24,lo8(__c.3395)
 486 0086 90E0      		ldi r25,hi8(__c.3395)
 487 0088 00C0      		rjmp .L101
 488               	.L65:
 467:keyboards/Dactylv2/keymaps/Noah/keymap.c ****             }
 468:keyboards/Dactylv2/keymaps/Noah/keymap.c ****             else {
 469:keyboards/Dactylv2/keymaps/Noah/keymap.c ****               SEND_STRING(SS_UP(X_PGUP) SS_UP(X_LSHIFT));
 489               		.loc 2 469 0
 490 008a 80E0      		ldi r24,lo8(__c.3397)
 491 008c 90E0      		ldi r25,hi8(__c.3397)
 492 008e 00C0      		rjmp .L101
 493               	.L40:
 470:keyboards/Dactylv2/keymaps/Noah/keymap.c ****             }
 471:keyboards/Dactylv2/keymaps/Noah/keymap.c **** //            set_oneshot_layer(_SELECT, ONESHOT_START)
 472:keyboards/Dactylv2/keymaps/Noah/keymap.c ****             return false;
 473:keyboards/Dactylv2/keymaps/Noah/keymap.c **** 
 474:keyboards/Dactylv2/keymaps/Noah/keymap.c ****         case 7: // select page down
 475:keyboards/Dactylv2/keymaps/Noah/keymap.c ****             if (p) {
 494               		.loc 2 475 0
 495 0090 CC23      		tst r28
 496 0092 01F0      		breq .L66
 476:keyboards/Dactylv2/keymaps/Noah/keymap.c ****               SEND_STRING(SS_DOWN(X_LSHIFT) SS_DOWN(X_PGDOWN));
 497               		.loc 2 476 0
 498 0094 80E0      		ldi r24,lo8(__c.3400)
 499 0096 90E0      		ldi r25,hi8(__c.3400)
 500 0098 00C0      		rjmp .L101
 501               	.L66:
 477:keyboards/Dactylv2/keymaps/Noah/keymap.c ****             }
 478:keyboards/Dactylv2/keymaps/Noah/keymap.c ****             else {
 479:keyboards/Dactylv2/keymaps/Noah/keymap.c ****               SEND_STRING(SS_UP(X_PGDOWN) SS_UP(X_LSHIFT));
 502               		.loc 2 479 0
 503 009a 80E0      		ldi r24,lo8(__c.3402)
 504 009c 90E0      		ldi r25,hi8(__c.3402)
 505 009e 00C0      		rjmp .L101
 506               	.L41:
 480:keyboards/Dactylv2/keymaps/Noah/keymap.c ****             }
 481:keyboards/Dactylv2/keymaps/Noah/keymap.c **** //            set_oneshot_layer(_SELECT, ONESHOT_START)
 482:keyboards/Dactylv2/keymaps/Noah/keymap.c ****             return false;
 483:keyboards/Dactylv2/keymaps/Noah/keymap.c **** 
 484:keyboards/Dactylv2/keymaps/Noah/keymap.c ****         case 8: // select home
 485:keyboards/Dactylv2/keymaps/Noah/keymap.c ****             if(p) {
 507               		.loc 2 485 0
 508 00a0 CC23      		tst r28
 509 00a2 01F0      		breq .L67
 486:keyboards/Dactylv2/keymaps/Noah/keymap.c ****               SEND_STRING(SS_DOWN(X_LSHIFT) SS_DOWN(X_HOME));
 510               		.loc 2 486 0
 511 00a4 80E0      		ldi r24,lo8(__c.3405)
 512 00a6 90E0      		ldi r25,hi8(__c.3405)
 513 00a8 00C0      		rjmp .L101
 514               	.L67:
 487:keyboards/Dactylv2/keymaps/Noah/keymap.c ****             }
 488:keyboards/Dactylv2/keymaps/Noah/keymap.c ****             else {
 489:keyboards/Dactylv2/keymaps/Noah/keymap.c ****               SEND_STRING(SS_UP(X_HOME) SS_UP(X_LSHIFT));
 515               		.loc 2 489 0
 516 00aa 80E0      		ldi r24,lo8(__c.3407)
 517 00ac 90E0      		ldi r25,hi8(__c.3407)
 518 00ae 00C0      		rjmp .L101
 519               	.L42:
 490:keyboards/Dactylv2/keymaps/Noah/keymap.c ****             }
 491:keyboards/Dactylv2/keymaps/Noah/keymap.c **** //            set_oneshot_layer(_SELECT, ONESHOT_START)
 492:keyboards/Dactylv2/keymaps/Noah/keymap.c ****             return false;
 493:keyboards/Dactylv2/keymaps/Noah/keymap.c **** 
 494:keyboards/Dactylv2/keymaps/Noah/keymap.c ****         case 9: // select end
 495:keyboards/Dactylv2/keymaps/Noah/keymap.c ****             if(p) {
 520               		.loc 2 495 0
 521 00b0 CC23      		tst r28
 522 00b2 01F0      		breq .L68
 496:keyboards/Dactylv2/keymaps/Noah/keymap.c ****               SEND_STRING(SS_DOWN(X_LSHIFT) SS_DOWN(X_END));
 523               		.loc 2 496 0
 524 00b4 80E0      		ldi r24,lo8(__c.3410)
 525 00b6 90E0      		ldi r25,hi8(__c.3410)
 526 00b8 00C0      		rjmp .L101
 527               	.L68:
 497:keyboards/Dactylv2/keymaps/Noah/keymap.c ****             }
 498:keyboards/Dactylv2/keymaps/Noah/keymap.c ****             else {
 499:keyboards/Dactylv2/keymaps/Noah/keymap.c ****               SEND_STRING(SS_UP(X_END) SS_UP(X_LSHIFT));
 528               		.loc 2 499 0
 529 00ba 80E0      		ldi r24,lo8(__c.3412)
 530 00bc 90E0      		ldi r25,hi8(__c.3412)
 531 00be 00C0      		rjmp .L101
 532               	.L43:
 500:keyboards/Dactylv2/keymaps/Noah/keymap.c ****             }
 501:keyboards/Dactylv2/keymaps/Noah/keymap.c **** //            set_oneshot_layer(_SELECT, ONESHOT_START)
 502:keyboards/Dactylv2/keymaps/Noah/keymap.c ****             return false;
 503:keyboards/Dactylv2/keymaps/Noah/keymap.c **** 
 504:keyboards/Dactylv2/keymaps/Noah/keymap.c ****     	case 10: // left word
 505:keyboards/Dactylv2/keymaps/Noah/keymap.c ****     	    if (p) {
 533               		.loc 2 505 0
 534 00c0 CC23      		tst r28
 535 00c2 01F0      		breq .L69
 506:keyboards/Dactylv2/keymaps/Noah/keymap.c ****     	      SEND_STRING(SS_DOWN(MOVE) SS_DOWN(X_LEFT));
 536               		.loc 2 506 0
 537 00c4 80E0      		ldi r24,lo8(__c.3415)
 538 00c6 90E0      		ldi r25,hi8(__c.3415)
 539 00c8 00C0      		rjmp .L101
 540               	.L69:
 507:keyboards/Dactylv2/keymaps/Noah/keymap.c ****     	    }
 508:keyboards/Dactylv2/keymaps/Noah/keymap.c ****     	    else {
 509:keyboards/Dactylv2/keymaps/Noah/keymap.c ****       	      SEND_STRING(SS_UP(X_LEFT) SS_UP(MOVE));
 541               		.loc 2 509 0
 542 00ca 80E0      		ldi r24,lo8(__c.3417)
 543 00cc 90E0      		ldi r25,hi8(__c.3417)
 544 00ce 00C0      		rjmp .L101
 545               	.L44:
 510:keyboards/Dactylv2/keymaps/Noah/keymap.c ****     	    }
 511:keyboards/Dactylv2/keymaps/Noah/keymap.c ****     		return MACRO_NONE;
 512:keyboards/Dactylv2/keymaps/Noah/keymap.c **** 
 513:keyboards/Dactylv2/keymaps/Noah/keymap.c ****     	case 11: // right word
 514:keyboards/Dactylv2/keymaps/Noah/keymap.c ****     	    if(p) {
 546               		.loc 2 514 0
 547 00d0 CC23      		tst r28
 548 00d2 01F0      		breq .L70
 515:keyboards/Dactylv2/keymaps/Noah/keymap.c ****               SEND_STRING(SS_DOWN(MOVE) SS_DOWN(X_RIGHT));
 549               		.loc 2 515 0
 550 00d4 80E0      		ldi r24,lo8(__c.3420)
 551 00d6 90E0      		ldi r25,hi8(__c.3420)
 552 00d8 00C0      		rjmp .L101
 553               	.L70:
 516:keyboards/Dactylv2/keymaps/Noah/keymap.c ****     	    }
 517:keyboards/Dactylv2/keymaps/Noah/keymap.c ****     	    else {
 518:keyboards/Dactylv2/keymaps/Noah/keymap.c ****               SEND_STRING(SS_UP(X_RIGHT) SS_UP(MOVE));
 554               		.loc 2 518 0
 555 00da 80E0      		ldi r24,lo8(__c.3422)
 556 00dc 90E0      		ldi r25,hi8(__c.3422)
 557 00de 00C0      		rjmp .L101
 558               	.L45:
 519:keyboards/Dactylv2/keymaps/Noah/keymap.c ****     	    }
 520:keyboards/Dactylv2/keymaps/Noah/keymap.c ****             return MACRO_NONE;
 521:keyboards/Dactylv2/keymaps/Noah/keymap.c **** 
 522:keyboards/Dactylv2/keymaps/Noah/keymap.c ****         case 12: // backspace left word
 523:keyboards/Dactylv2/keymaps/Noah/keymap.c ****             if (p) {
 559               		.loc 2 523 0
 560 00e0 CC23      		tst r28
 561 00e2 01F0      		breq .L71
 524:keyboards/Dactylv2/keymaps/Noah/keymap.c ****               SEND_STRING(SS_DOWN(MOVE) SS_DOWN(X_BSPACE));
 562               		.loc 2 524 0
 563 00e4 80E0      		ldi r24,lo8(__c.3425)
 564 00e6 90E0      		ldi r25,hi8(__c.3425)
 565 00e8 00C0      		rjmp .L101
 566               	.L71:
 525:keyboards/Dactylv2/keymaps/Noah/keymap.c ****             }
 526:keyboards/Dactylv2/keymaps/Noah/keymap.c ****             else {
 527:keyboards/Dactylv2/keymaps/Noah/keymap.c ****               SEND_STRING(SS_UP(X_BSPACE) SS_UP(MOVE));
 567               		.loc 2 527 0
 568 00ea 80E0      		ldi r24,lo8(__c.3427)
 569 00ec 90E0      		ldi r25,hi8(__c.3427)
 570 00ee 00C0      		rjmp .L101
 571               	.L46:
 528:keyboards/Dactylv2/keymaps/Noah/keymap.c ****             }
 529:keyboards/Dactylv2/keymaps/Noah/keymap.c ****             return MACRO_NONE;
 530:keyboards/Dactylv2/keymaps/Noah/keymap.c **** 
 531:keyboards/Dactylv2/keymaps/Noah/keymap.c ****         case 13:
 532:keyboards/Dactylv2/keymaps/Noah/keymap.c ****             if(p) {
 572               		.loc 2 532 0
 573 00f0 CC23      		tst r28
 574 00f2 01F0      		breq .L72
 533:keyboards/Dactylv2/keymaps/Noah/keymap.c ****               SEND_STRING(SS_DOWN(X_LSHIFT) SS_DOWN(X_LCTRL) SS_DOWN(X_Z));
 575               		.loc 2 533 0
 576 00f4 80E0      		ldi r24,lo8(__c.3430)
 577 00f6 90E0      		ldi r25,hi8(__c.3430)
 578 00f8 00C0      		rjmp .L101
 579               	.L72:
 534:keyboards/Dactylv2/keymaps/Noah/keymap.c ****             }
 535:keyboards/Dactylv2/keymaps/Noah/keymap.c ****             else {
 536:keyboards/Dactylv2/keymaps/Noah/keymap.c ****               SEND_STRING(SS_UP(X_Z) SS_UP(X_LSHIFT) SS_UP(X_LCTRL));
 580               		.loc 2 536 0
 581 00fa 80E0      		ldi r24,lo8(__c.3432)
 582 00fc 90E0      		ldi r25,hi8(__c.3432)
 583 00fe 00C0      		rjmp .L101
 584               	.L47:
 537:keyboards/Dactylv2/keymaps/Noah/keymap.c ****             }
 538:keyboards/Dactylv2/keymaps/Noah/keymap.c ****             return false;
 539:keyboards/Dactylv2/keymaps/Noah/keymap.c **** 
 540:keyboards/Dactylv2/keymaps/Noah/keymap.c ****         case 14: //format
 541:keyboards/Dactylv2/keymaps/Noah/keymap.c ****             if (p) {
 585               		.loc 2 541 0
 586 0100 CC23      		tst r28
 587 0102 01F0      		breq .L73
 542:keyboards/Dactylv2/keymaps/Noah/keymap.c ****               SEND_STRING(SS_DOWN(X_LALT) SS_DOWN(X_LCTRL) SS_DOWN(X_L));
 588               		.loc 2 542 0
 589 0104 80E0      		ldi r24,lo8(__c.3435)
 590 0106 90E0      		ldi r25,hi8(__c.3435)
 591 0108 00C0      		rjmp .L101
 592               	.L73:
 543:keyboards/Dactylv2/keymaps/Noah/keymap.c ****             }
 544:keyboards/Dactylv2/keymaps/Noah/keymap.c ****             else {
 545:keyboards/Dactylv2/keymaps/Noah/keymap.c ****               SEND_STRING(SS_UP(X_L) SS_UP(X_LCTRL) SS_UP(X_LALT));
 593               		.loc 2 545 0
 594 010a 80E0      		ldi r24,lo8(__c.3437)
 595 010c 90E0      		ldi r25,hi8(__c.3437)
 596 010e 00C0      		rjmp .L101
 597               	.L48:
 546:keyboards/Dactylv2/keymaps/Noah/keymap.c ****             }
 547:keyboards/Dactylv2/keymaps/Noah/keymap.c ****             return false;
 548:keyboards/Dactylv2/keymaps/Noah/keymap.c **** 
 549:keyboards/Dactylv2/keymaps/Noah/keymap.c ****         case 15: //scopy
 550:keyboards/Dactylv2/keymaps/Noah/keymap.c ****             if (p) {
 598               		.loc 2 550 0
 599 0110 CC23      		tst r28
 600 0112 01F0      		breq .L74
 551:keyboards/Dactylv2/keymaps/Noah/keymap.c ****               SEND_STRING(SS_DOWN(MOVE) SS_DOWN(X_C));
 601               		.loc 2 551 0
 602 0114 80E0      		ldi r24,lo8(__c.3440)
 603 0116 90E0      		ldi r25,hi8(__c.3440)
 604 0118 00C0      		rjmp .L101
 605               	.L74:
 552:keyboards/Dactylv2/keymaps/Noah/keymap.c ****             }
 553:keyboards/Dactylv2/keymaps/Noah/keymap.c ****             else {
 554:keyboards/Dactylv2/keymaps/Noah/keymap.c ****               SEND_STRING(SS_UP(X_C) SS_UP(MOVE) SS_TAP(X_ESCAPE));
 606               		.loc 2 554 0
 607 011a 80E0      		ldi r24,lo8(__c.3442)
 608 011c 90E0      		ldi r25,hi8(__c.3442)
 609 011e 00C0      		rjmp .L103
 610               	.L49:
 555:keyboards/Dactylv2/keymaps/Noah/keymap.c ****               select_active=false;
 556:keyboards/Dactylv2/keymaps/Noah/keymap.c ****               layer_off(_SELECT_ALT);
 557:keyboards/Dactylv2/keymaps/Noah/keymap.c ****               layer_on(_ALT);
 558:keyboards/Dactylv2/keymaps/Noah/keymap.c ****             }
 559:keyboards/Dactylv2/keymaps/Noah/keymap.c ****             return MACRO_NONE;
 560:keyboards/Dactylv2/keymaps/Noah/keymap.c **** 
 561:keyboards/Dactylv2/keymaps/Noah/keymap.c ****         case 16: //scut
 562:keyboards/Dactylv2/keymaps/Noah/keymap.c ****             if (p) {
 611               		.loc 2 562 0
 612 0120 CC23      		tst r28
 613 0122 01F0      		breq .L75
 563:keyboards/Dactylv2/keymaps/Noah/keymap.c ****               SEND_STRING(SS_DOWN(MOVE) SS_DOWN(X_X));
 614               		.loc 2 563 0
 615 0124 80E0      		ldi r24,lo8(__c.3445)
 616 0126 90E0      		ldi r25,hi8(__c.3445)
 617 0128 00C0      		rjmp .L101
 618               	.L75:
 564:keyboards/Dactylv2/keymaps/Noah/keymap.c ****             }
 565:keyboards/Dactylv2/keymaps/Noah/keymap.c ****             else {
 566:keyboards/Dactylv2/keymaps/Noah/keymap.c ****               SEND_STRING(SS_UP(X_X) SS_UP(MOVE) SS_TAP(X_ESCAPE));
 619               		.loc 2 566 0
 620 012a 80E0      		ldi r24,lo8(__c.3447)
 621 012c 90E0      		ldi r25,hi8(__c.3447)
 622               	.L103:
 623 012e 0E94 0000 		call send_string_P
 624               	.LVL23:
 567:keyboards/Dactylv2/keymaps/Noah/keymap.c ****               select_active=false;
 625               		.loc 2 567 0
 626 0132 1092 0000 		sts select_active,__zero_reg__
 568:keyboards/Dactylv2/keymaps/Noah/keymap.c ****               layer_off(_SELECT_ALT);
 627               		.loc 2 568 0
 628 0136 85E0      		ldi r24,lo8(5)
 629 0138 0E94 0000 		call layer_off
 630               	.LVL24:
 631 013c 00C0      		rjmp .L82
 632               	.LVL25:
 633               	.L50:
 569:keyboards/Dactylv2/keymaps/Noah/keymap.c ****               layer_on(_ALT);
 570:keyboards/Dactylv2/keymaps/Noah/keymap.c ****             }
 571:keyboards/Dactylv2/keymaps/Noah/keymap.c ****             return MACRO_NONE;
 572:keyboards/Dactylv2/keymaps/Noah/keymap.c **** 
 573:keyboards/Dactylv2/keymaps/Noah/keymap.c ****          case 17: // go to dir
 574:keyboards/Dactylv2/keymaps/Noah/keymap.c ****             if (p) {
 634               		.loc 2 574 0
 635 013e CC23      		tst r28
 636 0140 01F0      		breq .L76
 575:keyboards/Dactylv2/keymaps/Noah/keymap.c ****               SEND_STRING(SS_DOWN(X_LALT) SS_DOWN(X_LSHIFT) SS_DOWN(X_D));
 637               		.loc 2 575 0
 638 0142 80E0      		ldi r24,lo8(__c.3450)
 639 0144 90E0      		ldi r25,hi8(__c.3450)
 640 0146 00C0      		rjmp .L101
 641               	.L76:
 576:keyboards/Dactylv2/keymaps/Noah/keymap.c ****             }
 577:keyboards/Dactylv2/keymaps/Noah/keymap.c ****             else {
 578:keyboards/Dactylv2/keymaps/Noah/keymap.c ****               SEND_STRING(SS_UP(X_D) SS_UP(X_LALT) SS_UP(X_LSHIFT));
 642               		.loc 2 578 0
 643 0148 80E0      		ldi r24,lo8(__c.3452)
 644 014a 90E0      		ldi r25,hi8(__c.3452)
 645 014c 00C0      		rjmp .L101
 646               	.L51:
 579:keyboards/Dactylv2/keymaps/Noah/keymap.c ****             }
 580:keyboards/Dactylv2/keymaps/Noah/keymap.c ****             return MACRO_NONE;
 581:keyboards/Dactylv2/keymaps/Noah/keymap.c **** 
 582:keyboards/Dactylv2/keymaps/Noah/keymap.c ****          case 18: // open
 583:keyboards/Dactylv2/keymaps/Noah/keymap.c ****             if (p) {
 647               		.loc 2 583 0
 648 014e CC23      		tst r28
 649 0150 01F0      		breq .L77
 584:keyboards/Dactylv2/keymaps/Noah/keymap.c ****               SEND_STRING(SS_DOWN(X_LALT) SS_DOWN(X_LSHIFT) SS_DOWN(X_O));
 650               		.loc 2 584 0
 651 0152 80E0      		ldi r24,lo8(__c.3455)
 652 0154 90E0      		ldi r25,hi8(__c.3455)
 653 0156 00C0      		rjmp .L101
 654               	.L77:
 585:keyboards/Dactylv2/keymaps/Noah/keymap.c ****             }
 586:keyboards/Dactylv2/keymaps/Noah/keymap.c ****             else {
 587:keyboards/Dactylv2/keymaps/Noah/keymap.c ****               SEND_STRING(SS_UP(X_O) SS_UP(X_LALT) SS_UP(X_LSHIFT));
 655               		.loc 2 587 0
 656 0158 80E0      		ldi r24,lo8(__c.3457)
 657 015a 90E0      		ldi r25,hi8(__c.3457)
 658 015c 00C0      		rjmp .L101
 659               	.L52:
 588:keyboards/Dactylv2/keymaps/Noah/keymap.c ****             }
 589:keyboards/Dactylv2/keymaps/Noah/keymap.c ****             return MACRO_NONE;
 590:keyboards/Dactylv2/keymaps/Noah/keymap.c **** 
 591:keyboards/Dactylv2/keymaps/Noah/keymap.c ****          case 19: // find in all
 592:keyboards/Dactylv2/keymaps/Noah/keymap.c ****             if(p) {
 660               		.loc 2 592 0
 661 015e CC23      		tst r28
 662 0160 01F0      		breq .L78
 593:keyboards/Dactylv2/keymaps/Noah/keymap.c ****               SEND_STRING(SS_DOWN(X_LCTRL) SS_DOWN(X_LSHIFT) SS_DOWN(X_F));
 663               		.loc 2 593 0
 664 0162 80E0      		ldi r24,lo8(__c.3460)
 665 0164 90E0      		ldi r25,hi8(__c.3460)
 666 0166 00C0      		rjmp .L101
 667               	.L78:
 594:keyboards/Dactylv2/keymaps/Noah/keymap.c ****             }
 595:keyboards/Dactylv2/keymaps/Noah/keymap.c ****             else {
 596:keyboards/Dactylv2/keymaps/Noah/keymap.c ****               SEND_STRING(SS_UP(X_F) SS_UP(X_LCTRL) SS_UP(X_LSHIFT));
 668               		.loc 2 596 0
 669 0168 80E0      		ldi r24,lo8(__c.3462)
 670 016a 90E0      		ldi r25,hi8(__c.3462)
 671 016c 00C0      		rjmp .L101
 672               	.L53:
 597:keyboards/Dactylv2/keymaps/Noah/keymap.c ****             }
 598:keyboards/Dactylv2/keymaps/Noah/keymap.c ****             return MACRO_NONE;
 599:keyboards/Dactylv2/keymaps/Noah/keymap.c **** 
 600:keyboards/Dactylv2/keymaps/Noah/keymap.c ****          case 20: // malt
 601:keyboards/Dactylv2/keymaps/Noah/keymap.c ****             if(p) {
 673               		.loc 2 601 0
 674 016e CC23      		tst r28
 675 0170 01F0      		breq .L79
 602:keyboards/Dactylv2/keymaps/Noah/keymap.c ****               alt_down=true;
 676               		.loc 2 602 0
 677 0172 81E0      		ldi r24,lo8(1)
 678 0174 8093 0000 		sts alt_down,r24
 603:keyboards/Dactylv2/keymaps/Noah/keymap.c ****               if (select_active) {
 679               		.loc 2 603 0
 680 0178 8091 0000 		lds r24,select_active
 681 017c 8823      		tst r24
 682 017e 01F0      		breq .L80
 604:keyboards/Dactylv2/keymaps/Noah/keymap.c ****                 if (shift_down) {
 683               		.loc 2 604 0
 684 0180 8091 0000 		lds r24,shift_down
 685 0184 8823      		tst r24
 686 0186 01F4      		brne .+2
 687 0188 00C0      		rjmp .L105
 605:keyboards/Dactylv2/keymaps/Noah/keymap.c ****                   SEND_STRING(SS_UP(X_LSHIFT));
 688               		.loc 2 605 0
 689 018a 80E0      		ldi r24,lo8(__c.3465)
 690 018c 90E0      		ldi r25,hi8(__c.3465)
 691 018e 0E94 0000 		call send_string_P
 692               	.LVL26:
 693 0192 00C0      		rjmp .L104
 694               	.LVL27:
 695               	.L80:
 606:keyboards/Dactylv2/keymaps/Noah/keymap.c ****                   layer_on(_SELECT_ALT_SHIFT);
 607:keyboards/Dactylv2/keymaps/Noah/keymap.c ****                 }
 608:keyboards/Dactylv2/keymaps/Noah/keymap.c ****                 else {
 609:keyboards/Dactylv2/keymaps/Noah/keymap.c ****                   layer_on(_SELECT_ALT);
 610:keyboards/Dactylv2/keymaps/Noah/keymap.c ****                 }
 611:keyboards/Dactylv2/keymaps/Noah/keymap.c ****               }
 612:keyboards/Dactylv2/keymaps/Noah/keymap.c ****               else {
 613:keyboards/Dactylv2/keymaps/Noah/keymap.c ****                 if (shift_down) {
 696               		.loc 2 613 0
 697 0194 8091 0000 		lds r24,shift_down
 698 0198 8823      		tst r24
 699 019a 01F0      		breq .L82
 614:keyboards/Dactylv2/keymaps/Noah/keymap.c ****                   SEND_STRING(SS_UP(X_LSHIFT));
 700               		.loc 2 614 0
 701 019c 80E0      		ldi r24,lo8(__c.3467)
 702 019e 90E0      		ldi r25,hi8(__c.3467)
 703 01a0 0E94 0000 		call send_string_P
 704               	.LVL28:
 705 01a4 00C0      		rjmp .L85
 706               	.L82:
 615:keyboards/Dactylv2/keymaps/Noah/keymap.c ****                   layer_on(_ALTSH);
 616:keyboards/Dactylv2/keymaps/Noah/keymap.c ****                 }
 617:keyboards/Dactylv2/keymaps/Noah/keymap.c ****                 else {
 618:keyboards/Dactylv2/keymaps/Noah/keymap.c ****                   layer_on(_ALT);
 707               		.loc 2 618 0
 708 01a6 81E0      		ldi r24,lo8(1)
 709               	.L102:
 710 01a8 0E94 0000 		call layer_on
 711               	.LVL29:
 712 01ac 00C0      		rjmp .L31
 713               	.LVL30:
 714               	.L79:
 619:keyboards/Dactylv2/keymaps/Noah/keymap.c ****                 }
 620:keyboards/Dactylv2/keymaps/Noah/keymap.c ****               }
 621:keyboards/Dactylv2/keymaps/Noah/keymap.c ****             }
 622:keyboards/Dactylv2/keymaps/Noah/keymap.c ****             else {
 623:keyboards/Dactylv2/keymaps/Noah/keymap.c ****               alt_down=false;
 715               		.loc 2 623 0
 716 01ae 1092 0000 		sts alt_down,__zero_reg__
 624:keyboards/Dactylv2/keymaps/Noah/keymap.c ****               select_active = false;
 717               		.loc 2 624 0
 718 01b2 1092 0000 		sts select_active,__zero_reg__
 625:keyboards/Dactylv2/keymaps/Noah/keymap.c ****               layer_off(_ALT);
 719               		.loc 2 625 0
 720 01b6 81E0      		ldi r24,lo8(1)
 721 01b8 0E94 0000 		call layer_off
 722               	.LVL31:
 626:keyboards/Dactylv2/keymaps/Noah/keymap.c ****               layer_off(_ALTSH);
 723               		.loc 2 626 0
 724 01bc 82E0      		ldi r24,lo8(2)
 725 01be 0E94 0000 		call layer_off
 726               	.LVL32:
 627:keyboards/Dactylv2/keymaps/Noah/keymap.c ****               layer_off(_SELECT_ALT_SHIFT);
 727               		.loc 2 627 0
 728 01c2 86E0      		ldi r24,lo8(6)
 729 01c4 0E94 0000 		call layer_off
 730               	.LVL33:
 628:keyboards/Dactylv2/keymaps/Noah/keymap.c ****               layer_off(_SELECT_ALT);
 731               		.loc 2 628 0
 732 01c8 85E0      		ldi r24,lo8(5)
 733 01ca 0E94 0000 		call layer_off
 734               	.LVL34:
 735 01ce 00C0      		rjmp .L31
 736               	.LVL35:
 737               	.L54:
 629:keyboards/Dactylv2/keymaps/Noah/keymap.c ****             }
 630:keyboards/Dactylv2/keymaps/Noah/keymap.c ****             return false;
 631:keyboards/Dactylv2/keymaps/Noah/keymap.c **** 
 632:keyboards/Dactylv2/keymaps/Noah/keymap.c ****          case 21: // mshift
 633:keyboards/Dactylv2/keymaps/Noah/keymap.c ****             if(p) {
 738               		.loc 2 633 0
 739 01d0 CC23      		tst r28
 740 01d2 01F0      		breq .L83
 634:keyboards/Dactylv2/keymaps/Noah/keymap.c ****               shift_down=true;
 741               		.loc 2 634 0
 742 01d4 81E0      		ldi r24,lo8(1)
 743 01d6 8093 0000 		sts shift_down,r24
 635:keyboards/Dactylv2/keymaps/Noah/keymap.c ****               if(alt_down) {
 744               		.loc 2 635 0
 745 01da 8091 0000 		lds r24,alt_down
 746 01de 8823      		tst r24
 747 01e0 01F0      		breq .L84
 636:keyboards/Dactylv2/keymaps/Noah/keymap.c ****                 if(select_active) {
 748               		.loc 2 636 0
 749 01e2 8091 0000 		lds r24,select_active
 750 01e6 8823      		tst r24
 751 01e8 01F0      		breq .L85
 752               	.LVL36:
 753               	.L104:
 637:keyboards/Dactylv2/keymaps/Noah/keymap.c ****                   layer_on(_SELECT_ALT_SHIFT);
 754               		.loc 2 637 0
 755 01ea 86E0      		ldi r24,lo8(6)
 756 01ec 00C0      		rjmp .L102
 757               	.L85:
 638:keyboards/Dactylv2/keymaps/Noah/keymap.c ****                 }
 639:keyboards/Dactylv2/keymaps/Noah/keymap.c ****                 else {
 640:keyboards/Dactylv2/keymaps/Noah/keymap.c ****                   layer_on(_ALTSH);
 758               		.loc 2 640 0
 759 01ee 82E0      		ldi r24,lo8(2)
 760 01f0 00C0      		rjmp .L102
 761               	.LVL37:
 762               	.L84:
 641:keyboards/Dactylv2/keymaps/Noah/keymap.c ****                 }
 642:keyboards/Dactylv2/keymaps/Noah/keymap.c ****               }
 643:keyboards/Dactylv2/keymaps/Noah/keymap.c ****               else {
 644:keyboards/Dactylv2/keymaps/Noah/keymap.c ****                 SEND_STRING(SS_DOWN(X_LSHIFT));
 763               		.loc 2 644 0
 764 01f2 80E0      		ldi r24,lo8(__c.3470)
 765 01f4 90E0      		ldi r25,hi8(__c.3470)
 766 01f6 00C0      		rjmp .L101
 767               	.L83:
 645:keyboards/Dactylv2/keymaps/Noah/keymap.c ****               }
 646:keyboards/Dactylv2/keymaps/Noah/keymap.c ****             }
 647:keyboards/Dactylv2/keymaps/Noah/keymap.c ****             else {
 648:keyboards/Dactylv2/keymaps/Noah/keymap.c ****               shift_down=false;
 768               		.loc 2 648 0
 769 01f8 1092 0000 		sts shift_down,__zero_reg__
 649:keyboards/Dactylv2/keymaps/Noah/keymap.c ****               layer_off(_SELECT_ALT_SHIFT);
 770               		.loc 2 649 0
 771 01fc 86E0      		ldi r24,lo8(6)
 772 01fe 0E94 0000 		call layer_off
 773               	.LVL38:
 650:keyboards/Dactylv2/keymaps/Noah/keymap.c ****               layer_off(_ALTSH);
 774               		.loc 2 650 0
 775 0202 82E0      		ldi r24,lo8(2)
 776 0204 0E94 0000 		call layer_off
 777               	.LVL39:
 651:keyboards/Dactylv2/keymaps/Noah/keymap.c ****               if (alt_down) {
 778               		.loc 2 651 0
 779 0208 8091 0000 		lds r24,alt_down
 780 020c 8823      		tst r24
 781 020e 01F0      		breq .L86
 652:keyboards/Dactylv2/keymaps/Noah/keymap.c ****                 if(select_active) {
 782               		.loc 2 652 0
 783 0210 8091 0000 		lds r24,select_active
 784 0214 8823      		tst r24
 785 0216 01F0      		breq .L87
 653:keyboards/Dactylv2/keymaps/Noah/keymap.c ****                   layer_on(_SELECT_ALT);
 786               		.loc 2 653 0
 787 0218 85E0      		ldi r24,lo8(5)
 788 021a 00C0      		rjmp .L100
 789               	.L87:
 654:keyboards/Dactylv2/keymaps/Noah/keymap.c ****                 }
 655:keyboards/Dactylv2/keymaps/Noah/keymap.c ****                 else {
 656:keyboards/Dactylv2/keymaps/Noah/keymap.c ****                   layer_on(_ALT);
 790               		.loc 2 656 0
 791 021c 81E0      		ldi r24,lo8(1)
 792               	.L100:
 793 021e 0E94 0000 		call layer_on
 794               	.LVL40:
 795               	.L86:
 657:keyboards/Dactylv2/keymaps/Noah/keymap.c ****                 }
 658:keyboards/Dactylv2/keymaps/Noah/keymap.c ****               }
 659:keyboards/Dactylv2/keymaps/Noah/keymap.c ****               SEND_STRING(SS_UP(X_LSHIFT));
 796               		.loc 2 659 0
 797 0222 80E0      		ldi r24,lo8(__c.3472)
 798 0224 90E0      		ldi r25,hi8(__c.3472)
 799 0226 00C0      		rjmp .L101
 800               	.LVL41:
 801               	.L55:
 660:keyboards/Dactylv2/keymaps/Noah/keymap.c ****             }
 661:keyboards/Dactylv2/keymaps/Noah/keymap.c ****             return false;
 662:keyboards/Dactylv2/keymaps/Noah/keymap.c ****          case 22: // the function key acts like a function key but also activates a layer
 663:keyboards/Dactylv2/keymaps/Noah/keymap.c ****             if(p) {
 664:keyboards/Dactylv2/keymaps/Noah/keymap.c ****               layer_on(_FN);
 802               		.loc 2 664 0
 803 0228 83E0      		ldi r24,lo8(3)
 663:keyboards/Dactylv2/keymaps/Noah/keymap.c ****               layer_on(_FN);
 804               		.loc 2 663 0
 805 022a CC23      		tst r28
 806 022c 01F0      		breq .L88
 807               		.loc 2 664 0
 808 022e 0E94 0000 		call layer_on
 809               	.LVL42:
 665:keyboards/Dactylv2/keymaps/Noah/keymap.c ****               SEND_STRING(SS_DOWN(X_LGUI));
 810               		.loc 2 665 0
 811 0232 80E0      		ldi r24,lo8(__c.3475)
 812 0234 90E0      		ldi r25,hi8(__c.3475)
 813 0236 00C0      		rjmp .L101
 814               	.LVL43:
 815               	.L88:
 666:keyboards/Dactylv2/keymaps/Noah/keymap.c ****             }
 667:keyboards/Dactylv2/keymaps/Noah/keymap.c ****             else {
 668:keyboards/Dactylv2/keymaps/Noah/keymap.c ****               layer_off(_FN);
 816               		.loc 2 668 0
 817 0238 0E94 0000 		call layer_off
 818               	.LVL44:
 669:keyboards/Dactylv2/keymaps/Noah/keymap.c ****               SEND_STRING(SS_UP(X_LGUI));
 819               		.loc 2 669 0
 820 023c 80E0      		ldi r24,lo8(__c.3477)
 821 023e 90E0      		ldi r25,hi8(__c.3477)
 822 0240 00C0      		rjmp .L101
 823               	.LVL45:
 824               	.L56:
 670:keyboards/Dactylv2/keymaps/Noah/keymap.c ****             }
 671:keyboards/Dactylv2/keymaps/Noah/keymap.c ****             return false;
 672:keyboards/Dactylv2/keymaps/Noah/keymap.c **** 
 673:keyboards/Dactylv2/keymaps/Noah/keymap.c ****          case 23:
 674:keyboards/Dactylv2/keymaps/Noah/keymap.c ****            if(p) {
 825               		.loc 2 674 0
 826 0242 CC23      		tst r28
 827 0244 01F0      		breq .L31
 675:keyboards/Dactylv2/keymaps/Noah/keymap.c ****              select_active = !select_active;
 828               		.loc 2 675 0
 829 0246 9091 0000 		lds r25,select_active
 830 024a 81E0      		ldi r24,lo8(1)
 831 024c 8927      		eor r24,r25
 832 024e 8093 0000 		sts select_active,r24
 833               	.L105:
 676:keyboards/Dactylv2/keymaps/Noah/keymap.c ****              layer_on(_SELECT_ALT);
 834               		.loc 2 676 0
 835 0252 85E0      		ldi r24,lo8(5)
 836 0254 00C0      		rjmp .L102
 837               	.L57:
 677:keyboards/Dactylv2/keymaps/Noah/keymap.c ****            }
 678:keyboards/Dactylv2/keymaps/Noah/keymap.c ****            return false;
 679:keyboards/Dactylv2/keymaps/Noah/keymap.c **** 
 680:keyboards/Dactylv2/keymaps/Noah/keymap.c ****          case 24: // restl - reset all layers. In case something gets stuck.
 681:keyboards/Dactylv2/keymaps/Noah/keymap.c ****            layer_off(1);
 838               		.loc 2 681 0
 839 0256 81E0      		ldi r24,lo8(1)
 840 0258 0E94 0000 		call layer_off
 841               	.LVL46:
 682:keyboards/Dactylv2/keymaps/Noah/keymap.c ****            layer_off(2);
 842               		.loc 2 682 0
 843 025c 82E0      		ldi r24,lo8(2)
 844 025e 0E94 0000 		call layer_off
 845               	.LVL47:
 683:keyboards/Dactylv2/keymaps/Noah/keymap.c ****            layer_off(3);
 846               		.loc 2 683 0
 847 0262 83E0      		ldi r24,lo8(3)
 848 0264 0E94 0000 		call layer_off
 849               	.LVL48:
 684:keyboards/Dactylv2/keymaps/Noah/keymap.c ****            layer_off(4);
 850               		.loc 2 684 0
 851 0268 84E0      		ldi r24,lo8(4)
 852 026a 0E94 0000 		call layer_off
 853               	.LVL49:
 685:keyboards/Dactylv2/keymaps/Noah/keymap.c ****            layer_off(5);
 854               		.loc 2 685 0
 855 026e 85E0      		ldi r24,lo8(5)
 856 0270 0E94 0000 		call layer_off
 857               	.LVL50:
 686:keyboards/Dactylv2/keymaps/Noah/keymap.c ****            layer_off(6);
 858               		.loc 2 686 0
 859 0274 86E0      		ldi r24,lo8(6)
 860 0276 0E94 0000 		call layer_off
 861               	.LVL51:
 687:keyboards/Dactylv2/keymaps/Noah/keymap.c ****            layer_off(7);
 862               		.loc 2 687 0
 863 027a 87E0      		ldi r24,lo8(7)
 864 027c 0E94 0000 		call layer_off
 865               	.LVL52:
 688:keyboards/Dactylv2/keymaps/Noah/keymap.c ****            layer_on(_QWERTY);
 866               		.loc 2 688 0
 867 0280 80E0      		ldi r24,0
 868 0282 0E94 0000 		call layer_on
 869               	.LVL53:
 689:keyboards/Dactylv2/keymaps/Noah/keymap.c ****            SEND_STRING(SS_UP(X_LCTRL) SS_UP(X_LSHIFT) SS_UP(MOVE) SS_UP(X_LALT) SS_UP(X_LGUI));
 870               		.loc 2 689 0
 871 0286 80E0      		ldi r24,lo8(__c.3481)
 872 0288 90E0      		ldi r25,hi8(__c.3481)
 873 028a 0E94 0000 		call send_string_P
 874               	.LVL54:
 875               	.L58:
 690:keyboards/Dactylv2/keymaps/Noah/keymap.c **** 
 691:keyboards/Dactylv2/keymaps/Noah/keymap.c ****          case 25:  // space key. when it's down, shift is down. but it still does a space
 692:keyboards/Dactylv2/keymaps/Noah/keymap.c ****            if (p) {
 876               		.loc 2 692 0
 877 028e CC23      		tst r28
 878 0290 01F0      		breq .L89
 693:keyboards/Dactylv2/keymaps/Noah/keymap.c ****                 space_shift_down = true;
 879               		.loc 2 693 0
 880 0292 81E0      		ldi r24,lo8(1)
 881 0294 8093 0000 		sts space_shift_down,r24
 694:keyboards/Dactylv2/keymaps/Noah/keymap.c ****                 pressed_something_else=false;
 882               		.loc 2 694 0
 883 0298 1092 0000 		sts pressed_something_else,__zero_reg__
 695:keyboards/Dactylv2/keymaps/Noah/keymap.c ****                 SEND_STRING(SS_DOWN(X_LSHIFT));
 884               		.loc 2 695 0
 885 029c 80E0      		ldi r24,lo8(__c.3484)
 886 029e 90E0      		ldi r25,hi8(__c.3484)
 887 02a0 00C0      		rjmp .L101
 888               	.L89:
 696:keyboards/Dactylv2/keymaps/Noah/keymap.c ****            }
 697:keyboards/Dactylv2/keymaps/Noah/keymap.c ****            else {
 698:keyboards/Dactylv2/keymaps/Noah/keymap.c ****                 space_shift_down = false;
 889               		.loc 2 698 0
 890 02a2 1092 0000 		sts space_shift_down,__zero_reg__
 699:keyboards/Dactylv2/keymaps/Noah/keymap.c ****                 SEND_STRING(SS_UP(X_LSHIFT));
 891               		.loc 2 699 0
 892 02a6 80E0      		ldi r24,lo8(__c.3486)
 893 02a8 90E0      		ldi r25,hi8(__c.3486)
 894 02aa 0E94 0000 		call send_string_P
 895               	.LVL55:
 700:keyboards/Dactylv2/keymaps/Noah/keymap.c ****                 if (pressed_something_else) {
 896               		.loc 2 700 0
 897 02ae 8091 0000 		lds r24,pressed_something_else
 898 02b2 8823      		tst r24
 899 02b4 01F0      		breq .L90
 701:keyboards/Dactylv2/keymaps/Noah/keymap.c ****                    SEND_STRING(" ");
 900               		.loc 2 701 0
 901 02b6 80E0      		ldi r24,lo8(__c.3488)
 902 02b8 90E0      		ldi r25,hi8(__c.3488)
 903 02ba 0E94 0000 		call send_string_P
 904               	.LVL56:
 905               	.L90:
 702:keyboards/Dactylv2/keymaps/Noah/keymap.c ****                 }
 703:keyboards/Dactylv2/keymaps/Noah/keymap.c ****                 pressed_something_else=false;
 906               		.loc 2 703 0
 907 02be 1092 0000 		sts pressed_something_else,__zero_reg__
 908               	.L31:
 704:keyboards/Dactylv2/keymaps/Noah/keymap.c ****            }
 705:keyboards/Dactylv2/keymaps/Noah/keymap.c **** 
 706:keyboards/Dactylv2/keymaps/Noah/keymap.c ****            return false;
 707:keyboards/Dactylv2/keymaps/Noah/keymap.c **** 
 708:keyboards/Dactylv2/keymaps/Noah/keymap.c **** 	}
 709:keyboards/Dactylv2/keymaps/Noah/keymap.c **** 
 710:keyboards/Dactylv2/keymaps/Noah/keymap.c ****     return MACRO_NONE;
 711:keyboards/Dactylv2/keymaps/Noah/keymap.c **** }
 909               		.loc 2 711 0
 910 02c2 80E0      		ldi r24,0
 911 02c4 90E0      		ldi r25,0
 912               	/* epilogue start */
 913 02c6 CF91      		pop r28
 914               	.LVL57:
 915 02c8 0895      		ret
 916               		.cfi_endproc
 917               	.LFE30:
 919               		.section	.text.cmd_commands,"ax",@progbits
 920               	.global	cmd_commands
 922               	cmd_commands:
 923               	.LFB34:
 924               		.cfi_startproc
 925               	/* prologue: function */
 926               	/* frame size = 0 */
 927               	/* stack size = 0 */
 928               	.L__stack_usage = 0
 929 0000 0895      		ret
 930               		.cfi_endproc
 931               	.LFE34:
 933               		.section	.text.cmd,"ax",@progbits
 934               	.global	cmd
 936               	cmd:
 937               	.LFB32:
 712:keyboards/Dactylv2/keymaps/Noah/keymap.c **** 
 713:keyboards/Dactylv2/keymaps/Noah/keymap.c **** 
 714:keyboards/Dactylv2/keymaps/Noah/keymap.c **** void cmd_commands(qk_tap_dance_state_t *state, void *user_data) {
 715:keyboards/Dactylv2/keymaps/Noah/keymap.c **** }
 716:keyboards/Dactylv2/keymaps/Noah/keymap.c **** 
 717:keyboards/Dactylv2/keymaps/Noah/keymap.c **** 
 718:keyboards/Dactylv2/keymaps/Noah/keymap.c **** void cmd(qk_tap_dance_state_t *state, void *user_data) {
 938               		.loc 2 718 0
 939               		.cfi_startproc
 940               	.LVL58:
 941               	/* prologue: function */
 942               	/* frame size = 0 */
 943               	/* stack size = 0 */
 944               	.L__stack_usage = 0
 945 0000 0895      		ret
 946               		.cfi_endproc
 947               	.LFE32:
 949               		.section	.progmem.data.__c.3488,"a",@progbits
 952               	__c.3488:
 953 0000 2000      		.string	" "
 954               		.section	.progmem.data.__c.3486,"a",@progbits
 957               	__c.3486:
 958 0000 03E1 00   		.string	"\003\341"
 959               		.section	.progmem.data.__c.3484,"a",@progbits
 962               	__c.3484:
 963 0000 02E1 00   		.string	"\002\341"
 964               		.section	.progmem.data.__c.3481,"a",@progbits
 967               	__c.3481:
 968 0000 03E0 03E1 		.string	"\003\340\003\341\003\340\003\342\003\343"
 968      03E0 03E2 
 968      03E3 00
 969               		.section	.progmem.data.__c.3477,"a",@progbits
 972               	__c.3477:
 973 0000 03E3 00   		.string	"\003\343"
 974               		.section	.progmem.data.__c.3475,"a",@progbits
 977               	__c.3475:
 978 0000 02E3 00   		.string	"\002\343"
 979               		.section	.progmem.data.__c.3472,"a",@progbits
 982               	__c.3472:
 983 0000 03E1 00   		.string	"\003\341"
 984               		.section	.progmem.data.__c.3470,"a",@progbits
 987               	__c.3470:
 988 0000 02E1 00   		.string	"\002\341"
 989               		.section	.progmem.data.__c.3467,"a",@progbits
 992               	__c.3467:
 993 0000 03E1 00   		.string	"\003\341"
 994               		.section	.progmem.data.__c.3465,"a",@progbits
 997               	__c.3465:
 998 0000 03E1 00   		.string	"\003\341"
 999               		.section	.progmem.data.__c.3462,"a",@progbits
 1002               	__c.3462:
 1003 0000 0309 03E0 		.string	"\003\t\003\340\003\341"
 1003      03E1 00
 1004               		.section	.progmem.data.__c.3460,"a",@progbits
 1007               	__c.3460:
 1008 0000 02E0 02E1 		.string	"\002\340\002\341\002\t"
 1008      0209 00
 1009               		.section	.progmem.data.__c.3457,"a",@progbits
 1012               	__c.3457:
 1013 0000 0312 03E2 		.string	"\003\022\003\342\003\341"
 1013      03E1 00
 1014               		.section	.progmem.data.__c.3455,"a",@progbits
 1017               	__c.3455:
 1018 0000 02E2 02E1 		.string	"\002\342\002\341\002\022"
 1018      0212 00
 1019               		.section	.progmem.data.__c.3452,"a",@progbits
 1022               	__c.3452:
 1023 0000 0307 03E2 		.string	"\003\007\003\342\003\341"
 1023      03E1 00
 1024               		.section	.progmem.data.__c.3450,"a",@progbits
 1027               	__c.3450:
 1028 0000 02E2 02E1 		.string	"\002\342\002\341\002\007"
 1028      0207 00
 1029               		.section	.progmem.data.__c.3447,"a",@progbits
 1032               	__c.3447:
 1033 0000 031B 03E0 		.string	"\003\033\003\340\001)"
 1033      0129 00
 1034               		.section	.progmem.data.__c.3445,"a",@progbits
 1037               	__c.3445:
 1038 0000 02E0 021B 		.string	"\002\340\002\033"
 1038      00
 1039               		.section	.progmem.data.__c.3442,"a",@progbits
 1042               	__c.3442:
 1043 0000 0306 03E0 		.string	"\003\006\003\340\001)"
 1043      0129 00
 1044               		.section	.progmem.data.__c.3440,"a",@progbits
 1047               	__c.3440:
 1048 0000 02E0 0206 		.string	"\002\340\002\006"
 1048      00
 1049               		.section	.progmem.data.__c.3437,"a",@progbits
 1052               	__c.3437:
 1053 0000 030F 03E0 		.string	"\003\017\003\340\003\342"
 1053      03E2 00
 1054               		.section	.progmem.data.__c.3435,"a",@progbits
 1057               	__c.3435:
 1058 0000 02E2 02E0 		.string	"\002\342\002\340\002\017"
 1058      020F 00
 1059               		.section	.progmem.data.__c.3432,"a",@progbits
 1062               	__c.3432:
 1063 0000 031D 03E1 		.string	"\003\035\003\341\003\340"
 1063      03E0 00
 1064               		.section	.progmem.data.__c.3430,"a",@progbits
 1067               	__c.3430:
 1068 0000 02E1 02E0 		.string	"\002\341\002\340\002\035"
 1068      021D 00
 1069               		.section	.progmem.data.__c.3427,"a",@progbits
 1072               	__c.3427:
 1073 0000 032A 03E0 		.string	"\003*\003\340"
 1073      00
 1074               		.section	.progmem.data.__c.3425,"a",@progbits
 1077               	__c.3425:
 1078 0000 02E0 022A 		.string	"\002\340\002*"
 1078      00
 1079               		.section	.progmem.data.__c.3422,"a",@progbits
 1082               	__c.3422:
 1083 0000 034F 03E0 		.string	"\003O\003\340"
 1083      00
 1084               		.section	.progmem.data.__c.3420,"a",@progbits
 1087               	__c.3420:
 1088 0000 02E0 024F 		.string	"\002\340\002O"
 1088      00
 1089               		.section	.progmem.data.__c.3417,"a",@progbits
 1092               	__c.3417:
 1093 0000 0350 03E0 		.string	"\003P\003\340"
 1093      00
 1094               		.section	.progmem.data.__c.3415,"a",@progbits
 1097               	__c.3415:
 1098 0000 02E0 0250 		.string	"\002\340\002P"
 1098      00
 1099               		.section	.progmem.data.__c.3412,"a",@progbits
 1102               	__c.3412:
 1103 0000 034D 03E1 		.string	"\003M\003\341"
 1103      00
 1104               		.section	.progmem.data.__c.3410,"a",@progbits
 1107               	__c.3410:
 1108 0000 02E1 024D 		.string	"\002\341\002M"
 1108      00
 1109               		.section	.progmem.data.__c.3407,"a",@progbits
 1112               	__c.3407:
 1113 0000 034A 03E1 		.string	"\003J\003\341"
 1113      00
 1114               		.section	.progmem.data.__c.3405,"a",@progbits
 1117               	__c.3405:
 1118 0000 02E1 024A 		.string	"\002\341\002J"
 1118      00
 1119               		.section	.progmem.data.__c.3402,"a",@progbits
 1122               	__c.3402:
 1123 0000 034E 03E1 		.string	"\003N\003\341"
 1123      00
 1124               		.section	.progmem.data.__c.3400,"a",@progbits
 1127               	__c.3400:
 1128 0000 02E1 024E 		.string	"\002\341\002N"
 1128      00
 1129               		.section	.progmem.data.__c.3397,"a",@progbits
 1132               	__c.3397:
 1133 0000 034B 03E1 		.string	"\003K\003\341"
 1133      00
 1134               		.section	.progmem.data.__c.3395,"a",@progbits
 1137               	__c.3395:
 1138 0000 02E1 024B 		.string	"\002\341\002K"
 1138      00
 1139               		.section	.progmem.data.__c.3392,"a",@progbits
 1142               	__c.3392:
 1143 0000 034F 03E1 		.string	"\003O\003\341\003\340"
 1143      03E0 00
 1144               		.section	.progmem.data.__c.3390,"a",@progbits
 1147               	__c.3390:
 1148 0000 02E0 02E1 		.string	"\002\340\002\341\002O"
 1148      024F 00
 1149               		.section	.progmem.data.__c.3387,"a",@progbits
 1152               	__c.3387:
 1153 0000 0350 03E1 		.string	"\003P\003\341\003\340"
 1153      03E0 00
 1154               		.section	.progmem.data.__c.3385,"a",@progbits
 1157               	__c.3385:
 1158 0000 02E0 02E1 		.string	"\002\340\002\341\002P"
 1158      0250 00
 1159               		.section	.progmem.data.__c.3382,"a",@progbits
 1162               	__c.3382:
 1163 0000 0351 03E1 		.string	"\003Q\003\341"
 1163      00
 1164               		.section	.progmem.data.__c.3380,"a",@progbits
 1167               	__c.3380:
 1168 0000 02E1 0251 		.string	"\002\341\002Q"
 1168      00
 1169               		.section	.progmem.data.__c.3377,"a",@progbits
 1172               	__c.3377:
 1173 0000 0352 03E1 		.string	"\003R\003\341"
 1173      00
 1174               		.section	.progmem.data.__c.3375,"a",@progbits
 1177               	__c.3375:
 1178 0000 02E1 0252 		.string	"\002\341\002R"
 1178      00
 1179               		.section	.progmem.data.__c.3372,"a",@progbits
 1182               	__c.3372:
 1183 0000 034F 03E1 		.string	"\003O\003\341"
 1183      00
 1184               		.section	.progmem.data.__c.3370,"a",@progbits
 1187               	__c.3370:
 1188 0000 02E1 024F 		.string	"\002\341\002O"
 1188      00
 1189               		.section	.progmem.data.__c.3367,"a",@progbits
 1192               	__c.3367:
 1193 0000 0350 03E1 		.string	"\003P\003\341"
 1193      00
 1194               		.section	.progmem.data.__c.3365,"a",@progbits
 1197               	__c.3365:
 1198 0000 02E1 0250 		.string	"\002\341\002P\003\341"
 1198      03E1 00
 1199               		.section	.progmem.data.__c.3356,"a",@progbits
 1202               	__c.3356:
 1203 0000 012B 00   		.string	"\001+"
 1204               		.section	.progmem.data.__c.3354,"a",@progbits
 1207               	__c.3354:
 1208 0000 03E3 00   		.string	"\003\343"
 1209               		.section	.progmem.data.__c.3352,"a",@progbits
 1212               	__c.3352:
 1213 0000 02E3 00   		.string	"\002\343"
 1214               		.section	.progmem.data.__c.3350,"a",@progbits
 1217               	__c.3350:
 1218 0000 2000      		.string	" "
 1219               		.section	.progmem.data.__c.3348,"a",@progbits
 1222               	__c.3348:
 1223 0000 03E1 00   		.string	"\003\341"
 1224               		.section	.progmem.data.__c.3346,"a",@progbits
 1227               	__c.3346:
 1228 0000 02E1 00   		.string	"\002\341"
 1229               	.global	tap_dance_actions
 1230               		.section	.bss.tap_dance_actions,"aw",@nobits
 1233               	tap_dance_actions:
 1234               	.global	pressed_something_else_gui
 1235               		.section	.bss.pressed_something_else_gui,"aw",@nobits
 1238               	pressed_something_else_gui:
 1239 0000 00        		.zero	1
 1240               	.global	pressed_something_else
 1241               		.section	.bss.pressed_something_else,"aw",@nobits
 1244               	pressed_something_else:
 1245 0000 00        		.zero	1
 1246               	.global	select_active
 1247               		.section	.bss.select_active,"aw",@nobits
 1250               	select_active:
 1251 0000 00        		.zero	1
 1252               	.global	alt_down
 1253               		.section	.bss.alt_down,"aw",@nobits
 1256               	alt_down:
 1257 0000 00        		.zero	1
 1258               	.global	gui_down
 1259               		.section	.bss.gui_down,"aw",@nobits
 1262               	gui_down:
 1263 0000 00        		.zero	1
 1264               	.global	space_shift_down
 1265               		.section	.bss.space_shift_down,"aw",@nobits
 1268               	space_shift_down:
 1269 0000 00        		.zero	1
 1270               	.global	shift_down
 1271               		.section	.bss.shift_down,"aw",@nobits
 1274               	shift_down:
 1275 0000 00        		.zero	1
 1276               	.global	keymaps
 1277               		.section	.progmem.data.keymaps,"a",@progbits
 1280               	keymaps:
 1281 0000 3500      		.word	53
 1282 0002 1E00      		.word	30
 1283 0004 1F00      		.word	31
 1284 0006 2000      		.word	32
 1285 0008 2100      		.word	33
 1286 000a 2200      		.word	34
 1287 000c 2B00      		.word	43
 1288 000e 1400      		.word	20
 1289 0010 1A00      		.word	26
 1290 0012 0800      		.word	8
 1291 0014 1500      		.word	21
 1292 0016 1700      		.word	23
 1293 0018 3900      		.word	57
 1294 001a 0400      		.word	4
 1295 001c 1600      		.word	22
 1296 001e 0700      		.word	7
 1297 0020 0900      		.word	9
 1298 0022 0A00      		.word	10
 1299 0024 1530      		.word	12309
 1300 0026 1D00      		.word	29
 1301 0028 1B00      		.word	27
 1302 002a 0600      		.word	6
 1303 002c 1900      		.word	25
 1304 002e 0500      		.word	5
 1305 0030 0751      		.word	20743
 1306 0032 E000      		.word	224
 1307 0034 E300      		.word	227
 1308 0036 1530      		.word	12309
 1309 0038 E200      		.word	226
 1310 003a 0100      		.word	1
 1311 003c 4D00      		.word	77
 1312 003e 4A00      		.word	74
 1313 0040 3F00      		.word	63
 1314 0042 2900      		.word	41
 1315 0044 0000      		.word	0
 1316 0046 0000      		.word	0
 1317 0048 DB5C      		.word	23771
 1318 004a 1430      		.word	12308
 1319 004c 0000      		.word	0
 1320 004e 0000      		.word	0
 1321 0050 0000      		.word	0
 1322 0052 0000      		.word	0
 1323 0054 2E00      		.word	46
 1324 0056 2700      		.word	39
 1325 0058 2600      		.word	38
 1326 005a 2500      		.word	37
 1327 005c 2400      		.word	36
 1328 005e 2300      		.word	35
 1329 0060 2D00      		.word	45
 1330 0062 1300      		.word	19
 1331 0064 1200      		.word	18
 1332 0066 0C00      		.word	12
 1333 0068 1800      		.word	24
 1334 006a 1C00      		.word	28
 1335 006c 3400      		.word	52
 1336 006e 3300      		.word	51
 1337 0070 0F00      		.word	15
 1338 0072 0E00      		.word	14
 1339 0074 0D00      		.word	13
 1340 0076 0B00      		.word	11
 1341 0078 2800      		.word	40
 1342 007a 3800      		.word	56
 1343 007c 3700      		.word	55
 1344 007e 3600      		.word	54
 1345 0080 1000      		.word	16
 1346 0082 1100      		.word	17
 1347 0084 0100      		.word	1
 1348 0086 3100      		.word	49
 1349 0088 E000      		.word	224
 1350 008a 3000      		.word	48
 1351 008c 2F00      		.word	47
 1352 008e 0100      		.word	1
 1353 0090 4E00      		.word	78
 1354 0092 4B00      		.word	75
 1355 0094 0F06      		.word	1551
 1356 0096 4C00      		.word	76
 1357 0098 0000      		.word	0
 1358 009a 0000      		.word	0
 1359 009c 2A00      		.word	42
 1360 009e DA5C      		.word	23770
 1361 00a0 0000      		.word	0
 1362 00a2 0000      		.word	0
 1363 00a4 0000      		.word	0
 1364 00a6 0000      		.word	0
 1365 00a8 0100      		.word	1
 1366 00aa 0100      		.word	1
 1367 00ac 0100      		.word	1
 1368 00ae 0100      		.word	1
 1369 00b0 2104      		.word	1057
 1370 00b2 0100      		.word	1
 1371 00b4 0100      		.word	1
 1372 00b6 0100      		.word	1
 1373 00b8 1A01      		.word	282
 1374 00ba 0C30      		.word	12300
 1375 00bc 1501      		.word	277
 1376 00be 0100      		.word	1
 1377 00c0 0100      		.word	1
 1378 00c2 0401      		.word	260
 1379 00c4 1601      		.word	278
 1380 00c6 0100      		.word	1
 1381 00c8 0901      		.word	265
 1382 00ca 0100      		.word	1
 1383 00cc 1530      		.word	12309
 1384 00ce 1D01      		.word	285
 1385 00d0 1B01      		.word	283
 1386 00d2 0601      		.word	262
 1387 00d4 1901      		.word	281
 1388 00d6 0100      		.word	1
 1389 00d8 0100      		.word	1
 1390 00da 0100      		.word	1
 1391 00dc 0100      		.word	1
 1392 00de 1530      		.word	12309
 1393 00e0 0100      		.word	1
 1394 00e2 0100      		.word	1
 1395 00e4 0100      		.word	1
 1396 00e6 0100      		.word	1
 1397 00e8 0100      		.word	1
 1398 00ea 0100      		.word	1
 1399 00ec 0000      		.word	0
 1400 00ee 0000      		.word	0
 1401 00f0 0100      		.word	1
 1402 00f2 0100      		.word	1
 1403 00f4 0000      		.word	0
 1404 00f6 0000      		.word	0
 1405 00f8 0000      		.word	0
 1406 00fa 0000      		.word	0
 1407 00fc 0100      		.word	1
 1408 00fe 0100      		.word	1
 1409 0100 0100      		.word	1
 1410 0102 0100      		.word	1
 1411 0104 0100      		.word	1
 1412 0106 0100      		.word	1
 1413 0108 0100      		.word	1
 1414 010a 0100      		.word	1
 1415 010c 0B30      		.word	12299
 1416 010e 5200      		.word	82
 1417 0110 0A30      		.word	12298
 1418 0112 0100      		.word	1
 1419 0114 0100      		.word	1
 1420 0116 0100      		.word	1
 1421 0118 4F00      		.word	79
 1422 011a 5100      		.word	81
 1423 011c 5000      		.word	80
 1424 011e 4D00      		.word	77
 1425 0120 2804      		.word	1064
 1426 0122 0100      		.word	1
 1427 0124 0100      		.word	1
 1428 0126 0100      		.word	1
 1429 0128 0100      		.word	1
 1430 012a 0100      		.word	1
 1431 012c 0100      		.word	1
 1432 012e 0100      		.word	1
 1433 0130 0100      		.word	1
 1434 0132 3004      		.word	1072
 1435 0134 2F04      		.word	1071
 1436 0136 0100      		.word	1
 1437 0138 0100      		.word	1
 1438 013a 0100      		.word	1
 1439 013c 1505      		.word	1301
 1440 013e 0705      		.word	1287
 1441 0140 0000      		.word	0
 1442 0142 0000      		.word	0
 1443 0144 0100      		.word	1
 1444 0146 1730      		.word	12311
 1445 0148 0000      		.word	0
 1446 014a 0000      		.word	0
 1447 014c 0000      		.word	0
 1448 014e 0000      		.word	0
 1449 0150 0100      		.word	1
 1450 0152 0100      		.word	1
 1451 0154 0100      		.word	1
 1452 0156 0100      		.word	1
 1453 0158 2106      		.word	1569
 1454 015a 0100      		.word	1
 1455 015c 0100      		.word	1
 1456 015e 0100      		.word	1
 1457 0160 0100      		.word	1
 1458 0162 0100      		.word	1
 1459 0164 1506      		.word	1557
 1460 0166 0100      		.word	1
 1461 0168 0100      		.word	1
 1462 016a 0100      		.word	1
 1463 016c 0100      		.word	1
 1464 016e 0706      		.word	1543
 1465 0170 0906      		.word	1545
 1466 0172 0100      		.word	1
 1467 0174 0100      		.word	1
 1468 0176 1D03      		.word	797
 1469 0178 0100      		.word	1
 1470 017a 0100      		.word	1
 1471 017c 1505      		.word	1301
 1472 017e 0705      		.word	1287
 1473 0180 0100      		.word	1
 1474 0182 0100      		.word	1
 1475 0184 0100      		.word	1
 1476 0186 0100      		.word	1
 1477 0188 0100      		.word	1
 1478 018a 0100      		.word	1
 1479 018c 0100      		.word	1
 1480 018e 0100      		.word	1
 1481 0190 0100      		.word	1
 1482 0192 0100      		.word	1
 1483 0194 0000      		.word	0
 1484 0196 0000      		.word	0
 1485 0198 0100      		.word	1
 1486 019a 1430      		.word	12308
 1487 019c 0000      		.word	0
 1488 019e 0000      		.word	0
 1489 01a0 0000      		.word	0
 1490 01a2 0000      		.word	0
 1491 01a4 0100      		.word	1
 1492 01a6 0100      		.word	1
 1493 01a8 0100      		.word	1
 1494 01aa 0100      		.word	1
 1495 01ac 0100      		.word	1
 1496 01ae 0100      		.word	1
 1497 01b0 0100      		.word	1
 1498 01b2 0100      		.word	1
 1499 01b4 1206      		.word	1554
 1500 01b6 4B00      		.word	75
 1501 01b8 0100      		.word	1
 1502 01ba 0100      		.word	1
 1503 01bc 0100      		.word	1
 1504 01be 0100      		.word	1
 1505 01c0 0100      		.word	1
 1506 01c2 4E00      		.word	78
 1507 01c4 0100      		.word	1
 1508 01c6 4A00      		.word	74
 1509 01c8 0100      		.word	1
 1510 01ca 0100      		.word	1
 1511 01cc 0100      		.word	1
 1512 01ce 0100      		.word	1
 1513 01d0 0100      		.word	1
 1514 01d2 0100      		.word	1
 1515 01d4 0100      		.word	1
 1516 01d6 0100      		.word	1
 1517 01d8 0100      		.word	1
 1518 01da 0100      		.word	1
 1519 01dc 0100      		.word	1
 1520 01de 0100      		.word	1
 1521 01e0 0100      		.word	1
 1522 01e2 0100      		.word	1
 1523 01e4 1505      		.word	1301
 1524 01e6 0705      		.word	1287
 1525 01e8 0000      		.word	0
 1526 01ea 0000      		.word	0
 1527 01ec 0100      		.word	1
 1528 01ee 0100      		.word	1
 1529 01f0 0000      		.word	0
 1530 01f2 0000      		.word	0
 1531 01f4 0000      		.word	0
 1532 01f6 0000      		.word	0
 1533 01f8 0100      		.word	1
 1534 01fa 0100      		.word	1
 1535 01fc 0100      		.word	1
 1536 01fe 0100      		.word	1
 1537 0200 0100      		.word	1
 1538 0202 0100      		.word	1
 1539 0204 0100      		.word	1
 1540 0206 0100      		.word	1
 1541 0208 0100      		.word	1
 1542 020a 0100      		.word	1
 1543 020c 0100      		.word	1
 1544 020e 0100      		.word	1
 1545 0210 0100      		.word	1
 1546 0212 0100      		.word	1
 1547 0214 0100      		.word	1
 1548 0216 0100      		.word	1
 1549 0218 0100      		.word	1
 1550 021a 0100      		.word	1
 1551 021c 0100      		.word	1
 1552 021e 0100      		.word	1
 1553 0220 0100      		.word	1
 1554 0222 0100      		.word	1
 1555 0224 0100      		.word	1
 1556 0226 0100      		.word	1
 1557 0228 0100      		.word	1
 1558 022a 0100      		.word	1
 1559 022c 0100      		.word	1
 1560 022e 0100      		.word	1
 1561 0230 0100      		.word	1
 1562 0232 0100      		.word	1
 1563 0234 0100      		.word	1
 1564 0236 0100      		.word	1
 1565 0238 0100      		.word	1
 1566 023a 0100      		.word	1
 1567 023c 0000      		.word	0
 1568 023e 0000      		.word	0
 1569 0240 0100      		.word	1
 1570 0242 0100      		.word	1
 1571 0244 0000      		.word	0
 1572 0246 0000      		.word	0
 1573 0248 0000      		.word	0
 1574 024a 0000      		.word	0
 1575 024c 0100      		.word	1
 1576 024e 0100      		.word	1
 1577 0250 0100      		.word	1
 1578 0252 0100      		.word	1
 1579 0254 0100      		.word	1
 1580 0256 0100      		.word	1
 1581 0258 0100      		.word	1
 1582 025a 0100      		.word	1
 1583 025c 0100      		.word	1
 1584 025e 0100      		.word	1
 1585 0260 0100      		.word	1
 1586 0262 0100      		.word	1
 1587 0264 0100      		.word	1
 1588 0266 1604      		.word	1046
 1589 0268 0100      		.word	1
 1590 026a 0100      		.word	1
 1591 026c 0100      		.word	1
 1592 026e 0100      		.word	1
 1593 0270 0100      		.word	1
 1594 0272 0100      		.word	1
 1595 0274 0100      		.word	1
 1596 0276 0100      		.word	1
 1597 0278 0100      		.word	1
 1598 027a 0100      		.word	1
 1599 027c 0100      		.word	1
 1600 027e 0100      		.word	1
 1601 0280 0100      		.word	1
 1602 0282 0100      		.word	1
 1603 0284 0100      		.word	1
 1604 0286 0100      		.word	1
 1605 0288 0100      		.word	1
 1606 028a 0100      		.word	1
 1607 028c 0100      		.word	1
 1608 028e 0100      		.word	1
 1609 0290 0000      		.word	0
 1610 0292 0000      		.word	0
 1611 0294 4B01      		.word	331
 1612 0296 4E01      		.word	334
 1613 0298 0000      		.word	0
 1614 029a 0000      		.word	0
 1615 029c 0000      		.word	0
 1616 029e 0000      		.word	0
 1617 02a0 0100      		.word	1
 1618 02a2 0100      		.word	1
 1619 02a4 0100      		.word	1
 1620 02a6 0100      		.word	1
 1621 02a8 0100      		.word	1
 1622 02aa 0100      		.word	1
 1623 02ac 0100      		.word	1
 1624 02ae 0100      		.word	1
 1625 02b0 0100      		.word	1
 1626 02b2 0100      		.word	1
 1627 02b4 0100      		.word	1
 1628 02b6 0100      		.word	1
 1629 02b8 0100      		.word	1
 1630 02ba 0100      		.word	1
 1631 02bc 0100      		.word	1
 1632 02be 0100      		.word	1
 1633 02c0 0100      		.word	1
 1634 02c2 0100      		.word	1
 1635 02c4 1530      		.word	12309
 1636 02c6 0100      		.word	1
 1637 02c8 0100      		.word	1
 1638 02ca 0100      		.word	1
 1639 02cc 0100      		.word	1
 1640 02ce 0100      		.word	1
 1641 02d0 0100      		.word	1
 1642 02d2 0100      		.word	1
 1643 02d4 0100      		.word	1
 1644 02d6 1530      		.word	12309
 1645 02d8 0100      		.word	1
 1646 02da 0100      		.word	1
 1647 02dc 0100      		.word	1
 1648 02de 0100      		.word	1
 1649 02e0 0100      		.word	1
 1650 02e2 0100      		.word	1
 1651 02e4 0000      		.word	0
 1652 02e6 0000      		.word	0
 1653 02e8 0100      		.word	1
 1654 02ea 1430      		.word	12308
 1655 02ec 0000      		.word	0
 1656 02ee 0000      		.word	0
 1657 02f0 0000      		.word	0
 1658 02f2 0000      		.word	0
 1659 02f4 0100      		.word	1
 1660 02f6 0100      		.word	1
 1661 02f8 0100      		.word	1
 1662 02fa 0100      		.word	1
 1663 02fc 0100      		.word	1
 1664 02fe 0100      		.word	1
 1665 0300 0100      		.word	1
 1666 0302 0100      		.word	1
 1667 0304 0100      		.word	1
 1668 0306 0100      		.word	1
 1669 0308 0100      		.word	1
 1670 030a 0100      		.word	1
 1671 030c 0100      		.word	1
 1672 030e 0100      		.word	1
 1673 0310 0100      		.word	1
 1674 0312 0100      		.word	1
 1675 0314 0100      		.word	1
 1676 0316 0100      		.word	1
 1677 0318 0100      		.word	1
 1678 031a 0100      		.word	1
 1679 031c 0100      		.word	1
 1680 031e 0100      		.word	1
 1681 0320 0100      		.word	1
 1682 0322 0100      		.word	1
 1683 0324 0100      		.word	1
 1684 0326 0100      		.word	1
 1685 0328 0100      		.word	1
 1686 032a 0100      		.word	1
 1687 032c 0100      		.word	1
 1688 032e 0100      		.word	1
 1689 0330 0100      		.word	1
 1690 0332 0100      		.word	1
 1691 0334 0100      		.word	1
 1692 0336 0100      		.word	1
 1693 0338 0000      		.word	0
 1694 033a 0000      		.word	0
 1695 033c 0100      		.word	1
 1696 033e 0100      		.word	1
 1697 0340 0000      		.word	0
 1698 0342 0000      		.word	0
 1699 0344 0000      		.word	0
 1700 0346 0000      		.word	0
 1701 0348 0100      		.word	1
 1702 034a 0100      		.word	1
 1703 034c 0100      		.word	1
 1704 034e 0100      		.word	1
 1705 0350 0100      		.word	1
 1706 0352 0100      		.word	1
 1707 0354 0100      		.word	1
 1708 0356 0100      		.word	1
 1709 0358 0100      		.word	1
 1710 035a 0100      		.word	1
 1711 035c 0100      		.word	1
 1712 035e 0100      		.word	1
 1713 0360 0100      		.word	1
 1714 0362 0100      		.word	1
 1715 0364 0100      		.word	1
 1716 0366 0100      		.word	1
 1717 0368 0100      		.word	1
 1718 036a 0100      		.word	1
 1719 036c 1530      		.word	12309
 1720 036e 1D01      		.word	285
 1721 0370 1030      		.word	12304
 1722 0372 0F30      		.word	12303
 1723 0374 1901      		.word	281
 1724 0376 0100      		.word	1
 1725 0378 0100      		.word	1
 1726 037a 0100      		.word	1
 1727 037c 0100      		.word	1
 1728 037e 0651      		.word	20742
 1729 0380 0100      		.word	1
 1730 0382 0100      		.word	1
 1731 0384 0100      		.word	1
 1732 0386 0100      		.word	1
 1733 0388 0100      		.word	1
 1734 038a 0100      		.word	1
 1735 038c 0000      		.word	0
 1736 038e 0000      		.word	0
 1737 0390 0100      		.word	1
 1738 0392 1430      		.word	12308
 1739 0394 0000      		.word	0
 1740 0396 0000      		.word	0
 1741 0398 0000      		.word	0
 1742 039a 0000      		.word	0
 1743 039c 0100      		.word	1
 1744 039e 0100      		.word	1
 1745 03a0 0100      		.word	1
 1746 03a2 0100      		.word	1
 1747 03a4 0100      		.word	1
 1748 03a6 0100      		.word	1
 1749 03a8 0100      		.word	1
 1750 03aa 0100      		.word	1
 1751 03ac 0530      		.word	12293
 1752 03ae 0230      		.word	12290
 1753 03b0 0430      		.word	12292
 1754 03b2 0100      		.word	1
 1755 03b4 0100      		.word	1
 1756 03b6 0100      		.word	1
 1757 03b8 0130      		.word	12289
 1758 03ba 0330      		.word	12291
 1759 03bc 0030      		.word	12288
 1760 03be 0930      		.word	12297
 1761 03c0 0100      		.word	1
 1762 03c2 0100      		.word	1
 1763 03c4 0100      		.word	1
 1764 03c6 0100      		.word	1
 1765 03c8 0100      		.word	1
 1766 03ca 0100      		.word	1
 1767 03cc 0100      		.word	1
 1768 03ce 0100      		.word	1
 1769 03d0 0100      		.word	1
 1770 03d2 0100      		.word	1
 1771 03d4 0100      		.word	1
 1772 03d6 0100      		.word	1
 1773 03d8 0100      		.word	1
 1774 03da 0100      		.word	1
 1775 03dc 0100      		.word	1
 1776 03de 0100      		.word	1
 1777 03e0 0000      		.word	0
 1778 03e2 0000      		.word	0
 1779 03e4 0100      		.word	1
 1780 03e6 0100      		.word	1
 1781 03e8 0000      		.word	0
 1782 03ea 0000      		.word	0
 1783 03ec 0000      		.word	0
 1784 03ee 0000      		.word	0
 1785 03f0 0100      		.word	1
 1786 03f2 0100      		.word	1
 1787 03f4 0100      		.word	1
 1788 03f6 0100      		.word	1
 1789 03f8 0100      		.word	1
 1790 03fa 0100      		.word	1
 1791 03fc 0100      		.word	1
 1792 03fe 0100      		.word	1
 1793 0400 0100      		.word	1
 1794 0402 0100      		.word	1
 1795 0404 0100      		.word	1
 1796 0406 0100      		.word	1
 1797 0408 0100      		.word	1
 1798 040a 0100      		.word	1
 1799 040c 0100      		.word	1
 1800 040e 0100      		.word	1
 1801 0410 0100      		.word	1
 1802 0412 0100      		.word	1
 1803 0414 0100      		.word	1
 1804 0416 0100      		.word	1
 1805 0418 0100      		.word	1
 1806 041a 0100      		.word	1
 1807 041c 0100      		.word	1
 1808 041e 0100      		.word	1
 1809 0420 0100      		.word	1
 1810 0422 0100      		.word	1
 1811 0424 0100      		.word	1
 1812 0426 0100      		.word	1
 1813 0428 0100      		.word	1
 1814 042a 0100      		.word	1
 1815 042c 0100      		.word	1
 1816 042e 0100      		.word	1
 1817 0430 0100      		.word	1
 1818 0432 0100      		.word	1
 1819 0434 0000      		.word	0
 1820 0436 0000      		.word	0
 1821 0438 0100      		.word	1
 1822 043a 1430      		.word	12308
 1823 043c 0000      		.word	0
 1824 043e 0000      		.word	0
 1825 0440 0000      		.word	0
 1826 0442 0000      		.word	0
 1827 0444 0100      		.word	1
 1828 0446 0100      		.word	1
 1829 0448 0100      		.word	1
 1830 044a 0100      		.word	1
 1831 044c 0100      		.word	1
 1832 044e 0100      		.word	1
 1833 0450 0100      		.word	1
 1834 0452 0100      		.word	1
 1835 0454 0100      		.word	1
 1836 0456 0630      		.word	12294
 1837 0458 0100      		.word	1
 1838 045a 0100      		.word	1
 1839 045c 0100      		.word	1
 1840 045e 0100      		.word	1
 1841 0460 0100      		.word	1
 1842 0462 0730      		.word	12295
 1843 0464 0100      		.word	1
 1844 0466 0830      		.word	12296
 1845 0468 0100      		.word	1
 1846 046a 0100      		.word	1
 1847 046c 0100      		.word	1
 1848 046e 0100      		.word	1
 1849 0470 0100      		.word	1
 1850 0472 0100      		.word	1
 1851 0474 0100      		.word	1
 1852 0476 0100      		.word	1
 1853 0478 0100      		.word	1
 1854 047a 0100      		.word	1
 1855 047c 0100      		.word	1
 1856 047e 0100      		.word	1
 1857 0480 0100      		.word	1
 1858 0482 0100      		.word	1
 1859 0484 0100      		.word	1
 1860 0486 0100      		.word	1
 1861 0488 0000      		.word	0
 1862 048a 0000      		.word	0
 1863 048c 0100      		.word	1
 1864 048e 0100      		.word	1
 1865 0490 0000      		.word	0
 1866 0492 0000      		.word	0
 1867 0494 0000      		.word	0
 1868 0496 0000      		.word	0
 1869 0498 4500      		.word	69
 1870 049a 3A00      		.word	58
 1871 049c 3B00      		.word	59
 1872 049e 3C00      		.word	60
 1873 04a0 3D00      		.word	61
 1874 04a2 3E00      		.word	62
 1875 04a4 0100      		.word	1
 1876 04a6 0100      		.word	1
 1877 04a8 0100      		.word	1
 1878 04aa 0100      		.word	1
 1879 04ac 0100      		.word	1
 1880 04ae 0100      		.word	1
 1881 04b0 0100      		.word	1
 1882 04b2 0100      		.word	1
 1883 04b4 0100      		.word	1
 1884 04b6 0100      		.word	1
 1885 04b8 0100      		.word	1
 1886 04ba 0100      		.word	1
 1887 04bc 005C      		.word	23552
 1888 04be 135C      		.word	23571
 1889 04c0 1830      		.word	12312
 1890 04c2 0100      		.word	1
 1891 04c4 0100      		.word	1
 1892 04c6 0100      		.word	1
 1893 04c8 0100      		.word	1
 1894 04ca 0100      		.word	1
 1895 04cc 0100      		.word	1
 1896 04ce 0100      		.word	1
 1897 04d0 0100      		.word	1
 1898 04d2 0100      		.word	1
 1899 04d4 0100      		.word	1
 1900 04d6 0100      		.word	1
 1901 04d8 0100      		.word	1
 1902 04da 0100      		.word	1
 1903 04dc 0000      		.word	0
 1904 04de 0000      		.word	0
 1905 04e0 0100      		.word	1
 1906 04e2 0100      		.word	1
 1907 04e4 0000      		.word	0
 1908 04e6 0000      		.word	0
 1909 04e8 0000      		.word	0
 1910 04ea 0000      		.word	0
 1911 04ec 4400      		.word	68
 1912 04ee 4300      		.word	67
 1913 04f0 4200      		.word	66
 1914 04f2 4100      		.word	65
 1915 04f4 4000      		.word	64
 1916 04f6 3F00      		.word	63
 1917 04f8 0100      		.word	1
 1918 04fa 0100      		.word	1
 1919 04fc 0100      		.word	1
 1920 04fe 0100      		.word	1
 1921 0500 0100      		.word	1
 1922 0502 0100      		.word	1
 1923 0504 0100      		.word	1
 1924 0506 0100      		.word	1
 1925 0508 0100      		.word	1
 1926 050a 0100      		.word	1
 1927 050c 0100      		.word	1
 1928 050e 0100      		.word	1
 1929 0510 0100      		.word	1
 1930 0512 0100      		.word	1
 1931 0514 0100      		.word	1
 1932 0516 0100      		.word	1
 1933 0518 0100      		.word	1
 1934 051a 0100      		.word	1
 1935 051c 0100      		.word	1
 1936 051e 0100      		.word	1
 1937 0520 0100      		.word	1
 1938 0522 0100      		.word	1
 1939 0524 0100      		.word	1
 1940 0526 0100      		.word	1
 1941 0528 0100      		.word	1
 1942 052a 0100      		.word	1
 1943 052c 0100      		.word	1
 1944 052e 0100      		.word	1
 1945 0530 0000      		.word	0
 1946 0532 0000      		.word	0
 1947 0534 2C00      		.word	44
 1948 0536 2C00      		.word	44
 1949 0538 0000      		.word	0
 1950 053a 0000      		.word	0
 1951 053c 0000      		.word	0
 1952 053e 0000      		.word	0
 1953               		.text
 1954               	.Letext0:
 1955               		.file 3 "/usr/lib/avr/include/stdint.h"
 1956               		.file 4 "./tmk_core/common/keyboard.h"
 1957               		.file 5 "./tmk_core/common/action_macro.h"
 1958               		.file 6 "./tmk_core/common/action.h"
 1959               		.file 7 "./tmk_core/common/report.h"
 1960               		.file 8 "./tmk_core/common/keycode.h"
 1961               		.file 9 "./quantum/quantum_keycodes.h"
 1962               		.file 10 "./quantum/process_keycode/process_tap_dance.h"
 1963               		.file 11 "./tmk_core/common/action_util.h"
 1964               		.file 12 "./tmk_core/common/eeconfig.h"
 1965               		.file 13 "./tmk_core/common/action_layer.h"
 1966               		.file 14 "./quantum/quantum.h"