   1               		.file	"lufa.c"
   2               	__SP_H__ = 0x3e
   3               	__SP_L__ = 0x3d
   4               	__SREG__ = 0x3f
   5               	__tmp_reg__ = 0
   6               	__zero_reg__ = 1
   7               		.text
   8               	.Ltext0:
   9               		.cfi_sections	.debug_frame
  10               		.section	.text.keyboard_leds,"ax",@progbits
  12               	keyboard_leds:
  13               	.LFB138:
  14               		.file 1 "./tmk_core/protocol/lufa/lufa.c"
   1:./tmk_core/protocol/lufa/lufa.c **** /*
   2:./tmk_core/protocol/lufa/lufa.c ****  * Copyright 2012 Jun Wako <wakojun@gmail.com>
   3:./tmk_core/protocol/lufa/lufa.c ****  * This file is based on:
   4:./tmk_core/protocol/lufa/lufa.c ****  *     LUFA-120219/Demos/Device/Lowlevel/KeyboardMouse
   5:./tmk_core/protocol/lufa/lufa.c ****  *     LUFA-120219/Demos/Device/Lowlevel/GenericHID
   6:./tmk_core/protocol/lufa/lufa.c ****  */
   7:./tmk_core/protocol/lufa/lufa.c **** 
   8:./tmk_core/protocol/lufa/lufa.c **** /*
   9:./tmk_core/protocol/lufa/lufa.c ****              LUFA Library
  10:./tmk_core/protocol/lufa/lufa.c ****      Copyright (C) Dean Camera, 2012.
  11:./tmk_core/protocol/lufa/lufa.c **** 
  12:./tmk_core/protocol/lufa/lufa.c ****   dean [at] fourwalledcubicle [dot] com
  13:./tmk_core/protocol/lufa/lufa.c ****            www.lufa-lib.org
  14:./tmk_core/protocol/lufa/lufa.c **** */
  15:./tmk_core/protocol/lufa/lufa.c **** 
  16:./tmk_core/protocol/lufa/lufa.c **** /*
  17:./tmk_core/protocol/lufa/lufa.c ****   Copyright 2012  Dean Camera (dean [at] fourwalledcubicle [dot] com)
  18:./tmk_core/protocol/lufa/lufa.c ****   Copyright 2010  Denver Gingerich (denver [at] ossguy [dot] com)
  19:./tmk_core/protocol/lufa/lufa.c **** 
  20:./tmk_core/protocol/lufa/lufa.c ****   Permission to use, copy, modify, distribute, and sell this
  21:./tmk_core/protocol/lufa/lufa.c ****   software and its documentation for any purpose is hereby granted
  22:./tmk_core/protocol/lufa/lufa.c ****   without fee, provided that the above copyright notice appear in
  23:./tmk_core/protocol/lufa/lufa.c ****   all copies and that both that the copyright notice and this
  24:./tmk_core/protocol/lufa/lufa.c ****   permission notice and warranty disclaimer appear in supporting
  25:./tmk_core/protocol/lufa/lufa.c ****   documentation, and that the name of the author not be used in
  26:./tmk_core/protocol/lufa/lufa.c ****   advertising or publicity pertaining to distribution of the
  27:./tmk_core/protocol/lufa/lufa.c ****   software without specific, written prior permission.
  28:./tmk_core/protocol/lufa/lufa.c **** 
  29:./tmk_core/protocol/lufa/lufa.c ****   The author disclaim all warranties with regard to this
  30:./tmk_core/protocol/lufa/lufa.c ****   software, including all implied warranties of merchantability
  31:./tmk_core/protocol/lufa/lufa.c ****   and fitness.  In no event shall the author be liable for any
  32:./tmk_core/protocol/lufa/lufa.c ****   special, indirect or consequential damages or any damages
  33:./tmk_core/protocol/lufa/lufa.c ****   whatsoever resulting from loss of use, data or profits, whether
  34:./tmk_core/protocol/lufa/lufa.c ****   in an action of contract, negligence or other tortious action,
  35:./tmk_core/protocol/lufa/lufa.c ****   arising out of or in connection with the use or performance of
  36:./tmk_core/protocol/lufa/lufa.c ****   this software.
  37:./tmk_core/protocol/lufa/lufa.c **** */
  38:./tmk_core/protocol/lufa/lufa.c **** 
  39:./tmk_core/protocol/lufa/lufa.c **** #include "report.h"
  40:./tmk_core/protocol/lufa/lufa.c **** #include "host.h"
  41:./tmk_core/protocol/lufa/lufa.c **** #include "host_driver.h"
  42:./tmk_core/protocol/lufa/lufa.c **** #include "keyboard.h"
  43:./tmk_core/protocol/lufa/lufa.c **** #include "action.h"
  44:./tmk_core/protocol/lufa/lufa.c **** #include "led.h"
  45:./tmk_core/protocol/lufa/lufa.c **** #include "sendchar.h"
  46:./tmk_core/protocol/lufa/lufa.c **** #include "debug.h"
  47:./tmk_core/protocol/lufa/lufa.c **** #ifdef SLEEP_LED_ENABLE
  48:./tmk_core/protocol/lufa/lufa.c **** #include "sleep_led.h"
  49:./tmk_core/protocol/lufa/lufa.c **** #endif
  50:./tmk_core/protocol/lufa/lufa.c **** #include "suspend.h"
  51:./tmk_core/protocol/lufa/lufa.c **** 
  52:./tmk_core/protocol/lufa/lufa.c **** #include "usb_descriptor.h"
  53:./tmk_core/protocol/lufa/lufa.c **** #include "lufa.h"
  54:./tmk_core/protocol/lufa/lufa.c **** #include "quantum.h"
  55:./tmk_core/protocol/lufa/lufa.c **** #include <util/atomic.h>
  56:./tmk_core/protocol/lufa/lufa.c **** #include "outputselect.h"
  57:./tmk_core/protocol/lufa/lufa.c **** 
  58:./tmk_core/protocol/lufa/lufa.c **** #ifdef NKRO_ENABLE
  59:./tmk_core/protocol/lufa/lufa.c ****   #include "keycode_config.h"
  60:./tmk_core/protocol/lufa/lufa.c **** 
  61:./tmk_core/protocol/lufa/lufa.c ****   extern keymap_config_t keymap_config;
  62:./tmk_core/protocol/lufa/lufa.c **** #endif
  63:./tmk_core/protocol/lufa/lufa.c **** 
  64:./tmk_core/protocol/lufa/lufa.c **** 
  65:./tmk_core/protocol/lufa/lufa.c **** #ifdef AUDIO_ENABLE
  66:./tmk_core/protocol/lufa/lufa.c ****     #include <audio.h>
  67:./tmk_core/protocol/lufa/lufa.c **** #endif
  68:./tmk_core/protocol/lufa/lufa.c **** 
  69:./tmk_core/protocol/lufa/lufa.c **** #ifdef BLUETOOTH_ENABLE
  70:./tmk_core/protocol/lufa/lufa.c ****   #ifdef MODULE_ADAFRUIT_BLE
  71:./tmk_core/protocol/lufa/lufa.c ****     #include "adafruit_ble.h"
  72:./tmk_core/protocol/lufa/lufa.c ****   #else
  73:./tmk_core/protocol/lufa/lufa.c ****     #include "bluetooth.h"
  74:./tmk_core/protocol/lufa/lufa.c ****   #endif
  75:./tmk_core/protocol/lufa/lufa.c **** #endif
  76:./tmk_core/protocol/lufa/lufa.c **** 
  77:./tmk_core/protocol/lufa/lufa.c **** #ifdef VIRTSER_ENABLE
  78:./tmk_core/protocol/lufa/lufa.c ****     #include "virtser.h"
  79:./tmk_core/protocol/lufa/lufa.c **** #endif
  80:./tmk_core/protocol/lufa/lufa.c **** 
  81:./tmk_core/protocol/lufa/lufa.c **** #if (defined(RGB_MIDI) | defined(RGBLIGHT_ANIMATIONS)) & defined(RGBLIGHT_ENABLE)
  82:./tmk_core/protocol/lufa/lufa.c ****     #include "rgblight.h"
  83:./tmk_core/protocol/lufa/lufa.c **** #endif
  84:./tmk_core/protocol/lufa/lufa.c **** 
  85:./tmk_core/protocol/lufa/lufa.c **** #ifdef MIDI_ENABLE
  86:./tmk_core/protocol/lufa/lufa.c ****   #include "qmk_midi.h"
  87:./tmk_core/protocol/lufa/lufa.c **** #endif
  88:./tmk_core/protocol/lufa/lufa.c **** 
  89:./tmk_core/protocol/lufa/lufa.c **** #ifdef RAW_ENABLE
  90:./tmk_core/protocol/lufa/lufa.c **** 	#include "raw_hid.h"
  91:./tmk_core/protocol/lufa/lufa.c **** #endif
  92:./tmk_core/protocol/lufa/lufa.c **** 
  93:./tmk_core/protocol/lufa/lufa.c **** uint8_t keyboard_idle = 0;
  94:./tmk_core/protocol/lufa/lufa.c **** /* 0: Boot Protocol, 1: Report Protocol(default) */
  95:./tmk_core/protocol/lufa/lufa.c **** uint8_t keyboard_protocol = 1;
  96:./tmk_core/protocol/lufa/lufa.c **** static uint8_t keyboard_led_stats = 0;
  97:./tmk_core/protocol/lufa/lufa.c **** 
  98:./tmk_core/protocol/lufa/lufa.c **** static report_keyboard_t keyboard_report_sent;
  99:./tmk_core/protocol/lufa/lufa.c **** 
 100:./tmk_core/protocol/lufa/lufa.c **** /* Host driver */
 101:./tmk_core/protocol/lufa/lufa.c **** static uint8_t keyboard_leds(void);
 102:./tmk_core/protocol/lufa/lufa.c **** static void send_keyboard(report_keyboard_t *report);
 103:./tmk_core/protocol/lufa/lufa.c **** static void send_mouse(report_mouse_t *report);
 104:./tmk_core/protocol/lufa/lufa.c **** static void send_system(uint16_t data);
 105:./tmk_core/protocol/lufa/lufa.c **** static void send_consumer(uint16_t data);
 106:./tmk_core/protocol/lufa/lufa.c **** host_driver_t lufa_driver = {
 107:./tmk_core/protocol/lufa/lufa.c ****     keyboard_leds,
 108:./tmk_core/protocol/lufa/lufa.c ****     send_keyboard,
 109:./tmk_core/protocol/lufa/lufa.c ****     send_mouse,
 110:./tmk_core/protocol/lufa/lufa.c ****     send_system,
 111:./tmk_core/protocol/lufa/lufa.c ****     send_consumer,
 112:./tmk_core/protocol/lufa/lufa.c **** };
 113:./tmk_core/protocol/lufa/lufa.c **** 
 114:./tmk_core/protocol/lufa/lufa.c **** #ifdef VIRTSER_ENABLE
 115:./tmk_core/protocol/lufa/lufa.c **** USB_ClassInfo_CDC_Device_t cdc_device =
 116:./tmk_core/protocol/lufa/lufa.c **** {
 117:./tmk_core/protocol/lufa/lufa.c ****   .Config =
 118:./tmk_core/protocol/lufa/lufa.c ****   {
 119:./tmk_core/protocol/lufa/lufa.c ****     .ControlInterfaceNumber = CCI_INTERFACE,
 120:./tmk_core/protocol/lufa/lufa.c ****     .DataINEndpoint         =
 121:./tmk_core/protocol/lufa/lufa.c ****     {
 122:./tmk_core/protocol/lufa/lufa.c ****       .Address		= CDC_IN_EPADDR,
 123:./tmk_core/protocol/lufa/lufa.c ****       .Size		= CDC_EPSIZE,
 124:./tmk_core/protocol/lufa/lufa.c ****       .Banks		= 1,
 125:./tmk_core/protocol/lufa/lufa.c ****     },
 126:./tmk_core/protocol/lufa/lufa.c ****     .DataOUTEndpoint	    =
 127:./tmk_core/protocol/lufa/lufa.c ****     {
 128:./tmk_core/protocol/lufa/lufa.c ****       .Address		= CDC_OUT_EPADDR,
 129:./tmk_core/protocol/lufa/lufa.c ****       .Size		= CDC_EPSIZE,
 130:./tmk_core/protocol/lufa/lufa.c ****       .Banks		= 1,
 131:./tmk_core/protocol/lufa/lufa.c ****     },
 132:./tmk_core/protocol/lufa/lufa.c ****     .NotificationEndpoint   =
 133:./tmk_core/protocol/lufa/lufa.c ****     {
 134:./tmk_core/protocol/lufa/lufa.c ****       .Address		= CDC_NOTIFICATION_EPADDR,
 135:./tmk_core/protocol/lufa/lufa.c ****       .Size		= CDC_NOTIFICATION_EPSIZE,
 136:./tmk_core/protocol/lufa/lufa.c ****       .Banks		= 1,
 137:./tmk_core/protocol/lufa/lufa.c ****     },
 138:./tmk_core/protocol/lufa/lufa.c ****   },
 139:./tmk_core/protocol/lufa/lufa.c **** };
 140:./tmk_core/protocol/lufa/lufa.c **** #endif
 141:./tmk_core/protocol/lufa/lufa.c **** 
 142:./tmk_core/protocol/lufa/lufa.c **** #ifdef RAW_ENABLE
 143:./tmk_core/protocol/lufa/lufa.c **** 
 144:./tmk_core/protocol/lufa/lufa.c **** /** \brief Raw HID Send
 145:./tmk_core/protocol/lufa/lufa.c ****  *
 146:./tmk_core/protocol/lufa/lufa.c ****  * FIXME: Needs doc
 147:./tmk_core/protocol/lufa/lufa.c ****  */
 148:./tmk_core/protocol/lufa/lufa.c **** void raw_hid_send( uint8_t *data, uint8_t length )
 149:./tmk_core/protocol/lufa/lufa.c **** {
 150:./tmk_core/protocol/lufa/lufa.c **** 	// TODO: implement variable size packet
 151:./tmk_core/protocol/lufa/lufa.c **** 	if ( length != RAW_EPSIZE )
 152:./tmk_core/protocol/lufa/lufa.c **** 	{
 153:./tmk_core/protocol/lufa/lufa.c **** 		return;
 154:./tmk_core/protocol/lufa/lufa.c **** 	}
 155:./tmk_core/protocol/lufa/lufa.c **** 
 156:./tmk_core/protocol/lufa/lufa.c **** 	if (USB_DeviceState != DEVICE_STATE_Configured)
 157:./tmk_core/protocol/lufa/lufa.c **** 	{
 158:./tmk_core/protocol/lufa/lufa.c **** 		return;
 159:./tmk_core/protocol/lufa/lufa.c **** 	}
 160:./tmk_core/protocol/lufa/lufa.c **** 
 161:./tmk_core/protocol/lufa/lufa.c **** 	// TODO: decide if we allow calls to raw_hid_send() in the middle
 162:./tmk_core/protocol/lufa/lufa.c **** 	// of other endpoint usage.
 163:./tmk_core/protocol/lufa/lufa.c **** 	uint8_t ep = Endpoint_GetCurrentEndpoint();
 164:./tmk_core/protocol/lufa/lufa.c **** 
 165:./tmk_core/protocol/lufa/lufa.c **** 	Endpoint_SelectEndpoint(RAW_IN_EPNUM);
 166:./tmk_core/protocol/lufa/lufa.c **** 
 167:./tmk_core/protocol/lufa/lufa.c **** 	// Check to see if the host is ready to accept another packet
 168:./tmk_core/protocol/lufa/lufa.c **** 	if (Endpoint_IsINReady())
 169:./tmk_core/protocol/lufa/lufa.c **** 	{
 170:./tmk_core/protocol/lufa/lufa.c **** 		// Write data
 171:./tmk_core/protocol/lufa/lufa.c **** 		Endpoint_Write_Stream_LE(data, RAW_EPSIZE, NULL);
 172:./tmk_core/protocol/lufa/lufa.c **** 		// Finalize the stream transfer to send the last packet
 173:./tmk_core/protocol/lufa/lufa.c **** 		Endpoint_ClearIN();
 174:./tmk_core/protocol/lufa/lufa.c **** 	}
 175:./tmk_core/protocol/lufa/lufa.c **** 
 176:./tmk_core/protocol/lufa/lufa.c **** 	Endpoint_SelectEndpoint(ep);
 177:./tmk_core/protocol/lufa/lufa.c **** }
 178:./tmk_core/protocol/lufa/lufa.c **** 
 179:./tmk_core/protocol/lufa/lufa.c **** /** \brief Raw HID Receive
 180:./tmk_core/protocol/lufa/lufa.c ****  *
 181:./tmk_core/protocol/lufa/lufa.c ****  * FIXME: Needs doc
 182:./tmk_core/protocol/lufa/lufa.c ****  */
 183:./tmk_core/protocol/lufa/lufa.c **** __attribute__ ((weak))
 184:./tmk_core/protocol/lufa/lufa.c **** void raw_hid_receive( uint8_t *data, uint8_t length )
 185:./tmk_core/protocol/lufa/lufa.c **** {
 186:./tmk_core/protocol/lufa/lufa.c **** 	// Users should #include "raw_hid.h" in their own code
 187:./tmk_core/protocol/lufa/lufa.c **** 	// and implement this function there. Leave this as weak linkage
 188:./tmk_core/protocol/lufa/lufa.c **** 	// so users can opt to not handle data coming in.
 189:./tmk_core/protocol/lufa/lufa.c **** }
 190:./tmk_core/protocol/lufa/lufa.c **** 
 191:./tmk_core/protocol/lufa/lufa.c **** /** \brief Raw HID Task
 192:./tmk_core/protocol/lufa/lufa.c ****  *
 193:./tmk_core/protocol/lufa/lufa.c ****  * FIXME: Needs doc
 194:./tmk_core/protocol/lufa/lufa.c ****  */
 195:./tmk_core/protocol/lufa/lufa.c **** static void raw_hid_task(void)
 196:./tmk_core/protocol/lufa/lufa.c **** {
 197:./tmk_core/protocol/lufa/lufa.c **** 	// Create a temporary buffer to hold the read in data from the host
 198:./tmk_core/protocol/lufa/lufa.c **** 	uint8_t data[RAW_EPSIZE];
 199:./tmk_core/protocol/lufa/lufa.c **** 	bool data_read = false;
 200:./tmk_core/protocol/lufa/lufa.c **** 
 201:./tmk_core/protocol/lufa/lufa.c **** 	// Device must be connected and configured for the task to run
 202:./tmk_core/protocol/lufa/lufa.c **** 	if (USB_DeviceState != DEVICE_STATE_Configured)
 203:./tmk_core/protocol/lufa/lufa.c **** 	return;
 204:./tmk_core/protocol/lufa/lufa.c **** 
 205:./tmk_core/protocol/lufa/lufa.c **** 	Endpoint_SelectEndpoint(RAW_OUT_EPNUM);
 206:./tmk_core/protocol/lufa/lufa.c **** 
 207:./tmk_core/protocol/lufa/lufa.c **** 	// Check to see if a packet has been sent from the host
 208:./tmk_core/protocol/lufa/lufa.c **** 	if (Endpoint_IsOUTReceived())
 209:./tmk_core/protocol/lufa/lufa.c **** 	{
 210:./tmk_core/protocol/lufa/lufa.c **** 		// Check to see if the packet contains data
 211:./tmk_core/protocol/lufa/lufa.c **** 		if (Endpoint_IsReadWriteAllowed())
 212:./tmk_core/protocol/lufa/lufa.c **** 		{
 213:./tmk_core/protocol/lufa/lufa.c **** 			/* Read data */
 214:./tmk_core/protocol/lufa/lufa.c **** 			Endpoint_Read_Stream_LE(data, sizeof(data), NULL);
 215:./tmk_core/protocol/lufa/lufa.c **** 			data_read = true;
 216:./tmk_core/protocol/lufa/lufa.c **** 		}
 217:./tmk_core/protocol/lufa/lufa.c **** 
 218:./tmk_core/protocol/lufa/lufa.c **** 		// Finalize the stream transfer to receive the last packet
 219:./tmk_core/protocol/lufa/lufa.c **** 		Endpoint_ClearOUT();
 220:./tmk_core/protocol/lufa/lufa.c **** 
 221:./tmk_core/protocol/lufa/lufa.c **** 		if ( data_read )
 222:./tmk_core/protocol/lufa/lufa.c **** 		{
 223:./tmk_core/protocol/lufa/lufa.c **** 			raw_hid_receive( data, sizeof(data) );
 224:./tmk_core/protocol/lufa/lufa.c **** 		}
 225:./tmk_core/protocol/lufa/lufa.c **** 	}
 226:./tmk_core/protocol/lufa/lufa.c **** }
 227:./tmk_core/protocol/lufa/lufa.c **** #endif
 228:./tmk_core/protocol/lufa/lufa.c **** 
 229:./tmk_core/protocol/lufa/lufa.c **** /*******************************************************************************
 230:./tmk_core/protocol/lufa/lufa.c ****  * Console
 231:./tmk_core/protocol/lufa/lufa.c ****  ******************************************************************************/
 232:./tmk_core/protocol/lufa/lufa.c **** #ifdef CONSOLE_ENABLE
 233:./tmk_core/protocol/lufa/lufa.c **** /** \brief Console Task
 234:./tmk_core/protocol/lufa/lufa.c ****  *
 235:./tmk_core/protocol/lufa/lufa.c ****  * FIXME: Needs doc
 236:./tmk_core/protocol/lufa/lufa.c ****  */
 237:./tmk_core/protocol/lufa/lufa.c **** static void Console_Task(void)
 238:./tmk_core/protocol/lufa/lufa.c **** {
 239:./tmk_core/protocol/lufa/lufa.c ****     /* Device must be connected and configured for the task to run */
 240:./tmk_core/protocol/lufa/lufa.c ****     if (USB_DeviceState != DEVICE_STATE_Configured)
 241:./tmk_core/protocol/lufa/lufa.c ****         return;
 242:./tmk_core/protocol/lufa/lufa.c **** 
 243:./tmk_core/protocol/lufa/lufa.c ****     uint8_t ep = Endpoint_GetCurrentEndpoint();
 244:./tmk_core/protocol/lufa/lufa.c **** 
 245:./tmk_core/protocol/lufa/lufa.c **** #if 0
 246:./tmk_core/protocol/lufa/lufa.c ****     // TODO: impl receivechar()/recvchar()
 247:./tmk_core/protocol/lufa/lufa.c ****     Endpoint_SelectEndpoint(CONSOLE_OUT_EPNUM);
 248:./tmk_core/protocol/lufa/lufa.c **** 
 249:./tmk_core/protocol/lufa/lufa.c ****     /* Check to see if a packet has been sent from the host */
 250:./tmk_core/protocol/lufa/lufa.c ****     if (Endpoint_IsOUTReceived())
 251:./tmk_core/protocol/lufa/lufa.c ****     {
 252:./tmk_core/protocol/lufa/lufa.c ****         /* Check to see if the packet contains data */
 253:./tmk_core/protocol/lufa/lufa.c ****         if (Endpoint_IsReadWriteAllowed())
 254:./tmk_core/protocol/lufa/lufa.c ****         {
 255:./tmk_core/protocol/lufa/lufa.c ****             /* Create a temporary buffer to hold the read in report from the host */
 256:./tmk_core/protocol/lufa/lufa.c ****             uint8_t ConsoleData[CONSOLE_EPSIZE];
 257:./tmk_core/protocol/lufa/lufa.c **** 
 258:./tmk_core/protocol/lufa/lufa.c ****             /* Read Console Report Data */
 259:./tmk_core/protocol/lufa/lufa.c ****             Endpoint_Read_Stream_LE(&ConsoleData, sizeof(ConsoleData), NULL);
 260:./tmk_core/protocol/lufa/lufa.c **** 
 261:./tmk_core/protocol/lufa/lufa.c ****             /* Process Console Report Data */
 262:./tmk_core/protocol/lufa/lufa.c ****             //ProcessConsoleHIDReport(ConsoleData);
 263:./tmk_core/protocol/lufa/lufa.c ****         }
 264:./tmk_core/protocol/lufa/lufa.c **** 
 265:./tmk_core/protocol/lufa/lufa.c ****         /* Finalize the stream transfer to send the last packet */
 266:./tmk_core/protocol/lufa/lufa.c ****         Endpoint_ClearOUT();
 267:./tmk_core/protocol/lufa/lufa.c ****     }
 268:./tmk_core/protocol/lufa/lufa.c **** #endif
 269:./tmk_core/protocol/lufa/lufa.c **** 
 270:./tmk_core/protocol/lufa/lufa.c ****     /* IN packet */
 271:./tmk_core/protocol/lufa/lufa.c ****     Endpoint_SelectEndpoint(CONSOLE_IN_EPNUM);
 272:./tmk_core/protocol/lufa/lufa.c ****     if (!Endpoint_IsEnabled() || !Endpoint_IsConfigured()) {
 273:./tmk_core/protocol/lufa/lufa.c ****         Endpoint_SelectEndpoint(ep);
 274:./tmk_core/protocol/lufa/lufa.c ****         return;
 275:./tmk_core/protocol/lufa/lufa.c ****     }
 276:./tmk_core/protocol/lufa/lufa.c **** 
 277:./tmk_core/protocol/lufa/lufa.c ****     // fill empty bank
 278:./tmk_core/protocol/lufa/lufa.c ****     while (Endpoint_IsReadWriteAllowed())
 279:./tmk_core/protocol/lufa/lufa.c ****         Endpoint_Write_8(0);
 280:./tmk_core/protocol/lufa/lufa.c **** 
 281:./tmk_core/protocol/lufa/lufa.c ****     // flash senchar packet
 282:./tmk_core/protocol/lufa/lufa.c ****     if (Endpoint_IsINReady()) {
 283:./tmk_core/protocol/lufa/lufa.c ****         Endpoint_ClearIN();
 284:./tmk_core/protocol/lufa/lufa.c ****     }
 285:./tmk_core/protocol/lufa/lufa.c **** 
 286:./tmk_core/protocol/lufa/lufa.c ****     Endpoint_SelectEndpoint(ep);
 287:./tmk_core/protocol/lufa/lufa.c **** }
 288:./tmk_core/protocol/lufa/lufa.c **** #endif
 289:./tmk_core/protocol/lufa/lufa.c **** 
 290:./tmk_core/protocol/lufa/lufa.c **** 
 291:./tmk_core/protocol/lufa/lufa.c **** /*******************************************************************************
 292:./tmk_core/protocol/lufa/lufa.c ****  * USB Events
 293:./tmk_core/protocol/lufa/lufa.c ****  ******************************************************************************/
 294:./tmk_core/protocol/lufa/lufa.c **** /*
 295:./tmk_core/protocol/lufa/lufa.c ****  * Event Order of Plug in:
 296:./tmk_core/protocol/lufa/lufa.c ****  * 0) EVENT_USB_Device_Connect
 297:./tmk_core/protocol/lufa/lufa.c ****  * 1) EVENT_USB_Device_Suspend
 298:./tmk_core/protocol/lufa/lufa.c ****  * 2) EVENT_USB_Device_Reset
 299:./tmk_core/protocol/lufa/lufa.c ****  * 3) EVENT_USB_Device_Wake
 300:./tmk_core/protocol/lufa/lufa.c **** */
 301:./tmk_core/protocol/lufa/lufa.c **** /** \brief Event USB Device Connect
 302:./tmk_core/protocol/lufa/lufa.c ****  *
 303:./tmk_core/protocol/lufa/lufa.c ****  * FIXME: Needs doc
 304:./tmk_core/protocol/lufa/lufa.c ****  */
 305:./tmk_core/protocol/lufa/lufa.c **** void EVENT_USB_Device_Connect(void)
 306:./tmk_core/protocol/lufa/lufa.c **** {
 307:./tmk_core/protocol/lufa/lufa.c ****     print("[C]");
 308:./tmk_core/protocol/lufa/lufa.c ****     /* For battery powered device */
 309:./tmk_core/protocol/lufa/lufa.c ****     if (!USB_IsInitialized) {
 310:./tmk_core/protocol/lufa/lufa.c ****         USB_Disable();
 311:./tmk_core/protocol/lufa/lufa.c ****         USB_Init();
 312:./tmk_core/protocol/lufa/lufa.c ****         USB_Device_EnableSOFEvents();
 313:./tmk_core/protocol/lufa/lufa.c ****     }
 314:./tmk_core/protocol/lufa/lufa.c **** }
 315:./tmk_core/protocol/lufa/lufa.c **** 
 316:./tmk_core/protocol/lufa/lufa.c **** /** \brief Event USB Device Connect
 317:./tmk_core/protocol/lufa/lufa.c ****  *
 318:./tmk_core/protocol/lufa/lufa.c ****  * FIXME: Needs doc
 319:./tmk_core/protocol/lufa/lufa.c ****  */
 320:./tmk_core/protocol/lufa/lufa.c **** void EVENT_USB_Device_Disconnect(void)
 321:./tmk_core/protocol/lufa/lufa.c **** {
 322:./tmk_core/protocol/lufa/lufa.c ****     print("[D]");
 323:./tmk_core/protocol/lufa/lufa.c ****     /* For battery powered device */
 324:./tmk_core/protocol/lufa/lufa.c ****     USB_IsInitialized = false;
 325:./tmk_core/protocol/lufa/lufa.c **** /* TODO: This doesn't work. After several plug in/outs can not be enumerated.
 326:./tmk_core/protocol/lufa/lufa.c ****     if (USB_IsInitialized) {
 327:./tmk_core/protocol/lufa/lufa.c ****         USB_Disable();  // Disable all interrupts
 328:./tmk_core/protocol/lufa/lufa.c **** 	USB_Controller_Enable();
 329:./tmk_core/protocol/lufa/lufa.c ****         USB_INT_Enable(USB_INT_VBUSTI);
 330:./tmk_core/protocol/lufa/lufa.c ****     }
 331:./tmk_core/protocol/lufa/lufa.c **** */
 332:./tmk_core/protocol/lufa/lufa.c **** }
 333:./tmk_core/protocol/lufa/lufa.c **** 
 334:./tmk_core/protocol/lufa/lufa.c **** /** \brief Event USB Device Connect
 335:./tmk_core/protocol/lufa/lufa.c ****  *
 336:./tmk_core/protocol/lufa/lufa.c ****  * FIXME: Needs doc
 337:./tmk_core/protocol/lufa/lufa.c ****  */
 338:./tmk_core/protocol/lufa/lufa.c **** void EVENT_USB_Device_Reset(void)
 339:./tmk_core/protocol/lufa/lufa.c **** {
 340:./tmk_core/protocol/lufa/lufa.c ****     print("[R]");
 341:./tmk_core/protocol/lufa/lufa.c **** }
 342:./tmk_core/protocol/lufa/lufa.c **** 
 343:./tmk_core/protocol/lufa/lufa.c **** /** \brief Event USB Device Connect
 344:./tmk_core/protocol/lufa/lufa.c ****  *
 345:./tmk_core/protocol/lufa/lufa.c ****  * FIXME: Needs doc
 346:./tmk_core/protocol/lufa/lufa.c ****  */
 347:./tmk_core/protocol/lufa/lufa.c **** void EVENT_USB_Device_Suspend()
 348:./tmk_core/protocol/lufa/lufa.c **** {
 349:./tmk_core/protocol/lufa/lufa.c ****     print("[S]");
 350:./tmk_core/protocol/lufa/lufa.c **** #ifdef SLEEP_LED_ENABLE
 351:./tmk_core/protocol/lufa/lufa.c ****     sleep_led_enable();
 352:./tmk_core/protocol/lufa/lufa.c **** #endif
 353:./tmk_core/protocol/lufa/lufa.c **** }
 354:./tmk_core/protocol/lufa/lufa.c **** 
 355:./tmk_core/protocol/lufa/lufa.c **** /** \brief Event USB Device Connect
 356:./tmk_core/protocol/lufa/lufa.c ****  *
 357:./tmk_core/protocol/lufa/lufa.c ****  * FIXME: Needs doc
 358:./tmk_core/protocol/lufa/lufa.c ****  */
 359:./tmk_core/protocol/lufa/lufa.c **** void EVENT_USB_Device_WakeUp()
 360:./tmk_core/protocol/lufa/lufa.c **** {
 361:./tmk_core/protocol/lufa/lufa.c ****     print("[W]");
 362:./tmk_core/protocol/lufa/lufa.c ****     suspend_wakeup_init();
 363:./tmk_core/protocol/lufa/lufa.c **** 
 364:./tmk_core/protocol/lufa/lufa.c **** #ifdef SLEEP_LED_ENABLE
 365:./tmk_core/protocol/lufa/lufa.c ****     sleep_led_disable();
 366:./tmk_core/protocol/lufa/lufa.c ****     // NOTE: converters may not accept this
 367:./tmk_core/protocol/lufa/lufa.c ****     led_set(host_keyboard_leds());
 368:./tmk_core/protocol/lufa/lufa.c **** #endif
 369:./tmk_core/protocol/lufa/lufa.c **** }
 370:./tmk_core/protocol/lufa/lufa.c **** 
 371:./tmk_core/protocol/lufa/lufa.c **** 
 372:./tmk_core/protocol/lufa/lufa.c **** 
 373:./tmk_core/protocol/lufa/lufa.c **** #ifdef CONSOLE_ENABLE
 374:./tmk_core/protocol/lufa/lufa.c **** static bool console_flush = false;
 375:./tmk_core/protocol/lufa/lufa.c **** #define CONSOLE_FLUSH_SET(b)   do { \
 376:./tmk_core/protocol/lufa/lufa.c ****   ATOMIC_BLOCK(ATOMIC_RESTORESTATE) {\
 377:./tmk_core/protocol/lufa/lufa.c ****     console_flush = b; \
 378:./tmk_core/protocol/lufa/lufa.c ****   } \
 379:./tmk_core/protocol/lufa/lufa.c **** } while (0)
 380:./tmk_core/protocol/lufa/lufa.c **** 
 381:./tmk_core/protocol/lufa/lufa.c **** /** \brief Event USB Device Start Of Frame
 382:./tmk_core/protocol/lufa/lufa.c ****  *
 383:./tmk_core/protocol/lufa/lufa.c ****  * FIXME: Needs doc
 384:./tmk_core/protocol/lufa/lufa.c ****  * called every 1ms
 385:./tmk_core/protocol/lufa/lufa.c ****  */
 386:./tmk_core/protocol/lufa/lufa.c **** void EVENT_USB_Device_StartOfFrame(void)
 387:./tmk_core/protocol/lufa/lufa.c **** {
 388:./tmk_core/protocol/lufa/lufa.c ****     static uint8_t count;
 389:./tmk_core/protocol/lufa/lufa.c ****     if (++count % 50) return;
 390:./tmk_core/protocol/lufa/lufa.c ****     count = 0;
 391:./tmk_core/protocol/lufa/lufa.c **** 
 392:./tmk_core/protocol/lufa/lufa.c ****     if (!console_flush) return;
 393:./tmk_core/protocol/lufa/lufa.c ****     Console_Task();
 394:./tmk_core/protocol/lufa/lufa.c ****     console_flush = false;
 395:./tmk_core/protocol/lufa/lufa.c **** }
 396:./tmk_core/protocol/lufa/lufa.c **** 
 397:./tmk_core/protocol/lufa/lufa.c **** #endif
 398:./tmk_core/protocol/lufa/lufa.c **** 
 399:./tmk_core/protocol/lufa/lufa.c **** /** \brief Event handler for the USB_ConfigurationChanged event.
 400:./tmk_core/protocol/lufa/lufa.c ****  *
 401:./tmk_core/protocol/lufa/lufa.c ****  * This is fired when the host sets the current configuration of the USB device after enumeration.
 402:./tmk_core/protocol/lufa/lufa.c ****  *
 403:./tmk_core/protocol/lufa/lufa.c ****  * ATMega32u2 supports dual bank(ping-pong mode) only on endpoint 3 and 4,
 404:./tmk_core/protocol/lufa/lufa.c ****  * it is safe to use single bank for all endpoints.
 405:./tmk_core/protocol/lufa/lufa.c ****  */
 406:./tmk_core/protocol/lufa/lufa.c **** void EVENT_USB_Device_ConfigurationChanged(void)
 407:./tmk_core/protocol/lufa/lufa.c **** {
 408:./tmk_core/protocol/lufa/lufa.c ****     bool ConfigSuccess = true;
 409:./tmk_core/protocol/lufa/lufa.c **** 
 410:./tmk_core/protocol/lufa/lufa.c ****     /* Setup Keyboard HID Report Endpoints */
 411:./tmk_core/protocol/lufa/lufa.c ****     ConfigSuccess &= ENDPOINT_CONFIG(KEYBOARD_IN_EPNUM, EP_TYPE_INTERRUPT, ENDPOINT_DIR_IN,
 412:./tmk_core/protocol/lufa/lufa.c ****                                      KEYBOARD_EPSIZE, ENDPOINT_BANK_SINGLE);
 413:./tmk_core/protocol/lufa/lufa.c **** 
 414:./tmk_core/protocol/lufa/lufa.c **** #ifdef MOUSE_ENABLE
 415:./tmk_core/protocol/lufa/lufa.c ****     /* Setup Mouse HID Report Endpoint */
 416:./tmk_core/protocol/lufa/lufa.c ****     ConfigSuccess &= ENDPOINT_CONFIG(MOUSE_IN_EPNUM, EP_TYPE_INTERRUPT, ENDPOINT_DIR_IN,
 417:./tmk_core/protocol/lufa/lufa.c ****                                      MOUSE_EPSIZE, ENDPOINT_BANK_SINGLE);
 418:./tmk_core/protocol/lufa/lufa.c **** #endif
 419:./tmk_core/protocol/lufa/lufa.c **** 
 420:./tmk_core/protocol/lufa/lufa.c **** #ifdef EXTRAKEY_ENABLE
 421:./tmk_core/protocol/lufa/lufa.c ****     /* Setup Extra HID Report Endpoint */
 422:./tmk_core/protocol/lufa/lufa.c ****     ConfigSuccess &= ENDPOINT_CONFIG(EXTRAKEY_IN_EPNUM, EP_TYPE_INTERRUPT, ENDPOINT_DIR_IN,
 423:./tmk_core/protocol/lufa/lufa.c ****                                      EXTRAKEY_EPSIZE, ENDPOINT_BANK_SINGLE);
 424:./tmk_core/protocol/lufa/lufa.c **** #endif
 425:./tmk_core/protocol/lufa/lufa.c **** 
 426:./tmk_core/protocol/lufa/lufa.c **** #ifdef RAW_ENABLE
 427:./tmk_core/protocol/lufa/lufa.c ****     /* Setup Raw HID Report Endpoints */
 428:./tmk_core/protocol/lufa/lufa.c ****     ConfigSuccess &= ENDPOINT_CONFIG(RAW_IN_EPNUM, EP_TYPE_INTERRUPT, ENDPOINT_DIR_IN,
 429:./tmk_core/protocol/lufa/lufa.c **** 									 RAW_EPSIZE, ENDPOINT_BANK_SINGLE);
 430:./tmk_core/protocol/lufa/lufa.c ****     ConfigSuccess &= ENDPOINT_CONFIG(RAW_OUT_EPNUM, EP_TYPE_INTERRUPT, ENDPOINT_DIR_OUT,
 431:./tmk_core/protocol/lufa/lufa.c **** 									 RAW_EPSIZE, ENDPOINT_BANK_SINGLE);
 432:./tmk_core/protocol/lufa/lufa.c **** #endif
 433:./tmk_core/protocol/lufa/lufa.c **** 
 434:./tmk_core/protocol/lufa/lufa.c **** #ifdef CONSOLE_ENABLE
 435:./tmk_core/protocol/lufa/lufa.c ****     /* Setup Console HID Report Endpoints */
 436:./tmk_core/protocol/lufa/lufa.c ****     ConfigSuccess &= ENDPOINT_CONFIG(CONSOLE_IN_EPNUM, EP_TYPE_INTERRUPT, ENDPOINT_DIR_IN,
 437:./tmk_core/protocol/lufa/lufa.c ****                                      CONSOLE_EPSIZE, ENDPOINT_BANK_SINGLE);
 438:./tmk_core/protocol/lufa/lufa.c **** #if 0
 439:./tmk_core/protocol/lufa/lufa.c ****     ConfigSuccess &= ENDPOINT_CONFIG(CONSOLE_OUT_EPNUM, EP_TYPE_INTERRUPT, ENDPOINT_DIR_OUT,
 440:./tmk_core/protocol/lufa/lufa.c ****                                      CONSOLE_EPSIZE, ENDPOINT_BANK_SINGLE);
 441:./tmk_core/protocol/lufa/lufa.c **** #endif
 442:./tmk_core/protocol/lufa/lufa.c **** #endif
 443:./tmk_core/protocol/lufa/lufa.c **** 
 444:./tmk_core/protocol/lufa/lufa.c **** #ifdef NKRO_ENABLE
 445:./tmk_core/protocol/lufa/lufa.c ****     /* Setup NKRO HID Report Endpoints */
 446:./tmk_core/protocol/lufa/lufa.c ****     ConfigSuccess &= ENDPOINT_CONFIG(NKRO_IN_EPNUM, EP_TYPE_INTERRUPT, ENDPOINT_DIR_IN,
 447:./tmk_core/protocol/lufa/lufa.c ****                                      NKRO_EPSIZE, ENDPOINT_BANK_SINGLE);
 448:./tmk_core/protocol/lufa/lufa.c **** #endif
 449:./tmk_core/protocol/lufa/lufa.c **** 
 450:./tmk_core/protocol/lufa/lufa.c **** #ifdef MIDI_ENABLE
 451:./tmk_core/protocol/lufa/lufa.c ****     ConfigSuccess &= Endpoint_ConfigureEndpoint(MIDI_STREAM_IN_EPADDR, EP_TYPE_BULK, MIDI_STREAM_EP
 452:./tmk_core/protocol/lufa/lufa.c ****     ConfigSuccess &= Endpoint_ConfigureEndpoint(MIDI_STREAM_OUT_EPADDR, EP_TYPE_BULK, MIDI_STREAM_E
 453:./tmk_core/protocol/lufa/lufa.c **** #endif
 454:./tmk_core/protocol/lufa/lufa.c **** 
 455:./tmk_core/protocol/lufa/lufa.c **** #ifdef VIRTSER_ENABLE
 456:./tmk_core/protocol/lufa/lufa.c ****     ConfigSuccess &= Endpoint_ConfigureEndpoint(CDC_NOTIFICATION_EPADDR, EP_TYPE_INTERRUPT, CDC_NOT
 457:./tmk_core/protocol/lufa/lufa.c ****     ConfigSuccess &= Endpoint_ConfigureEndpoint(CDC_OUT_EPADDR, EP_TYPE_BULK, CDC_EPSIZE, ENDPOINT_
 458:./tmk_core/protocol/lufa/lufa.c ****     ConfigSuccess &= Endpoint_ConfigureEndpoint(CDC_IN_EPADDR, EP_TYPE_BULK, CDC_EPSIZE, ENDPOINT_B
 459:./tmk_core/protocol/lufa/lufa.c **** #endif
 460:./tmk_core/protocol/lufa/lufa.c **** }
 461:./tmk_core/protocol/lufa/lufa.c **** 
 462:./tmk_core/protocol/lufa/lufa.c **** /* FIXME: Expose this table in the docs somehow
 463:./tmk_core/protocol/lufa/lufa.c **** Appendix G: HID Request Support Requirements
 464:./tmk_core/protocol/lufa/lufa.c **** 
 465:./tmk_core/protocol/lufa/lufa.c **** The following table enumerates the requests that need to be supported by various types of HID class
 466:./tmk_core/protocol/lufa/lufa.c **** 
 467:./tmk_core/protocol/lufa/lufa.c **** Device type     GetReport   SetReport   GetIdle     SetIdle     GetProtocol SetProtocol
 468:./tmk_core/protocol/lufa/lufa.c **** ------------------------------------------------------------------------------------------
 469:./tmk_core/protocol/lufa/lufa.c **** Boot Mouse      Required    Optional    Optional    Optional    Required    Required
 470:./tmk_core/protocol/lufa/lufa.c **** Non-Boot Mouse  Required    Optional    Optional    Optional    Optional    Optional
 471:./tmk_core/protocol/lufa/lufa.c **** Boot Keyboard   Required    Optional    Required    Required    Required    Required
 472:./tmk_core/protocol/lufa/lufa.c **** Non-Boot Keybrd Required    Optional    Required    Required    Optional    Optional
 473:./tmk_core/protocol/lufa/lufa.c **** Other Device    Required    Optional    Optional    Optional    Optional    Optional
 474:./tmk_core/protocol/lufa/lufa.c **** */
 475:./tmk_core/protocol/lufa/lufa.c **** /** \brief Event handler for the USB_ControlRequest event.
 476:./tmk_core/protocol/lufa/lufa.c ****  *
 477:./tmk_core/protocol/lufa/lufa.c ****  *  This is fired before passing along unhandled control requests to the library for processing int
 478:./tmk_core/protocol/lufa/lufa.c ****  */
 479:./tmk_core/protocol/lufa/lufa.c **** void EVENT_USB_Device_ControlRequest(void)
 480:./tmk_core/protocol/lufa/lufa.c **** {
 481:./tmk_core/protocol/lufa/lufa.c ****     uint8_t* ReportData = NULL;
 482:./tmk_core/protocol/lufa/lufa.c ****     uint8_t  ReportSize = 0;
 483:./tmk_core/protocol/lufa/lufa.c **** 
 484:./tmk_core/protocol/lufa/lufa.c ****     /* Handle HID Class specific requests */
 485:./tmk_core/protocol/lufa/lufa.c ****     switch (USB_ControlRequest.bRequest)
 486:./tmk_core/protocol/lufa/lufa.c ****     {
 487:./tmk_core/protocol/lufa/lufa.c ****         case HID_REQ_GetReport:
 488:./tmk_core/protocol/lufa/lufa.c ****             if (USB_ControlRequest.bmRequestType == (REQDIR_DEVICETOHOST | REQTYPE_CLASS | REQREC_I
 489:./tmk_core/protocol/lufa/lufa.c ****             {
 490:./tmk_core/protocol/lufa/lufa.c ****                 Endpoint_ClearSETUP();
 491:./tmk_core/protocol/lufa/lufa.c **** 
 492:./tmk_core/protocol/lufa/lufa.c ****                 // Interface
 493:./tmk_core/protocol/lufa/lufa.c ****                 switch (USB_ControlRequest.wIndex) {
 494:./tmk_core/protocol/lufa/lufa.c ****                 case KEYBOARD_INTERFACE:
 495:./tmk_core/protocol/lufa/lufa.c ****                     // TODO: test/check
 496:./tmk_core/protocol/lufa/lufa.c ****                     ReportData = (uint8_t*)&keyboard_report_sent;
 497:./tmk_core/protocol/lufa/lufa.c ****                     ReportSize = sizeof(keyboard_report_sent);
 498:./tmk_core/protocol/lufa/lufa.c ****                     break;
 499:./tmk_core/protocol/lufa/lufa.c ****                 }
 500:./tmk_core/protocol/lufa/lufa.c **** 
 501:./tmk_core/protocol/lufa/lufa.c ****                 /* Write the report data to the control endpoint */
 502:./tmk_core/protocol/lufa/lufa.c ****                 Endpoint_Write_Control_Stream_LE(ReportData, ReportSize);
 503:./tmk_core/protocol/lufa/lufa.c ****                 Endpoint_ClearOUT();
 504:./tmk_core/protocol/lufa/lufa.c ****             }
 505:./tmk_core/protocol/lufa/lufa.c **** 
 506:./tmk_core/protocol/lufa/lufa.c ****             break;
 507:./tmk_core/protocol/lufa/lufa.c ****         case HID_REQ_SetReport:
 508:./tmk_core/protocol/lufa/lufa.c ****             if (USB_ControlRequest.bmRequestType == (REQDIR_HOSTTODEVICE | REQTYPE_CLASS | REQREC_I
 509:./tmk_core/protocol/lufa/lufa.c ****             {
 510:./tmk_core/protocol/lufa/lufa.c **** 
 511:./tmk_core/protocol/lufa/lufa.c ****                 // Interface
 512:./tmk_core/protocol/lufa/lufa.c ****                 switch (USB_ControlRequest.wIndex) {
 513:./tmk_core/protocol/lufa/lufa.c ****                 case KEYBOARD_INTERFACE:
 514:./tmk_core/protocol/lufa/lufa.c **** #ifdef NKRO_ENABLE
 515:./tmk_core/protocol/lufa/lufa.c ****                 case NKRO_INTERFACE:
 516:./tmk_core/protocol/lufa/lufa.c **** #endif
 517:./tmk_core/protocol/lufa/lufa.c ****                     Endpoint_ClearSETUP();
 518:./tmk_core/protocol/lufa/lufa.c **** 
 519:./tmk_core/protocol/lufa/lufa.c ****                     while (!(Endpoint_IsOUTReceived())) {
 520:./tmk_core/protocol/lufa/lufa.c ****                         if (USB_DeviceState == DEVICE_STATE_Unattached)
 521:./tmk_core/protocol/lufa/lufa.c ****                           return;
 522:./tmk_core/protocol/lufa/lufa.c ****                     }
 523:./tmk_core/protocol/lufa/lufa.c ****                     keyboard_led_stats = Endpoint_Read_8();
 524:./tmk_core/protocol/lufa/lufa.c **** 
 525:./tmk_core/protocol/lufa/lufa.c ****                     Endpoint_ClearOUT();
 526:./tmk_core/protocol/lufa/lufa.c ****                     Endpoint_ClearStatusStage();
 527:./tmk_core/protocol/lufa/lufa.c ****                     break;
 528:./tmk_core/protocol/lufa/lufa.c ****                 }
 529:./tmk_core/protocol/lufa/lufa.c **** 
 530:./tmk_core/protocol/lufa/lufa.c ****             }
 531:./tmk_core/protocol/lufa/lufa.c **** 
 532:./tmk_core/protocol/lufa/lufa.c ****             break;
 533:./tmk_core/protocol/lufa/lufa.c **** 
 534:./tmk_core/protocol/lufa/lufa.c ****         case HID_REQ_GetProtocol:
 535:./tmk_core/protocol/lufa/lufa.c ****             if (USB_ControlRequest.bmRequestType == (REQDIR_DEVICETOHOST | REQTYPE_CLASS | REQREC_I
 536:./tmk_core/protocol/lufa/lufa.c ****             {
 537:./tmk_core/protocol/lufa/lufa.c ****                 if (USB_ControlRequest.wIndex == KEYBOARD_INTERFACE) {
 538:./tmk_core/protocol/lufa/lufa.c ****                     Endpoint_ClearSETUP();
 539:./tmk_core/protocol/lufa/lufa.c ****                     while (!(Endpoint_IsINReady()));
 540:./tmk_core/protocol/lufa/lufa.c ****                     Endpoint_Write_8(keyboard_protocol);
 541:./tmk_core/protocol/lufa/lufa.c ****                     Endpoint_ClearIN();
 542:./tmk_core/protocol/lufa/lufa.c ****                     Endpoint_ClearStatusStage();
 543:./tmk_core/protocol/lufa/lufa.c ****                 }
 544:./tmk_core/protocol/lufa/lufa.c ****             }
 545:./tmk_core/protocol/lufa/lufa.c **** 
 546:./tmk_core/protocol/lufa/lufa.c ****             break;
 547:./tmk_core/protocol/lufa/lufa.c ****         case HID_REQ_SetProtocol:
 548:./tmk_core/protocol/lufa/lufa.c ****             if (USB_ControlRequest.bmRequestType == (REQDIR_HOSTTODEVICE | REQTYPE_CLASS | REQREC_I
 549:./tmk_core/protocol/lufa/lufa.c ****             {
 550:./tmk_core/protocol/lufa/lufa.c ****                 if (USB_ControlRequest.wIndex == KEYBOARD_INTERFACE) {
 551:./tmk_core/protocol/lufa/lufa.c ****                     Endpoint_ClearSETUP();
 552:./tmk_core/protocol/lufa/lufa.c ****                     Endpoint_ClearStatusStage();
 553:./tmk_core/protocol/lufa/lufa.c **** 
 554:./tmk_core/protocol/lufa/lufa.c ****                     keyboard_protocol = (USB_ControlRequest.wValue & 0xFF);
 555:./tmk_core/protocol/lufa/lufa.c ****                     clear_keyboard();
 556:./tmk_core/protocol/lufa/lufa.c ****                 }
 557:./tmk_core/protocol/lufa/lufa.c ****             }
 558:./tmk_core/protocol/lufa/lufa.c **** 
 559:./tmk_core/protocol/lufa/lufa.c ****             break;
 560:./tmk_core/protocol/lufa/lufa.c ****         case HID_REQ_SetIdle:
 561:./tmk_core/protocol/lufa/lufa.c ****             if (USB_ControlRequest.bmRequestType == (REQDIR_HOSTTODEVICE | REQTYPE_CLASS | REQREC_I
 562:./tmk_core/protocol/lufa/lufa.c ****             {
 563:./tmk_core/protocol/lufa/lufa.c ****                 Endpoint_ClearSETUP();
 564:./tmk_core/protocol/lufa/lufa.c ****                 Endpoint_ClearStatusStage();
 565:./tmk_core/protocol/lufa/lufa.c **** 
 566:./tmk_core/protocol/lufa/lufa.c ****                 keyboard_idle = ((USB_ControlRequest.wValue & 0xFF00) >> 8);
 567:./tmk_core/protocol/lufa/lufa.c ****             }
 568:./tmk_core/protocol/lufa/lufa.c **** 
 569:./tmk_core/protocol/lufa/lufa.c ****             break;
 570:./tmk_core/protocol/lufa/lufa.c ****         case HID_REQ_GetIdle:
 571:./tmk_core/protocol/lufa/lufa.c ****             if (USB_ControlRequest.bmRequestType == (REQDIR_DEVICETOHOST | REQTYPE_CLASS | REQREC_I
 572:./tmk_core/protocol/lufa/lufa.c ****             {
 573:./tmk_core/protocol/lufa/lufa.c ****                 Endpoint_ClearSETUP();
 574:./tmk_core/protocol/lufa/lufa.c ****                 while (!(Endpoint_IsINReady()));
 575:./tmk_core/protocol/lufa/lufa.c ****                 Endpoint_Write_8(keyboard_idle);
 576:./tmk_core/protocol/lufa/lufa.c ****                 Endpoint_ClearIN();
 577:./tmk_core/protocol/lufa/lufa.c ****                 Endpoint_ClearStatusStage();
 578:./tmk_core/protocol/lufa/lufa.c ****             }
 579:./tmk_core/protocol/lufa/lufa.c **** 
 580:./tmk_core/protocol/lufa/lufa.c ****             break;
 581:./tmk_core/protocol/lufa/lufa.c ****     }
 582:./tmk_core/protocol/lufa/lufa.c **** 
 583:./tmk_core/protocol/lufa/lufa.c **** #ifdef VIRTSER_ENABLE
 584:./tmk_core/protocol/lufa/lufa.c ****     CDC_Device_ProcessControlRequest(&cdc_device);
 585:./tmk_core/protocol/lufa/lufa.c **** #endif
 586:./tmk_core/protocol/lufa/lufa.c **** }
 587:./tmk_core/protocol/lufa/lufa.c **** 
 588:./tmk_core/protocol/lufa/lufa.c **** /*******************************************************************************
 589:./tmk_core/protocol/lufa/lufa.c ****  * Host driver
 590:./tmk_core/protocol/lufa/lufa.c ****  ******************************************************************************/
 591:./tmk_core/protocol/lufa/lufa.c **** /** \brief Keyboard LEDs
 592:./tmk_core/protocol/lufa/lufa.c ****  *
 593:./tmk_core/protocol/lufa/lufa.c ****  * FIXME: Needs doc
 594:./tmk_core/protocol/lufa/lufa.c ****  */
 595:./tmk_core/protocol/lufa/lufa.c **** static uint8_t keyboard_leds(void)
 596:./tmk_core/protocol/lufa/lufa.c **** {
  15               		.loc 1 596 0
  16               		.cfi_startproc
  17               	/* prologue: function */
  18               	/* frame size = 0 */
  19               	/* stack size = 0 */
  20               	.L__stack_usage = 0
 597:./tmk_core/protocol/lufa/lufa.c ****     return keyboard_led_stats;
 598:./tmk_core/protocol/lufa/lufa.c **** }
  21               		.loc 1 598 0
  22 0000 8091 0000 		lds r24,keyboard_led_stats
  23               	/* epilogue start */
  24 0004 0895      		ret
  25               		.cfi_endproc
  26               	.LFE138:
  28               		.section	.text.send_consumer,"ax",@progbits
  30               	send_consumer:
  31               	.LFB142:
 599:./tmk_core/protocol/lufa/lufa.c **** 
 600:./tmk_core/protocol/lufa/lufa.c **** /** \brief Send Keyboard
 601:./tmk_core/protocol/lufa/lufa.c ****  *
 602:./tmk_core/protocol/lufa/lufa.c ****  * FIXME: Needs doc
 603:./tmk_core/protocol/lufa/lufa.c ****  */
 604:./tmk_core/protocol/lufa/lufa.c **** static void send_keyboard(report_keyboard_t *report)
 605:./tmk_core/protocol/lufa/lufa.c **** {
 606:./tmk_core/protocol/lufa/lufa.c ****     uint8_t timeout = 255;
 607:./tmk_core/protocol/lufa/lufa.c ****     uint8_t where = where_to_send();
 608:./tmk_core/protocol/lufa/lufa.c **** 
 609:./tmk_core/protocol/lufa/lufa.c **** #ifdef BLUETOOTH_ENABLE
 610:./tmk_core/protocol/lufa/lufa.c ****   if (where == OUTPUT_BLUETOOTH || where == OUTPUT_USB_AND_BT) {
 611:./tmk_core/protocol/lufa/lufa.c ****     #ifdef MODULE_ADAFRUIT_BLE
 612:./tmk_core/protocol/lufa/lufa.c ****       adafruit_ble_send_keys(report->mods, report->keys, sizeof(report->keys));
 613:./tmk_core/protocol/lufa/lufa.c ****     #elif MODULE_RN42
 614:./tmk_core/protocol/lufa/lufa.c ****        bluefruit_serial_send(0xFD);
 615:./tmk_core/protocol/lufa/lufa.c ****        bluefruit_serial_send(0x09);
 616:./tmk_core/protocol/lufa/lufa.c ****        bluefruit_serial_send(0x01);
 617:./tmk_core/protocol/lufa/lufa.c ****        for (uint8_t i = 0; i < KEYBOARD_EPSIZE; i++) {
 618:./tmk_core/protocol/lufa/lufa.c ****          bluefruit_serial_send(report->raw[i]);
 619:./tmk_core/protocol/lufa/lufa.c ****        }
 620:./tmk_core/protocol/lufa/lufa.c ****     #else
 621:./tmk_core/protocol/lufa/lufa.c ****       bluefruit_serial_send(0xFD);
 622:./tmk_core/protocol/lufa/lufa.c ****       for (uint8_t i = 0; i < KEYBOARD_EPSIZE; i++) {
 623:./tmk_core/protocol/lufa/lufa.c ****         bluefruit_serial_send(report->raw[i]);
 624:./tmk_core/protocol/lufa/lufa.c ****       }
 625:./tmk_core/protocol/lufa/lufa.c ****     #endif
 626:./tmk_core/protocol/lufa/lufa.c ****   }
 627:./tmk_core/protocol/lufa/lufa.c **** #endif
 628:./tmk_core/protocol/lufa/lufa.c **** 
 629:./tmk_core/protocol/lufa/lufa.c ****     if (where != OUTPUT_USB && where != OUTPUT_USB_AND_BT) {
 630:./tmk_core/protocol/lufa/lufa.c ****       return;
 631:./tmk_core/protocol/lufa/lufa.c ****     }
 632:./tmk_core/protocol/lufa/lufa.c **** 
 633:./tmk_core/protocol/lufa/lufa.c ****     /* Select the Keyboard Report Endpoint */
 634:./tmk_core/protocol/lufa/lufa.c **** #ifdef NKRO_ENABLE
 635:./tmk_core/protocol/lufa/lufa.c ****     if (keyboard_protocol && keymap_config.nkro) {
 636:./tmk_core/protocol/lufa/lufa.c ****         /* Report protocol - NKRO */
 637:./tmk_core/protocol/lufa/lufa.c ****         Endpoint_SelectEndpoint(NKRO_IN_EPNUM);
 638:./tmk_core/protocol/lufa/lufa.c **** 
 639:./tmk_core/protocol/lufa/lufa.c ****         /* Check if write ready for a polling interval around 1ms */
 640:./tmk_core/protocol/lufa/lufa.c ****         while (timeout-- && !Endpoint_IsReadWriteAllowed()) _delay_us(4);
 641:./tmk_core/protocol/lufa/lufa.c ****         if (!Endpoint_IsReadWriteAllowed()) return;
 642:./tmk_core/protocol/lufa/lufa.c **** 
 643:./tmk_core/protocol/lufa/lufa.c ****         /* Write Keyboard Report Data */
 644:./tmk_core/protocol/lufa/lufa.c ****         Endpoint_Write_Stream_LE(report, NKRO_EPSIZE, NULL);
 645:./tmk_core/protocol/lufa/lufa.c ****     }
 646:./tmk_core/protocol/lufa/lufa.c ****     else
 647:./tmk_core/protocol/lufa/lufa.c **** #endif
 648:./tmk_core/protocol/lufa/lufa.c ****     {
 649:./tmk_core/protocol/lufa/lufa.c ****         /* Boot protocol */
 650:./tmk_core/protocol/lufa/lufa.c ****         Endpoint_SelectEndpoint(KEYBOARD_IN_EPNUM);
 651:./tmk_core/protocol/lufa/lufa.c **** 
 652:./tmk_core/protocol/lufa/lufa.c ****         /* Check if write ready for a polling interval around 10ms */
 653:./tmk_core/protocol/lufa/lufa.c ****         while (timeout-- && !Endpoint_IsReadWriteAllowed()) _delay_us(40);
 654:./tmk_core/protocol/lufa/lufa.c ****         if (!Endpoint_IsReadWriteAllowed()) return;
 655:./tmk_core/protocol/lufa/lufa.c **** 
 656:./tmk_core/protocol/lufa/lufa.c ****         /* Write Keyboard Report Data */
 657:./tmk_core/protocol/lufa/lufa.c ****         Endpoint_Write_Stream_LE(report, KEYBOARD_EPSIZE, NULL);
 658:./tmk_core/protocol/lufa/lufa.c ****     }
 659:./tmk_core/protocol/lufa/lufa.c **** 
 660:./tmk_core/protocol/lufa/lufa.c ****     /* Finalize the stream transfer to send the last packet */
 661:./tmk_core/protocol/lufa/lufa.c ****     Endpoint_ClearIN();
 662:./tmk_core/protocol/lufa/lufa.c **** 
 663:./tmk_core/protocol/lufa/lufa.c ****     keyboard_report_sent = *report;
 664:./tmk_core/protocol/lufa/lufa.c **** }
 665:./tmk_core/protocol/lufa/lufa.c ****  
 666:./tmk_core/protocol/lufa/lufa.c **** /** \brief Send Mouse
 667:./tmk_core/protocol/lufa/lufa.c ****  *
 668:./tmk_core/protocol/lufa/lufa.c ****  * FIXME: Needs doc
 669:./tmk_core/protocol/lufa/lufa.c ****  */
 670:./tmk_core/protocol/lufa/lufa.c **** static void send_mouse(report_mouse_t *report)
 671:./tmk_core/protocol/lufa/lufa.c **** {
 672:./tmk_core/protocol/lufa/lufa.c **** #ifdef MOUSE_ENABLE
 673:./tmk_core/protocol/lufa/lufa.c ****     uint8_t timeout = 255;
 674:./tmk_core/protocol/lufa/lufa.c ****     uint8_t where = where_to_send();
 675:./tmk_core/protocol/lufa/lufa.c **** 
 676:./tmk_core/protocol/lufa/lufa.c **** #ifdef BLUETOOTH_ENABLE
 677:./tmk_core/protocol/lufa/lufa.c ****   if (where == OUTPUT_BLUETOOTH || where == OUTPUT_USB_AND_BT) {
 678:./tmk_core/protocol/lufa/lufa.c ****     #ifdef MODULE_ADAFRUIT_BLE
 679:./tmk_core/protocol/lufa/lufa.c ****       // FIXME: mouse buttons
 680:./tmk_core/protocol/lufa/lufa.c ****       adafruit_ble_send_mouse_move(report->x, report->y, report->v, report->h, report->buttons);
 681:./tmk_core/protocol/lufa/lufa.c ****     #else
 682:./tmk_core/protocol/lufa/lufa.c ****       bluefruit_serial_send(0xFD);
 683:./tmk_core/protocol/lufa/lufa.c ****       bluefruit_serial_send(0x00);
 684:./tmk_core/protocol/lufa/lufa.c ****       bluefruit_serial_send(0x03);
 685:./tmk_core/protocol/lufa/lufa.c ****       bluefruit_serial_send(report->buttons);
 686:./tmk_core/protocol/lufa/lufa.c ****       bluefruit_serial_send(report->x);
 687:./tmk_core/protocol/lufa/lufa.c ****       bluefruit_serial_send(report->y);
 688:./tmk_core/protocol/lufa/lufa.c ****       bluefruit_serial_send(report->v); // should try sending the wheel v here
 689:./tmk_core/protocol/lufa/lufa.c ****       bluefruit_serial_send(report->h); // should try sending the wheel h here
 690:./tmk_core/protocol/lufa/lufa.c ****       bluefruit_serial_send(0x00);
 691:./tmk_core/protocol/lufa/lufa.c ****     #endif
 692:./tmk_core/protocol/lufa/lufa.c ****   }
 693:./tmk_core/protocol/lufa/lufa.c **** #endif
 694:./tmk_core/protocol/lufa/lufa.c **** 
 695:./tmk_core/protocol/lufa/lufa.c ****     if (where != OUTPUT_USB && where != OUTPUT_USB_AND_BT) {
 696:./tmk_core/protocol/lufa/lufa.c ****       return;
 697:./tmk_core/protocol/lufa/lufa.c ****     }
 698:./tmk_core/protocol/lufa/lufa.c **** 
 699:./tmk_core/protocol/lufa/lufa.c ****     /* Select the Mouse Report Endpoint */
 700:./tmk_core/protocol/lufa/lufa.c ****     Endpoint_SelectEndpoint(MOUSE_IN_EPNUM);
 701:./tmk_core/protocol/lufa/lufa.c **** 
 702:./tmk_core/protocol/lufa/lufa.c ****     /* Check if write ready for a polling interval around 10ms */
 703:./tmk_core/protocol/lufa/lufa.c ****     while (timeout-- && !Endpoint_IsReadWriteAllowed()) _delay_us(40);
 704:./tmk_core/protocol/lufa/lufa.c ****     if (!Endpoint_IsReadWriteAllowed()) return;
 705:./tmk_core/protocol/lufa/lufa.c **** 
 706:./tmk_core/protocol/lufa/lufa.c ****     /* Write Mouse Report Data */
 707:./tmk_core/protocol/lufa/lufa.c ****     Endpoint_Write_Stream_LE(report, sizeof(report_mouse_t), NULL);
 708:./tmk_core/protocol/lufa/lufa.c **** 
 709:./tmk_core/protocol/lufa/lufa.c ****     /* Finalize the stream transfer to send the last packet */
 710:./tmk_core/protocol/lufa/lufa.c ****     Endpoint_ClearIN();
 711:./tmk_core/protocol/lufa/lufa.c **** #endif
 712:./tmk_core/protocol/lufa/lufa.c **** }
 713:./tmk_core/protocol/lufa/lufa.c **** 
 714:./tmk_core/protocol/lufa/lufa.c **** /** \brief Send System
 715:./tmk_core/protocol/lufa/lufa.c ****  *
 716:./tmk_core/protocol/lufa/lufa.c ****  * FIXME: Needs doc
 717:./tmk_core/protocol/lufa/lufa.c ****  */
 718:./tmk_core/protocol/lufa/lufa.c **** static void send_system(uint16_t data)
 719:./tmk_core/protocol/lufa/lufa.c **** {
 720:./tmk_core/protocol/lufa/lufa.c ****     uint8_t timeout = 255;
 721:./tmk_core/protocol/lufa/lufa.c **** 
 722:./tmk_core/protocol/lufa/lufa.c ****     if (USB_DeviceState != DEVICE_STATE_Configured)
 723:./tmk_core/protocol/lufa/lufa.c ****         return;
 724:./tmk_core/protocol/lufa/lufa.c **** 
 725:./tmk_core/protocol/lufa/lufa.c ****     report_extra_t r = {
 726:./tmk_core/protocol/lufa/lufa.c ****         .report_id = REPORT_ID_SYSTEM,
 727:./tmk_core/protocol/lufa/lufa.c ****         .usage = data - SYSTEM_POWER_DOWN + 1
 728:./tmk_core/protocol/lufa/lufa.c ****     };
 729:./tmk_core/protocol/lufa/lufa.c ****     Endpoint_SelectEndpoint(EXTRAKEY_IN_EPNUM);
 730:./tmk_core/protocol/lufa/lufa.c **** 
 731:./tmk_core/protocol/lufa/lufa.c ****     /* Check if write ready for a polling interval around 10ms */
 732:./tmk_core/protocol/lufa/lufa.c ****     while (timeout-- && !Endpoint_IsReadWriteAllowed()) _delay_us(40);
 733:./tmk_core/protocol/lufa/lufa.c ****     if (!Endpoint_IsReadWriteAllowed()) return;
 734:./tmk_core/protocol/lufa/lufa.c **** 
 735:./tmk_core/protocol/lufa/lufa.c ****     Endpoint_Write_Stream_LE(&r, sizeof(report_extra_t), NULL);
 736:./tmk_core/protocol/lufa/lufa.c ****     Endpoint_ClearIN();
 737:./tmk_core/protocol/lufa/lufa.c **** }
 738:./tmk_core/protocol/lufa/lufa.c **** 
 739:./tmk_core/protocol/lufa/lufa.c **** /** \brief Send Consumer
 740:./tmk_core/protocol/lufa/lufa.c ****  *
 741:./tmk_core/protocol/lufa/lufa.c ****  * FIXME: Needs doc
 742:./tmk_core/protocol/lufa/lufa.c ****  */
 743:./tmk_core/protocol/lufa/lufa.c **** static void send_consumer(uint16_t data)
 744:./tmk_core/protocol/lufa/lufa.c **** {
  32               		.loc 1 744 0
  33               		.cfi_startproc
  34               	.LVL0:
  35 0000 0F93      		push r16
  36               	.LCFI0:
  37               		.cfi_def_cfa_offset 3
  38               		.cfi_offset 16, -2
  39 0002 1F93      		push r17
  40               	.LCFI1:
  41               		.cfi_def_cfa_offset 4
  42               		.cfi_offset 17, -3
  43 0004 CF93      		push r28
  44               	.LCFI2:
  45               		.cfi_def_cfa_offset 5
  46               		.cfi_offset 28, -4
  47 0006 DF93      		push r29
  48               	.LCFI3:
  49               		.cfi_def_cfa_offset 6
  50               		.cfi_offset 29, -5
  51 0008 00D0      		rcall .
  52 000a 1F92      		push __zero_reg__
  53               	.LCFI4:
  54               		.cfi_def_cfa_offset 9
  55 000c CDB7      		in r28,__SP_L__
  56 000e DEB7      		in r29,__SP_H__
  57               	.LCFI5:
  58               		.cfi_def_cfa_register 28
  59               	/* prologue: function */
  60               	/* frame size = 3 */
  61               	/* stack size = 7 */
  62               	.L__stack_usage = 7
  63 0010 8C01      		movw r16,r24
  64               	.LVL1:
 745:./tmk_core/protocol/lufa/lufa.c ****     uint8_t timeout = 255;
 746:./tmk_core/protocol/lufa/lufa.c ****     uint8_t where = where_to_send();
  65               		.loc 1 746 0
  66 0012 0E94 0000 		call where_to_send
  67               	.LVL2:
 747:./tmk_core/protocol/lufa/lufa.c **** 
 748:./tmk_core/protocol/lufa/lufa.c **** #ifdef BLUETOOTH_ENABLE
 749:./tmk_core/protocol/lufa/lufa.c ****     if (where == OUTPUT_BLUETOOTH || where == OUTPUT_USB_AND_BT) {
 750:./tmk_core/protocol/lufa/lufa.c ****       #ifdef MODULE_ADAFRUIT_BLE
 751:./tmk_core/protocol/lufa/lufa.c ****         adafruit_ble_send_consumer_key(data, 0);
 752:./tmk_core/protocol/lufa/lufa.c ****       #elif MODULE_RN42
 753:./tmk_core/protocol/lufa/lufa.c ****         static uint16_t last_data = 0;
 754:./tmk_core/protocol/lufa/lufa.c ****         if (data == last_data) return;
 755:./tmk_core/protocol/lufa/lufa.c ****         last_data = data;
 756:./tmk_core/protocol/lufa/lufa.c ****         uint16_t bitmap = CONSUMER2RN42(data);
 757:./tmk_core/protocol/lufa/lufa.c ****         bluefruit_serial_send(0xFD);
 758:./tmk_core/protocol/lufa/lufa.c ****         bluefruit_serial_send(0x03);
 759:./tmk_core/protocol/lufa/lufa.c ****         bluefruit_serial_send(0x03);
 760:./tmk_core/protocol/lufa/lufa.c ****         bluefruit_serial_send(bitmap&0xFF);
 761:./tmk_core/protocol/lufa/lufa.c ****         bluefruit_serial_send((bitmap>>8)&0xFF);
 762:./tmk_core/protocol/lufa/lufa.c ****       #else
 763:./tmk_core/protocol/lufa/lufa.c ****         static uint16_t last_data = 0;
 764:./tmk_core/protocol/lufa/lufa.c ****         if (data == last_data) return;
 765:./tmk_core/protocol/lufa/lufa.c ****         last_data = data;
 766:./tmk_core/protocol/lufa/lufa.c ****         uint16_t bitmap = CONSUMER2BLUEFRUIT(data);
 767:./tmk_core/protocol/lufa/lufa.c ****         bluefruit_serial_send(0xFD);
 768:./tmk_core/protocol/lufa/lufa.c ****         bluefruit_serial_send(0x00);
 769:./tmk_core/protocol/lufa/lufa.c ****         bluefruit_serial_send(0x02);
 770:./tmk_core/protocol/lufa/lufa.c ****         bluefruit_serial_send((bitmap>>8)&0xFF);
 771:./tmk_core/protocol/lufa/lufa.c ****         bluefruit_serial_send(bitmap&0xFF);
 772:./tmk_core/protocol/lufa/lufa.c ****         bluefruit_serial_send(0x00);
 773:./tmk_core/protocol/lufa/lufa.c ****         bluefruit_serial_send(0x00);
 774:./tmk_core/protocol/lufa/lufa.c ****         bluefruit_serial_send(0x00);
 775:./tmk_core/protocol/lufa/lufa.c ****         bluefruit_serial_send(0x00);
 776:./tmk_core/protocol/lufa/lufa.c ****       #endif
 777:./tmk_core/protocol/lufa/lufa.c ****     }
 778:./tmk_core/protocol/lufa/lufa.c **** #endif
 779:./tmk_core/protocol/lufa/lufa.c **** 
 780:./tmk_core/protocol/lufa/lufa.c ****     if (where != OUTPUT_USB && where != OUTPUT_USB_AND_BT) {
  68               		.loc 1 780 0
  69 0016 8230      		cpi r24,lo8(2)
  70 0018 01F0      		breq .L3
  71               		.loc 1 780 0 is_stmt 0 discriminator 1
  72 001a 8430      		cpi r24,lo8(4)
  73 001c 01F4      		brne .L2
  74               	.L3:
 781:./tmk_core/protocol/lufa/lufa.c ****       return;
 782:./tmk_core/protocol/lufa/lufa.c ****     }
 783:./tmk_core/protocol/lufa/lufa.c **** 
 784:./tmk_core/protocol/lufa/lufa.c ****     report_extra_t r = {
  75               		.loc 1 784 0 is_stmt 1
  76 001e 83E0      		ldi r24,lo8(3)
  77               	.LVL3:
  78 0020 8983      		std Y+1,r24
  79 0022 1B83      		std Y+3,r17
  80 0024 0A83      		std Y+2,r16
  81               	.LVL4:
  82               	.LBB101:
  83               	.LBB102:
  84               		.file 2 "./lib/lufa/LUFA/Drivers/USB/Core/AVR8/../AVR8/Endpoint_AVR8.h"
   1:./lib/lufa/LUFA/Drivers/USB/Core/AVR8/../AVR8/Endpoint_AVR8.h **** /*
   2:./lib/lufa/LUFA/Drivers/USB/Core/AVR8/../AVR8/Endpoint_AVR8.h ****              LUFA Library
   3:./lib/lufa/LUFA/Drivers/USB/Core/AVR8/../AVR8/Endpoint_AVR8.h ****      Copyright (C) Dean Camera, 2017.
   4:./lib/lufa/LUFA/Drivers/USB/Core/AVR8/../AVR8/Endpoint_AVR8.h **** 
   5:./lib/lufa/LUFA/Drivers/USB/Core/AVR8/../AVR8/Endpoint_AVR8.h ****   dean [at] fourwalledcubicle [dot] com
   6:./lib/lufa/LUFA/Drivers/USB/Core/AVR8/../AVR8/Endpoint_AVR8.h ****            www.lufa-lib.org
   7:./lib/lufa/LUFA/Drivers/USB/Core/AVR8/../AVR8/Endpoint_AVR8.h **** */
   8:./lib/lufa/LUFA/Drivers/USB/Core/AVR8/../AVR8/Endpoint_AVR8.h **** 
   9:./lib/lufa/LUFA/Drivers/USB/Core/AVR8/../AVR8/Endpoint_AVR8.h **** /*
  10:./lib/lufa/LUFA/Drivers/USB/Core/AVR8/../AVR8/Endpoint_AVR8.h ****   Copyright 2017  Dean Camera (dean [at] fourwalledcubicle [dot] com)
  11:./lib/lufa/LUFA/Drivers/USB/Core/AVR8/../AVR8/Endpoint_AVR8.h **** 
  12:./lib/lufa/LUFA/Drivers/USB/Core/AVR8/../AVR8/Endpoint_AVR8.h ****   Permission to use, copy, modify, distribute, and sell this
  13:./lib/lufa/LUFA/Drivers/USB/Core/AVR8/../AVR8/Endpoint_AVR8.h ****   software and its documentation for any purpose is hereby granted
  14:./lib/lufa/LUFA/Drivers/USB/Core/AVR8/../AVR8/Endpoint_AVR8.h ****   without fee, provided that the above copyright notice appear in
  15:./lib/lufa/LUFA/Drivers/USB/Core/AVR8/../AVR8/Endpoint_AVR8.h ****   all copies and that both that the copyright notice and this
  16:./lib/lufa/LUFA/Drivers/USB/Core/AVR8/../AVR8/Endpoint_AVR8.h ****   permission notice and warranty disclaimer appear in supporting
  17:./lib/lufa/LUFA/Drivers/USB/Core/AVR8/../AVR8/Endpoint_AVR8.h ****   documentation, and that the name of the author not be used in
  18:./lib/lufa/LUFA/Drivers/USB/Core/AVR8/../AVR8/Endpoint_AVR8.h ****   advertising or publicity pertaining to distribution of the
  19:./lib/lufa/LUFA/Drivers/USB/Core/AVR8/../AVR8/Endpoint_AVR8.h ****   software without specific, written prior permission.
  20:./lib/lufa/LUFA/Drivers/USB/Core/AVR8/../AVR8/Endpoint_AVR8.h **** 
  21:./lib/lufa/LUFA/Drivers/USB/Core/AVR8/../AVR8/Endpoint_AVR8.h ****   The author disclaims all warranties with regard to this
  22:./lib/lufa/LUFA/Drivers/USB/Core/AVR8/../AVR8/Endpoint_AVR8.h ****   software, including all implied warranties of merchantability
  23:./lib/lufa/LUFA/Drivers/USB/Core/AVR8/../AVR8/Endpoint_AVR8.h ****   and fitness.  In no event shall the author be liable for any
  24:./lib/lufa/LUFA/Drivers/USB/Core/AVR8/../AVR8/Endpoint_AVR8.h ****   special, indirect or consequential damages or any damages
  25:./lib/lufa/LUFA/Drivers/USB/Core/AVR8/../AVR8/Endpoint_AVR8.h ****   whatsoever resulting from loss of use, data or profits, whether
  26:./lib/lufa/LUFA/Drivers/USB/Core/AVR8/../AVR8/Endpoint_AVR8.h ****   in an action of contract, negligence or other tortious action,
  27:./lib/lufa/LUFA/Drivers/USB/Core/AVR8/../AVR8/Endpoint_AVR8.h ****   arising out of or in connection with the use or performance of
  28:./lib/lufa/LUFA/Drivers/USB/Core/AVR8/../AVR8/Endpoint_AVR8.h ****   this software.
  29:./lib/lufa/LUFA/Drivers/USB/Core/AVR8/../AVR8/Endpoint_AVR8.h **** */
  30:./lib/lufa/LUFA/Drivers/USB/Core/AVR8/../AVR8/Endpoint_AVR8.h **** 
  31:./lib/lufa/LUFA/Drivers/USB/Core/AVR8/../AVR8/Endpoint_AVR8.h **** /** \file
  32:./lib/lufa/LUFA/Drivers/USB/Core/AVR8/../AVR8/Endpoint_AVR8.h ****  *  \brief USB Endpoint definitions for the AVR8 microcontrollers.
  33:./lib/lufa/LUFA/Drivers/USB/Core/AVR8/../AVR8/Endpoint_AVR8.h ****  *  \copydetails Group_EndpointManagement_AVR8
  34:./lib/lufa/LUFA/Drivers/USB/Core/AVR8/../AVR8/Endpoint_AVR8.h ****  *
  35:./lib/lufa/LUFA/Drivers/USB/Core/AVR8/../AVR8/Endpoint_AVR8.h ****  *  \note This file should not be included directly. It is automatically included as needed by the 
  36:./lib/lufa/LUFA/Drivers/USB/Core/AVR8/../AVR8/Endpoint_AVR8.h ****  *        dispatch header located in LUFA/Drivers/USB/USB.h.
  37:./lib/lufa/LUFA/Drivers/USB/Core/AVR8/../AVR8/Endpoint_AVR8.h ****  */
  38:./lib/lufa/LUFA/Drivers/USB/Core/AVR8/../AVR8/Endpoint_AVR8.h **** 
  39:./lib/lufa/LUFA/Drivers/USB/Core/AVR8/../AVR8/Endpoint_AVR8.h **** /** \ingroup Group_EndpointRW
  40:./lib/lufa/LUFA/Drivers/USB/Core/AVR8/../AVR8/Endpoint_AVR8.h ****  *  \defgroup Group_EndpointRW_AVR8 Endpoint Data Reading and Writing (AVR8)
  41:./lib/lufa/LUFA/Drivers/USB/Core/AVR8/../AVR8/Endpoint_AVR8.h ****  *  \brief Endpoint data read/write definitions for the Atmel AVR8 architecture.
  42:./lib/lufa/LUFA/Drivers/USB/Core/AVR8/../AVR8/Endpoint_AVR8.h ****  *
  43:./lib/lufa/LUFA/Drivers/USB/Core/AVR8/../AVR8/Endpoint_AVR8.h ****  *  Functions, macros, variables, enums and types related to data reading and writing from and to e
  44:./lib/lufa/LUFA/Drivers/USB/Core/AVR8/../AVR8/Endpoint_AVR8.h ****  */
  45:./lib/lufa/LUFA/Drivers/USB/Core/AVR8/../AVR8/Endpoint_AVR8.h **** 
  46:./lib/lufa/LUFA/Drivers/USB/Core/AVR8/../AVR8/Endpoint_AVR8.h **** /** \ingroup Group_EndpointPrimitiveRW
  47:./lib/lufa/LUFA/Drivers/USB/Core/AVR8/../AVR8/Endpoint_AVR8.h ****  *  \defgroup Group_EndpointPrimitiveRW_AVR8 Read/Write of Primitive Data Types (AVR8)
  48:./lib/lufa/LUFA/Drivers/USB/Core/AVR8/../AVR8/Endpoint_AVR8.h ****  *  \brief Endpoint primitive read/write definitions for the Atmel AVR8 architecture.
  49:./lib/lufa/LUFA/Drivers/USB/Core/AVR8/../AVR8/Endpoint_AVR8.h ****  *
  50:./lib/lufa/LUFA/Drivers/USB/Core/AVR8/../AVR8/Endpoint_AVR8.h ****  *  Functions, macros, variables, enums and types related to data reading and writing of primitive 
  51:./lib/lufa/LUFA/Drivers/USB/Core/AVR8/../AVR8/Endpoint_AVR8.h ****  *  from and to endpoints.
  52:./lib/lufa/LUFA/Drivers/USB/Core/AVR8/../AVR8/Endpoint_AVR8.h ****  */
  53:./lib/lufa/LUFA/Drivers/USB/Core/AVR8/../AVR8/Endpoint_AVR8.h **** 
  54:./lib/lufa/LUFA/Drivers/USB/Core/AVR8/../AVR8/Endpoint_AVR8.h **** /** \ingroup Group_EndpointPacketManagement
  55:./lib/lufa/LUFA/Drivers/USB/Core/AVR8/../AVR8/Endpoint_AVR8.h ****  *  \defgroup Group_EndpointPacketManagement_AVR8 Endpoint Packet Management (AVR8)
  56:./lib/lufa/LUFA/Drivers/USB/Core/AVR8/../AVR8/Endpoint_AVR8.h ****  *  \brief Endpoint packet management definitions for the Atmel AVR8 architecture.
  57:./lib/lufa/LUFA/Drivers/USB/Core/AVR8/../AVR8/Endpoint_AVR8.h ****  *
  58:./lib/lufa/LUFA/Drivers/USB/Core/AVR8/../AVR8/Endpoint_AVR8.h ****  *  Functions, macros, variables, enums and types related to packet management of endpoints.
  59:./lib/lufa/LUFA/Drivers/USB/Core/AVR8/../AVR8/Endpoint_AVR8.h ****  */
  60:./lib/lufa/LUFA/Drivers/USB/Core/AVR8/../AVR8/Endpoint_AVR8.h **** 
  61:./lib/lufa/LUFA/Drivers/USB/Core/AVR8/../AVR8/Endpoint_AVR8.h **** /** \ingroup Group_EndpointManagement
  62:./lib/lufa/LUFA/Drivers/USB/Core/AVR8/../AVR8/Endpoint_AVR8.h ****  *  \defgroup Group_EndpointManagement_AVR8 Endpoint Management (AVR8)
  63:./lib/lufa/LUFA/Drivers/USB/Core/AVR8/../AVR8/Endpoint_AVR8.h ****  *  \brief Endpoint management definitions for the Atmel AVR8 architecture.
  64:./lib/lufa/LUFA/Drivers/USB/Core/AVR8/../AVR8/Endpoint_AVR8.h ****  *
  65:./lib/lufa/LUFA/Drivers/USB/Core/AVR8/../AVR8/Endpoint_AVR8.h ****  *  Functions, macros and enums related to endpoint management when in USB Device mode. This
  66:./lib/lufa/LUFA/Drivers/USB/Core/AVR8/../AVR8/Endpoint_AVR8.h ****  *  module contains the endpoint management macros, as well as endpoint interrupt and data
  67:./lib/lufa/LUFA/Drivers/USB/Core/AVR8/../AVR8/Endpoint_AVR8.h ****  *  send/receive functions for various data types.
  68:./lib/lufa/LUFA/Drivers/USB/Core/AVR8/../AVR8/Endpoint_AVR8.h ****  *
  69:./lib/lufa/LUFA/Drivers/USB/Core/AVR8/../AVR8/Endpoint_AVR8.h ****  *  @{
  70:./lib/lufa/LUFA/Drivers/USB/Core/AVR8/../AVR8/Endpoint_AVR8.h ****  */
  71:./lib/lufa/LUFA/Drivers/USB/Core/AVR8/../AVR8/Endpoint_AVR8.h **** 
  72:./lib/lufa/LUFA/Drivers/USB/Core/AVR8/../AVR8/Endpoint_AVR8.h **** #ifndef __ENDPOINT_AVR8_H__
  73:./lib/lufa/LUFA/Drivers/USB/Core/AVR8/../AVR8/Endpoint_AVR8.h **** #define __ENDPOINT_AVR8_H__
  74:./lib/lufa/LUFA/Drivers/USB/Core/AVR8/../AVR8/Endpoint_AVR8.h **** 
  75:./lib/lufa/LUFA/Drivers/USB/Core/AVR8/../AVR8/Endpoint_AVR8.h **** 	/* Includes: */
  76:./lib/lufa/LUFA/Drivers/USB/Core/AVR8/../AVR8/Endpoint_AVR8.h **** 		#include "../../../../Common/Common.h"
  77:./lib/lufa/LUFA/Drivers/USB/Core/AVR8/../AVR8/Endpoint_AVR8.h **** 		#include "../USBTask.h"
  78:./lib/lufa/LUFA/Drivers/USB/Core/AVR8/../AVR8/Endpoint_AVR8.h **** 		#include "../USBInterrupt.h"
  79:./lib/lufa/LUFA/Drivers/USB/Core/AVR8/../AVR8/Endpoint_AVR8.h **** 
  80:./lib/lufa/LUFA/Drivers/USB/Core/AVR8/../AVR8/Endpoint_AVR8.h **** 	/* Enable C linkage for C++ Compilers: */
  81:./lib/lufa/LUFA/Drivers/USB/Core/AVR8/../AVR8/Endpoint_AVR8.h **** 		#if defined(__cplusplus)
  82:./lib/lufa/LUFA/Drivers/USB/Core/AVR8/../AVR8/Endpoint_AVR8.h **** 			extern "C" {
  83:./lib/lufa/LUFA/Drivers/USB/Core/AVR8/../AVR8/Endpoint_AVR8.h **** 		#endif
  84:./lib/lufa/LUFA/Drivers/USB/Core/AVR8/../AVR8/Endpoint_AVR8.h **** 
  85:./lib/lufa/LUFA/Drivers/USB/Core/AVR8/../AVR8/Endpoint_AVR8.h **** 	/* Preprocessor Checks: */
  86:./lib/lufa/LUFA/Drivers/USB/Core/AVR8/../AVR8/Endpoint_AVR8.h **** 		#if !defined(__INCLUDE_FROM_USB_DRIVER)
  87:./lib/lufa/LUFA/Drivers/USB/Core/AVR8/../AVR8/Endpoint_AVR8.h **** 			#error Do not include this file directly. Include LUFA/Drivers/USB/USB.h instead.
  88:./lib/lufa/LUFA/Drivers/USB/Core/AVR8/../AVR8/Endpoint_AVR8.h **** 		#endif
  89:./lib/lufa/LUFA/Drivers/USB/Core/AVR8/../AVR8/Endpoint_AVR8.h **** 
  90:./lib/lufa/LUFA/Drivers/USB/Core/AVR8/../AVR8/Endpoint_AVR8.h **** 	/* Private Interface - For use in library only: */
  91:./lib/lufa/LUFA/Drivers/USB/Core/AVR8/../AVR8/Endpoint_AVR8.h **** 	#if !defined(__DOXYGEN__)
  92:./lib/lufa/LUFA/Drivers/USB/Core/AVR8/../AVR8/Endpoint_AVR8.h **** 		/* Inline Functions: */
  93:./lib/lufa/LUFA/Drivers/USB/Core/AVR8/../AVR8/Endpoint_AVR8.h **** 			static inline uint8_t Endpoint_BytesToEPSizeMask(const uint16_t Bytes) ATTR_WARN_UNUSED_RESULT A
  94:./lib/lufa/LUFA/Drivers/USB/Core/AVR8/../AVR8/Endpoint_AVR8.h **** 			                                                                       ATTR_ALWAYS_INLINE;
  95:./lib/lufa/LUFA/Drivers/USB/Core/AVR8/../AVR8/Endpoint_AVR8.h **** 			static inline uint8_t Endpoint_BytesToEPSizeMask(const uint16_t Bytes)
  96:./lib/lufa/LUFA/Drivers/USB/Core/AVR8/../AVR8/Endpoint_AVR8.h **** 			{
  97:./lib/lufa/LUFA/Drivers/USB/Core/AVR8/../AVR8/Endpoint_AVR8.h **** 				uint8_t  MaskVal    = 0;
  98:./lib/lufa/LUFA/Drivers/USB/Core/AVR8/../AVR8/Endpoint_AVR8.h **** 				uint16_t CheckBytes = 8;
  99:./lib/lufa/LUFA/Drivers/USB/Core/AVR8/../AVR8/Endpoint_AVR8.h **** 
 100:./lib/lufa/LUFA/Drivers/USB/Core/AVR8/../AVR8/Endpoint_AVR8.h **** 				while (CheckBytes < Bytes)
 101:./lib/lufa/LUFA/Drivers/USB/Core/AVR8/../AVR8/Endpoint_AVR8.h **** 				{
 102:./lib/lufa/LUFA/Drivers/USB/Core/AVR8/../AVR8/Endpoint_AVR8.h **** 					MaskVal++;
 103:./lib/lufa/LUFA/Drivers/USB/Core/AVR8/../AVR8/Endpoint_AVR8.h **** 					CheckBytes <<= 1;
 104:./lib/lufa/LUFA/Drivers/USB/Core/AVR8/../AVR8/Endpoint_AVR8.h **** 				}
 105:./lib/lufa/LUFA/Drivers/USB/Core/AVR8/../AVR8/Endpoint_AVR8.h **** 
 106:./lib/lufa/LUFA/Drivers/USB/Core/AVR8/../AVR8/Endpoint_AVR8.h **** 				return (MaskVal << EPSIZE0);
 107:./lib/lufa/LUFA/Drivers/USB/Core/AVR8/../AVR8/Endpoint_AVR8.h **** 			}
 108:./lib/lufa/LUFA/Drivers/USB/Core/AVR8/../AVR8/Endpoint_AVR8.h **** 
 109:./lib/lufa/LUFA/Drivers/USB/Core/AVR8/../AVR8/Endpoint_AVR8.h **** 		/* Function Prototypes: */
 110:./lib/lufa/LUFA/Drivers/USB/Core/AVR8/../AVR8/Endpoint_AVR8.h **** 			void Endpoint_ClearEndpoints(void);
 111:./lib/lufa/LUFA/Drivers/USB/Core/AVR8/../AVR8/Endpoint_AVR8.h **** 			bool Endpoint_ConfigureEndpoint_Prv(const uint8_t Number,
 112:./lib/lufa/LUFA/Drivers/USB/Core/AVR8/../AVR8/Endpoint_AVR8.h **** 			                                    const uint8_t UECFG0XData,
 113:./lib/lufa/LUFA/Drivers/USB/Core/AVR8/../AVR8/Endpoint_AVR8.h **** 			                                    const uint8_t UECFG1XData);
 114:./lib/lufa/LUFA/Drivers/USB/Core/AVR8/../AVR8/Endpoint_AVR8.h **** 
 115:./lib/lufa/LUFA/Drivers/USB/Core/AVR8/../AVR8/Endpoint_AVR8.h **** 	#endif
 116:./lib/lufa/LUFA/Drivers/USB/Core/AVR8/../AVR8/Endpoint_AVR8.h **** 
 117:./lib/lufa/LUFA/Drivers/USB/Core/AVR8/../AVR8/Endpoint_AVR8.h **** 	/* Public Interface - May be used in end-application: */
 118:./lib/lufa/LUFA/Drivers/USB/Core/AVR8/../AVR8/Endpoint_AVR8.h **** 		/* Macros: */
 119:./lib/lufa/LUFA/Drivers/USB/Core/AVR8/../AVR8/Endpoint_AVR8.h **** 			#if (!defined(FIXED_CONTROL_ENDPOINT_SIZE) || defined(__DOXYGEN__))
 120:./lib/lufa/LUFA/Drivers/USB/Core/AVR8/../AVR8/Endpoint_AVR8.h **** 				/** Default size of the default control endpoint's bank, until altered by the control endpoint 
 121:./lib/lufa/LUFA/Drivers/USB/Core/AVR8/../AVR8/Endpoint_AVR8.h **** 				 *  value in the device descriptor. Not available if the \c FIXED_CONTROL_ENDPOINT_SIZE token i
 122:./lib/lufa/LUFA/Drivers/USB/Core/AVR8/../AVR8/Endpoint_AVR8.h **** 				 */
 123:./lib/lufa/LUFA/Drivers/USB/Core/AVR8/../AVR8/Endpoint_AVR8.h **** 				#define ENDPOINT_CONTROLEP_DEFAULT_SIZE     8
 124:./lib/lufa/LUFA/Drivers/USB/Core/AVR8/../AVR8/Endpoint_AVR8.h **** 			#endif
 125:./lib/lufa/LUFA/Drivers/USB/Core/AVR8/../AVR8/Endpoint_AVR8.h **** 
 126:./lib/lufa/LUFA/Drivers/USB/Core/AVR8/../AVR8/Endpoint_AVR8.h **** 			#if !defined(CONTROL_ONLY_DEVICE) || defined(__DOXYGEN__)
 127:./lib/lufa/LUFA/Drivers/USB/Core/AVR8/../AVR8/Endpoint_AVR8.h **** 				#if defined(USB_SERIES_4_AVR) || defined(USB_SERIES_6_AVR) || defined(USB_SERIES_7_AVR) || defi
 128:./lib/lufa/LUFA/Drivers/USB/Core/AVR8/../AVR8/Endpoint_AVR8.h **** 					/** Total number of endpoints (including the default control endpoint at address 0) which may
 129:./lib/lufa/LUFA/Drivers/USB/Core/AVR8/../AVR8/Endpoint_AVR8.h **** 					 *  be used in the device. Different USB AVR models support different amounts of endpoints,
 130:./lib/lufa/LUFA/Drivers/USB/Core/AVR8/../AVR8/Endpoint_AVR8.h **** 					 *  this value reflects the maximum number of endpoints for the currently selected AVR model.
 131:./lib/lufa/LUFA/Drivers/USB/Core/AVR8/../AVR8/Endpoint_AVR8.h **** 					 */
 132:./lib/lufa/LUFA/Drivers/USB/Core/AVR8/../AVR8/Endpoint_AVR8.h **** 					#define ENDPOINT_TOTAL_ENDPOINTS        7
 133:./lib/lufa/LUFA/Drivers/USB/Core/AVR8/../AVR8/Endpoint_AVR8.h **** 				#else
 134:./lib/lufa/LUFA/Drivers/USB/Core/AVR8/../AVR8/Endpoint_AVR8.h **** 					#define ENDPOINT_TOTAL_ENDPOINTS        5
 135:./lib/lufa/LUFA/Drivers/USB/Core/AVR8/../AVR8/Endpoint_AVR8.h **** 				#endif
 136:./lib/lufa/LUFA/Drivers/USB/Core/AVR8/../AVR8/Endpoint_AVR8.h **** 			#else
 137:./lib/lufa/LUFA/Drivers/USB/Core/AVR8/../AVR8/Endpoint_AVR8.h **** 				#define ENDPOINT_TOTAL_ENDPOINTS            1
 138:./lib/lufa/LUFA/Drivers/USB/Core/AVR8/../AVR8/Endpoint_AVR8.h **** 			#endif
 139:./lib/lufa/LUFA/Drivers/USB/Core/AVR8/../AVR8/Endpoint_AVR8.h **** 
 140:./lib/lufa/LUFA/Drivers/USB/Core/AVR8/../AVR8/Endpoint_AVR8.h **** 		/* Enums: */
 141:./lib/lufa/LUFA/Drivers/USB/Core/AVR8/../AVR8/Endpoint_AVR8.h **** 			/** Enum for the possible error return codes of the \ref Endpoint_WaitUntilReady() function.
 142:./lib/lufa/LUFA/Drivers/USB/Core/AVR8/../AVR8/Endpoint_AVR8.h **** 			 *
 143:./lib/lufa/LUFA/Drivers/USB/Core/AVR8/../AVR8/Endpoint_AVR8.h **** 			 *  \ingroup Group_EndpointRW_AVR8
 144:./lib/lufa/LUFA/Drivers/USB/Core/AVR8/../AVR8/Endpoint_AVR8.h **** 			 */
 145:./lib/lufa/LUFA/Drivers/USB/Core/AVR8/../AVR8/Endpoint_AVR8.h **** 			enum Endpoint_WaitUntilReady_ErrorCodes_t
 146:./lib/lufa/LUFA/Drivers/USB/Core/AVR8/../AVR8/Endpoint_AVR8.h **** 			{
 147:./lib/lufa/LUFA/Drivers/USB/Core/AVR8/../AVR8/Endpoint_AVR8.h **** 				ENDPOINT_READYWAIT_NoError                 = 0, /**< Endpoint is ready for next packet, no erro
 148:./lib/lufa/LUFA/Drivers/USB/Core/AVR8/../AVR8/Endpoint_AVR8.h **** 				ENDPOINT_READYWAIT_EndpointStalled         = 1, /**< The endpoint was stalled during the stream
 149:./lib/lufa/LUFA/Drivers/USB/Core/AVR8/../AVR8/Endpoint_AVR8.h **** 				                                                 *   transfer by the host or device.
 150:./lib/lufa/LUFA/Drivers/USB/Core/AVR8/../AVR8/Endpoint_AVR8.h **** 				                                                 */
 151:./lib/lufa/LUFA/Drivers/USB/Core/AVR8/../AVR8/Endpoint_AVR8.h **** 				ENDPOINT_READYWAIT_DeviceDisconnected      = 2,	/**< Device was disconnected from the host whil
 152:./lib/lufa/LUFA/Drivers/USB/Core/AVR8/../AVR8/Endpoint_AVR8.h **** 				                                                 *   waiting for the endpoint to become ready.
 153:./lib/lufa/LUFA/Drivers/USB/Core/AVR8/../AVR8/Endpoint_AVR8.h **** 				                                                 */
 154:./lib/lufa/LUFA/Drivers/USB/Core/AVR8/../AVR8/Endpoint_AVR8.h **** 				ENDPOINT_READYWAIT_BusSuspended            = 3, /**< The USB bus has been suspended by the host
 155:./lib/lufa/LUFA/Drivers/USB/Core/AVR8/../AVR8/Endpoint_AVR8.h **** 				                                                 *   no USB endpoint traffic can occur until th
 156:./lib/lufa/LUFA/Drivers/USB/Core/AVR8/../AVR8/Endpoint_AVR8.h **** 				                                                 *   has resumed.
 157:./lib/lufa/LUFA/Drivers/USB/Core/AVR8/../AVR8/Endpoint_AVR8.h **** 				                                                 */
 158:./lib/lufa/LUFA/Drivers/USB/Core/AVR8/../AVR8/Endpoint_AVR8.h **** 				ENDPOINT_READYWAIT_Timeout                 = 4, /**< The host failed to accept or send the next
 159:./lib/lufa/LUFA/Drivers/USB/Core/AVR8/../AVR8/Endpoint_AVR8.h **** 				                                                 *   within the software timeout period set by 
 160:./lib/lufa/LUFA/Drivers/USB/Core/AVR8/../AVR8/Endpoint_AVR8.h **** 				                                                 *   \ref USB_STREAM_TIMEOUT_MS macro.
 161:./lib/lufa/LUFA/Drivers/USB/Core/AVR8/../AVR8/Endpoint_AVR8.h **** 				                                                 */
 162:./lib/lufa/LUFA/Drivers/USB/Core/AVR8/../AVR8/Endpoint_AVR8.h **** 			};
 163:./lib/lufa/LUFA/Drivers/USB/Core/AVR8/../AVR8/Endpoint_AVR8.h **** 
 164:./lib/lufa/LUFA/Drivers/USB/Core/AVR8/../AVR8/Endpoint_AVR8.h **** 		/* Inline Functions: */
 165:./lib/lufa/LUFA/Drivers/USB/Core/AVR8/../AVR8/Endpoint_AVR8.h **** 			/** Configures the specified endpoint address with the given endpoint type, bank size and number
 166:./lib/lufa/LUFA/Drivers/USB/Core/AVR8/../AVR8/Endpoint_AVR8.h **** 			 *  banks. Once configured, the endpoint may be read from or written to, depending on its direct
 167:./lib/lufa/LUFA/Drivers/USB/Core/AVR8/../AVR8/Endpoint_AVR8.h **** 			 *
 168:./lib/lufa/LUFA/Drivers/USB/Core/AVR8/../AVR8/Endpoint_AVR8.h **** 			 *  \param[in] Address    Endpoint address to configure.
 169:./lib/lufa/LUFA/Drivers/USB/Core/AVR8/../AVR8/Endpoint_AVR8.h **** 			 *
 170:./lib/lufa/LUFA/Drivers/USB/Core/AVR8/../AVR8/Endpoint_AVR8.h **** 			 *  \param[in] Type       Type of endpoint to configure, a \c EP_TYPE_* mask. Not all endpoint t
 171:./lib/lufa/LUFA/Drivers/USB/Core/AVR8/../AVR8/Endpoint_AVR8.h **** 			 *                        are available on Low Speed USB devices - refer to the USB 2.0 specific
 172:./lib/lufa/LUFA/Drivers/USB/Core/AVR8/../AVR8/Endpoint_AVR8.h **** 			 *
 173:./lib/lufa/LUFA/Drivers/USB/Core/AVR8/../AVR8/Endpoint_AVR8.h **** 			 *  \param[in] Size       Size of the endpoint's bank, where packets are stored before they are 
 174:./lib/lufa/LUFA/Drivers/USB/Core/AVR8/../AVR8/Endpoint_AVR8.h **** 			 *                        to the USB host, or after they have been received from the USB host (d
 175:./lib/lufa/LUFA/Drivers/USB/Core/AVR8/../AVR8/Endpoint_AVR8.h **** 			 *                        the endpoint's data direction). The bank size must indicate the maximu
 176:./lib/lufa/LUFA/Drivers/USB/Core/AVR8/../AVR8/Endpoint_AVR8.h **** 			 *                        that the endpoint can handle.
 177:./lib/lufa/LUFA/Drivers/USB/Core/AVR8/../AVR8/Endpoint_AVR8.h **** 			 *
 178:./lib/lufa/LUFA/Drivers/USB/Core/AVR8/../AVR8/Endpoint_AVR8.h **** 			 *  \param[in] Banks      Number of banks to use for the endpoint being configured.
 179:./lib/lufa/LUFA/Drivers/USB/Core/AVR8/../AVR8/Endpoint_AVR8.h **** 			 *
 180:./lib/lufa/LUFA/Drivers/USB/Core/AVR8/../AVR8/Endpoint_AVR8.h **** 			 *  \attention When the \c ORDERED_EP_CONFIG compile time option is used, Endpoints <b>must</b> 
 181:./lib/lufa/LUFA/Drivers/USB/Core/AVR8/../AVR8/Endpoint_AVR8.h **** 			 *             ascending order, or bank corruption will occur.
 182:./lib/lufa/LUFA/Drivers/USB/Core/AVR8/../AVR8/Endpoint_AVR8.h **** 			 *
 183:./lib/lufa/LUFA/Drivers/USB/Core/AVR8/../AVR8/Endpoint_AVR8.h **** 			 *  \note Different endpoints may have different maximum packet sizes based on the endpoint's in
 184:./lib/lufa/LUFA/Drivers/USB/Core/AVR8/../AVR8/Endpoint_AVR8.h **** 			 *        refer to the chosen microcontroller model's datasheet to determine the maximum bank si
 185:./lib/lufa/LUFA/Drivers/USB/Core/AVR8/../AVR8/Endpoint_AVR8.h **** 			 *        \n\n
 186:./lib/lufa/LUFA/Drivers/USB/Core/AVR8/../AVR8/Endpoint_AVR8.h **** 			 *
 187:./lib/lufa/LUFA/Drivers/USB/Core/AVR8/../AVR8/Endpoint_AVR8.h **** 			 *  \note The default control endpoint should not be manually configured by the user application
 188:./lib/lufa/LUFA/Drivers/USB/Core/AVR8/../AVR8/Endpoint_AVR8.h **** 			 *        it is automatically configured by the library internally.
 189:./lib/lufa/LUFA/Drivers/USB/Core/AVR8/../AVR8/Endpoint_AVR8.h **** 			 *        \n\n
 190:./lib/lufa/LUFA/Drivers/USB/Core/AVR8/../AVR8/Endpoint_AVR8.h **** 			 *
 191:./lib/lufa/LUFA/Drivers/USB/Core/AVR8/../AVR8/Endpoint_AVR8.h **** 			 *  \note This routine will automatically select the specified endpoint upon success. Upon failu
 192:./lib/lufa/LUFA/Drivers/USB/Core/AVR8/../AVR8/Endpoint_AVR8.h **** 			 *        which failed to reconfigure correctly will be selected.
 193:./lib/lufa/LUFA/Drivers/USB/Core/AVR8/../AVR8/Endpoint_AVR8.h **** 			 *
 194:./lib/lufa/LUFA/Drivers/USB/Core/AVR8/../AVR8/Endpoint_AVR8.h **** 			 *  \return Boolean \c true if the configuration succeeded, \c false otherwise.
 195:./lib/lufa/LUFA/Drivers/USB/Core/AVR8/../AVR8/Endpoint_AVR8.h **** 			 */
 196:./lib/lufa/LUFA/Drivers/USB/Core/AVR8/../AVR8/Endpoint_AVR8.h **** 			static inline bool Endpoint_ConfigureEndpoint(const uint8_t Address,
 197:./lib/lufa/LUFA/Drivers/USB/Core/AVR8/../AVR8/Endpoint_AVR8.h **** 			                                              const uint8_t Type,
 198:./lib/lufa/LUFA/Drivers/USB/Core/AVR8/../AVR8/Endpoint_AVR8.h **** 			                                              const uint16_t Size,
 199:./lib/lufa/LUFA/Drivers/USB/Core/AVR8/../AVR8/Endpoint_AVR8.h **** 			                                              const uint8_t Banks) ATTR_ALWAYS_INLINE;
 200:./lib/lufa/LUFA/Drivers/USB/Core/AVR8/../AVR8/Endpoint_AVR8.h **** 			static inline bool Endpoint_ConfigureEndpoint(const uint8_t Address,
 201:./lib/lufa/LUFA/Drivers/USB/Core/AVR8/../AVR8/Endpoint_AVR8.h **** 			                                              const uint8_t Type,
 202:./lib/lufa/LUFA/Drivers/USB/Core/AVR8/../AVR8/Endpoint_AVR8.h **** 			                                              const uint16_t Size,
 203:./lib/lufa/LUFA/Drivers/USB/Core/AVR8/../AVR8/Endpoint_AVR8.h **** 			                                              const uint8_t Banks)
 204:./lib/lufa/LUFA/Drivers/USB/Core/AVR8/../AVR8/Endpoint_AVR8.h **** 			{
 205:./lib/lufa/LUFA/Drivers/USB/Core/AVR8/../AVR8/Endpoint_AVR8.h **** 				uint8_t Number = (Address & ENDPOINT_EPNUM_MASK);
 206:./lib/lufa/LUFA/Drivers/USB/Core/AVR8/../AVR8/Endpoint_AVR8.h **** 
 207:./lib/lufa/LUFA/Drivers/USB/Core/AVR8/../AVR8/Endpoint_AVR8.h **** 				if (Number >= ENDPOINT_TOTAL_ENDPOINTS)
 208:./lib/lufa/LUFA/Drivers/USB/Core/AVR8/../AVR8/Endpoint_AVR8.h **** 				  return false;
 209:./lib/lufa/LUFA/Drivers/USB/Core/AVR8/../AVR8/Endpoint_AVR8.h **** 
 210:./lib/lufa/LUFA/Drivers/USB/Core/AVR8/../AVR8/Endpoint_AVR8.h **** 				return Endpoint_ConfigureEndpoint_Prv(Number,
 211:./lib/lufa/LUFA/Drivers/USB/Core/AVR8/../AVR8/Endpoint_AVR8.h **** 				                                      ((Type << EPTYPE0) | ((Address & ENDPOINT_DIR_IN) ? (1 <<
 212:./lib/lufa/LUFA/Drivers/USB/Core/AVR8/../AVR8/Endpoint_AVR8.h **** 				                                      ((1 << ALLOC) | ((Banks > 1) ? (1 << EPBK0) : 0) | Endpoi
 213:./lib/lufa/LUFA/Drivers/USB/Core/AVR8/../AVR8/Endpoint_AVR8.h **** 			}
 214:./lib/lufa/LUFA/Drivers/USB/Core/AVR8/../AVR8/Endpoint_AVR8.h **** 
 215:./lib/lufa/LUFA/Drivers/USB/Core/AVR8/../AVR8/Endpoint_AVR8.h **** 			/** Indicates the number of bytes currently stored in the current endpoint's selected bank.
 216:./lib/lufa/LUFA/Drivers/USB/Core/AVR8/../AVR8/Endpoint_AVR8.h **** 			 *
 217:./lib/lufa/LUFA/Drivers/USB/Core/AVR8/../AVR8/Endpoint_AVR8.h **** 			 *  \ingroup Group_EndpointRW_AVR8
 218:./lib/lufa/LUFA/Drivers/USB/Core/AVR8/../AVR8/Endpoint_AVR8.h **** 			 *
 219:./lib/lufa/LUFA/Drivers/USB/Core/AVR8/../AVR8/Endpoint_AVR8.h **** 			 *  \return Total number of bytes in the currently selected Endpoint's FIFO buffer.
 220:./lib/lufa/LUFA/Drivers/USB/Core/AVR8/../AVR8/Endpoint_AVR8.h **** 			 */
 221:./lib/lufa/LUFA/Drivers/USB/Core/AVR8/../AVR8/Endpoint_AVR8.h **** 			static inline uint16_t Endpoint_BytesInEndpoint(void) ATTR_WARN_UNUSED_RESULT ATTR_ALWAYS_INLINE
 222:./lib/lufa/LUFA/Drivers/USB/Core/AVR8/../AVR8/Endpoint_AVR8.h **** 			static inline uint16_t Endpoint_BytesInEndpoint(void)
 223:./lib/lufa/LUFA/Drivers/USB/Core/AVR8/../AVR8/Endpoint_AVR8.h **** 			{
 224:./lib/lufa/LUFA/Drivers/USB/Core/AVR8/../AVR8/Endpoint_AVR8.h **** 				#if (defined(USB_SERIES_6_AVR) || defined(USB_SERIES_7_AVR))
 225:./lib/lufa/LUFA/Drivers/USB/Core/AVR8/../AVR8/Endpoint_AVR8.h **** 					return UEBCX;
 226:./lib/lufa/LUFA/Drivers/USB/Core/AVR8/../AVR8/Endpoint_AVR8.h **** 				#elif defined(USB_SERIES_4_AVR)
 227:./lib/lufa/LUFA/Drivers/USB/Core/AVR8/../AVR8/Endpoint_AVR8.h **** 					return (((uint16_t)UEBCHX << 8) | UEBCLX);
 228:./lib/lufa/LUFA/Drivers/USB/Core/AVR8/../AVR8/Endpoint_AVR8.h **** 				#elif defined(USB_SERIES_2_AVR)
 229:./lib/lufa/LUFA/Drivers/USB/Core/AVR8/../AVR8/Endpoint_AVR8.h **** 					return UEBCLX;
 230:./lib/lufa/LUFA/Drivers/USB/Core/AVR8/../AVR8/Endpoint_AVR8.h **** 				#endif
 231:./lib/lufa/LUFA/Drivers/USB/Core/AVR8/../AVR8/Endpoint_AVR8.h **** 			}
 232:./lib/lufa/LUFA/Drivers/USB/Core/AVR8/../AVR8/Endpoint_AVR8.h **** 
 233:./lib/lufa/LUFA/Drivers/USB/Core/AVR8/../AVR8/Endpoint_AVR8.h **** 			/** Determines the currently selected endpoint's direction.
 234:./lib/lufa/LUFA/Drivers/USB/Core/AVR8/../AVR8/Endpoint_AVR8.h **** 			 *
 235:./lib/lufa/LUFA/Drivers/USB/Core/AVR8/../AVR8/Endpoint_AVR8.h **** 			 *  \return The currently selected endpoint's direction, as a \c ENDPOINT_DIR_* mask.
 236:./lib/lufa/LUFA/Drivers/USB/Core/AVR8/../AVR8/Endpoint_AVR8.h **** 			 */
 237:./lib/lufa/LUFA/Drivers/USB/Core/AVR8/../AVR8/Endpoint_AVR8.h **** 			static inline uint8_t Endpoint_GetEndpointDirection(void) ATTR_WARN_UNUSED_RESULT ATTR_ALWAYS_IN
 238:./lib/lufa/LUFA/Drivers/USB/Core/AVR8/../AVR8/Endpoint_AVR8.h **** 			static inline uint8_t Endpoint_GetEndpointDirection(void)
 239:./lib/lufa/LUFA/Drivers/USB/Core/AVR8/../AVR8/Endpoint_AVR8.h **** 			{
 240:./lib/lufa/LUFA/Drivers/USB/Core/AVR8/../AVR8/Endpoint_AVR8.h **** 				return (UECFG0X & (1 << EPDIR)) ? ENDPOINT_DIR_IN : ENDPOINT_DIR_OUT;
 241:./lib/lufa/LUFA/Drivers/USB/Core/AVR8/../AVR8/Endpoint_AVR8.h **** 			}
 242:./lib/lufa/LUFA/Drivers/USB/Core/AVR8/../AVR8/Endpoint_AVR8.h **** 
 243:./lib/lufa/LUFA/Drivers/USB/Core/AVR8/../AVR8/Endpoint_AVR8.h **** 			/** Get the endpoint address of the currently selected endpoint. This is typically used to save
 244:./lib/lufa/LUFA/Drivers/USB/Core/AVR8/../AVR8/Endpoint_AVR8.h **** 			 *  the currently selected endpoint so that it can be restored after another endpoint has been
 245:./lib/lufa/LUFA/Drivers/USB/Core/AVR8/../AVR8/Endpoint_AVR8.h **** 			 *  manipulated.
 246:./lib/lufa/LUFA/Drivers/USB/Core/AVR8/../AVR8/Endpoint_AVR8.h **** 			 *
 247:./lib/lufa/LUFA/Drivers/USB/Core/AVR8/../AVR8/Endpoint_AVR8.h **** 			 *  \return Index of the currently selected endpoint.
 248:./lib/lufa/LUFA/Drivers/USB/Core/AVR8/../AVR8/Endpoint_AVR8.h **** 			 */
 249:./lib/lufa/LUFA/Drivers/USB/Core/AVR8/../AVR8/Endpoint_AVR8.h **** 			static inline uint8_t Endpoint_GetCurrentEndpoint(void) ATTR_WARN_UNUSED_RESULT ATTR_ALWAYS_INLI
 250:./lib/lufa/LUFA/Drivers/USB/Core/AVR8/../AVR8/Endpoint_AVR8.h **** 			static inline uint8_t Endpoint_GetCurrentEndpoint(void)
 251:./lib/lufa/LUFA/Drivers/USB/Core/AVR8/../AVR8/Endpoint_AVR8.h **** 			{
 252:./lib/lufa/LUFA/Drivers/USB/Core/AVR8/../AVR8/Endpoint_AVR8.h **** 				#if !defined(CONTROL_ONLY_DEVICE)
 253:./lib/lufa/LUFA/Drivers/USB/Core/AVR8/../AVR8/Endpoint_AVR8.h **** 					return ((UENUM & ENDPOINT_EPNUM_MASK) | Endpoint_GetEndpointDirection());
 254:./lib/lufa/LUFA/Drivers/USB/Core/AVR8/../AVR8/Endpoint_AVR8.h **** 				#else
 255:./lib/lufa/LUFA/Drivers/USB/Core/AVR8/../AVR8/Endpoint_AVR8.h **** 					return ENDPOINT_CONTROLEP;
 256:./lib/lufa/LUFA/Drivers/USB/Core/AVR8/../AVR8/Endpoint_AVR8.h **** 				#endif
 257:./lib/lufa/LUFA/Drivers/USB/Core/AVR8/../AVR8/Endpoint_AVR8.h **** 			}
 258:./lib/lufa/LUFA/Drivers/USB/Core/AVR8/../AVR8/Endpoint_AVR8.h **** 
 259:./lib/lufa/LUFA/Drivers/USB/Core/AVR8/../AVR8/Endpoint_AVR8.h **** 			/** Selects the given endpoint address.
 260:./lib/lufa/LUFA/Drivers/USB/Core/AVR8/../AVR8/Endpoint_AVR8.h **** 			 *
 261:./lib/lufa/LUFA/Drivers/USB/Core/AVR8/../AVR8/Endpoint_AVR8.h **** 			 *  Any endpoint operations which do not require the endpoint address to be indicated will opera
 262:./lib/lufa/LUFA/Drivers/USB/Core/AVR8/../AVR8/Endpoint_AVR8.h **** 			 *  the currently selected endpoint.
 263:./lib/lufa/LUFA/Drivers/USB/Core/AVR8/../AVR8/Endpoint_AVR8.h **** 			 *
 264:./lib/lufa/LUFA/Drivers/USB/Core/AVR8/../AVR8/Endpoint_AVR8.h **** 			 *  \param[in] Address Endpoint address to select.
 265:./lib/lufa/LUFA/Drivers/USB/Core/AVR8/../AVR8/Endpoint_AVR8.h **** 			 */
 266:./lib/lufa/LUFA/Drivers/USB/Core/AVR8/../AVR8/Endpoint_AVR8.h **** 			static inline void Endpoint_SelectEndpoint(const uint8_t Address) ATTR_ALWAYS_INLINE;
 267:./lib/lufa/LUFA/Drivers/USB/Core/AVR8/../AVR8/Endpoint_AVR8.h **** 			static inline void Endpoint_SelectEndpoint(const uint8_t Address)
 268:./lib/lufa/LUFA/Drivers/USB/Core/AVR8/../AVR8/Endpoint_AVR8.h **** 			{
 269:./lib/lufa/LUFA/Drivers/USB/Core/AVR8/../AVR8/Endpoint_AVR8.h **** 				#if !defined(CONTROL_ONLY_DEVICE)
 270:./lib/lufa/LUFA/Drivers/USB/Core/AVR8/../AVR8/Endpoint_AVR8.h **** 					UENUM = (Address & ENDPOINT_EPNUM_MASK);
  85               		.loc 2 270 0
  86 0026 8093 E900 		sts 233,r24
  87               	.LVL5:
  88 002a 8FEF      		ldi r24,lo8(-1)
  89               	.LVL6:
  90               	.L5:
  91               	.LBE102:
  92               	.LBE101:
  93               	.LBB103:
  94               	.LBB104:
 271:./lib/lufa/LUFA/Drivers/USB/Core/AVR8/../AVR8/Endpoint_AVR8.h **** 				#endif
 272:./lib/lufa/LUFA/Drivers/USB/Core/AVR8/../AVR8/Endpoint_AVR8.h **** 			}
 273:./lib/lufa/LUFA/Drivers/USB/Core/AVR8/../AVR8/Endpoint_AVR8.h **** 
 274:./lib/lufa/LUFA/Drivers/USB/Core/AVR8/../AVR8/Endpoint_AVR8.h **** 			/** Resets the endpoint bank FIFO. This clears all the endpoint banks and resets the USB control
 275:./lib/lufa/LUFA/Drivers/USB/Core/AVR8/../AVR8/Endpoint_AVR8.h **** 			 *  data In and Out pointers to the bank's contents.
 276:./lib/lufa/LUFA/Drivers/USB/Core/AVR8/../AVR8/Endpoint_AVR8.h **** 			 *
 277:./lib/lufa/LUFA/Drivers/USB/Core/AVR8/../AVR8/Endpoint_AVR8.h **** 			 *  \param[in] Address  Endpoint address whose FIFO buffers are to be reset.
 278:./lib/lufa/LUFA/Drivers/USB/Core/AVR8/../AVR8/Endpoint_AVR8.h **** 			 */
 279:./lib/lufa/LUFA/Drivers/USB/Core/AVR8/../AVR8/Endpoint_AVR8.h **** 			static inline void Endpoint_ResetEndpoint(const uint8_t Address) ATTR_ALWAYS_INLINE;
 280:./lib/lufa/LUFA/Drivers/USB/Core/AVR8/../AVR8/Endpoint_AVR8.h **** 			static inline void Endpoint_ResetEndpoint(const uint8_t Address)
 281:./lib/lufa/LUFA/Drivers/USB/Core/AVR8/../AVR8/Endpoint_AVR8.h **** 			{
 282:./lib/lufa/LUFA/Drivers/USB/Core/AVR8/../AVR8/Endpoint_AVR8.h **** 				UERST = (1 << (Address & ENDPOINT_EPNUM_MASK));
 283:./lib/lufa/LUFA/Drivers/USB/Core/AVR8/../AVR8/Endpoint_AVR8.h **** 				UERST = 0;
 284:./lib/lufa/LUFA/Drivers/USB/Core/AVR8/../AVR8/Endpoint_AVR8.h **** 			}
 285:./lib/lufa/LUFA/Drivers/USB/Core/AVR8/../AVR8/Endpoint_AVR8.h **** 
 286:./lib/lufa/LUFA/Drivers/USB/Core/AVR8/../AVR8/Endpoint_AVR8.h **** 			/** Enables the currently selected endpoint so that data can be sent and received through it to
 287:./lib/lufa/LUFA/Drivers/USB/Core/AVR8/../AVR8/Endpoint_AVR8.h **** 			 *  and from a host.
 288:./lib/lufa/LUFA/Drivers/USB/Core/AVR8/../AVR8/Endpoint_AVR8.h **** 			 *
 289:./lib/lufa/LUFA/Drivers/USB/Core/AVR8/../AVR8/Endpoint_AVR8.h **** 			 *  \note Endpoints must first be configured properly via \ref Endpoint_ConfigureEndpoint().
 290:./lib/lufa/LUFA/Drivers/USB/Core/AVR8/../AVR8/Endpoint_AVR8.h **** 			 */
 291:./lib/lufa/LUFA/Drivers/USB/Core/AVR8/../AVR8/Endpoint_AVR8.h **** 			static inline void Endpoint_EnableEndpoint(void) ATTR_ALWAYS_INLINE;
 292:./lib/lufa/LUFA/Drivers/USB/Core/AVR8/../AVR8/Endpoint_AVR8.h **** 			static inline void Endpoint_EnableEndpoint(void)
 293:./lib/lufa/LUFA/Drivers/USB/Core/AVR8/../AVR8/Endpoint_AVR8.h **** 			{
 294:./lib/lufa/LUFA/Drivers/USB/Core/AVR8/../AVR8/Endpoint_AVR8.h **** 				UECONX |= (1 << EPEN);
 295:./lib/lufa/LUFA/Drivers/USB/Core/AVR8/../AVR8/Endpoint_AVR8.h **** 			}
 296:./lib/lufa/LUFA/Drivers/USB/Core/AVR8/../AVR8/Endpoint_AVR8.h **** 
 297:./lib/lufa/LUFA/Drivers/USB/Core/AVR8/../AVR8/Endpoint_AVR8.h **** 			/** Disables the currently selected endpoint so that data cannot be sent and received through it
 298:./lib/lufa/LUFA/Drivers/USB/Core/AVR8/../AVR8/Endpoint_AVR8.h **** 			 *  to and from a host.
 299:./lib/lufa/LUFA/Drivers/USB/Core/AVR8/../AVR8/Endpoint_AVR8.h **** 			 */
 300:./lib/lufa/LUFA/Drivers/USB/Core/AVR8/../AVR8/Endpoint_AVR8.h **** 			static inline void Endpoint_DisableEndpoint(void) ATTR_ALWAYS_INLINE;
 301:./lib/lufa/LUFA/Drivers/USB/Core/AVR8/../AVR8/Endpoint_AVR8.h **** 			static inline void Endpoint_DisableEndpoint(void)
 302:./lib/lufa/LUFA/Drivers/USB/Core/AVR8/../AVR8/Endpoint_AVR8.h **** 			{
 303:./lib/lufa/LUFA/Drivers/USB/Core/AVR8/../AVR8/Endpoint_AVR8.h **** 				UECONX &= ~(1 << EPEN);
 304:./lib/lufa/LUFA/Drivers/USB/Core/AVR8/../AVR8/Endpoint_AVR8.h **** 			}
 305:./lib/lufa/LUFA/Drivers/USB/Core/AVR8/../AVR8/Endpoint_AVR8.h **** 
 306:./lib/lufa/LUFA/Drivers/USB/Core/AVR8/../AVR8/Endpoint_AVR8.h **** 			/** Determines if the currently selected endpoint is enabled, but not necessarily configured.
 307:./lib/lufa/LUFA/Drivers/USB/Core/AVR8/../AVR8/Endpoint_AVR8.h **** 			 *
 308:./lib/lufa/LUFA/Drivers/USB/Core/AVR8/../AVR8/Endpoint_AVR8.h **** 			 * \return Boolean \c true if the currently selected endpoint is enabled, \c false otherwise.
 309:./lib/lufa/LUFA/Drivers/USB/Core/AVR8/../AVR8/Endpoint_AVR8.h **** 			 */
 310:./lib/lufa/LUFA/Drivers/USB/Core/AVR8/../AVR8/Endpoint_AVR8.h **** 			static inline bool Endpoint_IsEnabled(void) ATTR_WARN_UNUSED_RESULT ATTR_ALWAYS_INLINE;
 311:./lib/lufa/LUFA/Drivers/USB/Core/AVR8/../AVR8/Endpoint_AVR8.h **** 			static inline bool Endpoint_IsEnabled(void)
 312:./lib/lufa/LUFA/Drivers/USB/Core/AVR8/../AVR8/Endpoint_AVR8.h **** 			{
 313:./lib/lufa/LUFA/Drivers/USB/Core/AVR8/../AVR8/Endpoint_AVR8.h **** 				return ((UECONX & (1 << EPEN)) ? true : false);
 314:./lib/lufa/LUFA/Drivers/USB/Core/AVR8/../AVR8/Endpoint_AVR8.h **** 			}
 315:./lib/lufa/LUFA/Drivers/USB/Core/AVR8/../AVR8/Endpoint_AVR8.h **** 
 316:./lib/lufa/LUFA/Drivers/USB/Core/AVR8/../AVR8/Endpoint_AVR8.h **** 			/** Retrieves the number of busy banks in the currently selected endpoint, which have been queue
 317:./lib/lufa/LUFA/Drivers/USB/Core/AVR8/../AVR8/Endpoint_AVR8.h **** 			 *  transmission via the \ref Endpoint_ClearIN() command, or are awaiting acknowledgment via the
 318:./lib/lufa/LUFA/Drivers/USB/Core/AVR8/../AVR8/Endpoint_AVR8.h **** 			 *  \ref Endpoint_ClearOUT() command.
 319:./lib/lufa/LUFA/Drivers/USB/Core/AVR8/../AVR8/Endpoint_AVR8.h **** 			 *
 320:./lib/lufa/LUFA/Drivers/USB/Core/AVR8/../AVR8/Endpoint_AVR8.h **** 			 *  \ingroup Group_EndpointPacketManagement_AVR8
 321:./lib/lufa/LUFA/Drivers/USB/Core/AVR8/../AVR8/Endpoint_AVR8.h **** 			 *
 322:./lib/lufa/LUFA/Drivers/USB/Core/AVR8/../AVR8/Endpoint_AVR8.h **** 			 *  \return Total number of busy banks in the selected endpoint.
 323:./lib/lufa/LUFA/Drivers/USB/Core/AVR8/../AVR8/Endpoint_AVR8.h **** 			 */
 324:./lib/lufa/LUFA/Drivers/USB/Core/AVR8/../AVR8/Endpoint_AVR8.h **** 			static inline uint8_t Endpoint_GetBusyBanks(void) ATTR_ALWAYS_INLINE ATTR_WARN_UNUSED_RESULT;
 325:./lib/lufa/LUFA/Drivers/USB/Core/AVR8/../AVR8/Endpoint_AVR8.h **** 			static inline uint8_t Endpoint_GetBusyBanks(void)
 326:./lib/lufa/LUFA/Drivers/USB/Core/AVR8/../AVR8/Endpoint_AVR8.h **** 			{
 327:./lib/lufa/LUFA/Drivers/USB/Core/AVR8/../AVR8/Endpoint_AVR8.h **** 				return (UESTA0X & (0x03 << NBUSYBK0));
 328:./lib/lufa/LUFA/Drivers/USB/Core/AVR8/../AVR8/Endpoint_AVR8.h **** 			}
 329:./lib/lufa/LUFA/Drivers/USB/Core/AVR8/../AVR8/Endpoint_AVR8.h **** 
 330:./lib/lufa/LUFA/Drivers/USB/Core/AVR8/../AVR8/Endpoint_AVR8.h **** 			/** Aborts all pending IN transactions on the currently selected endpoint, once the bank
 331:./lib/lufa/LUFA/Drivers/USB/Core/AVR8/../AVR8/Endpoint_AVR8.h **** 			 *  has been queued for transmission to the host via \ref Endpoint_ClearIN(). This function
 332:./lib/lufa/LUFA/Drivers/USB/Core/AVR8/../AVR8/Endpoint_AVR8.h **** 			 *  will terminate all queued transactions, resetting the endpoint banks ready for a new
 333:./lib/lufa/LUFA/Drivers/USB/Core/AVR8/../AVR8/Endpoint_AVR8.h **** 			 *  packet.
 334:./lib/lufa/LUFA/Drivers/USB/Core/AVR8/../AVR8/Endpoint_AVR8.h **** 			 *
 335:./lib/lufa/LUFA/Drivers/USB/Core/AVR8/../AVR8/Endpoint_AVR8.h **** 			 *  \ingroup Group_EndpointPacketManagement_AVR8
 336:./lib/lufa/LUFA/Drivers/USB/Core/AVR8/../AVR8/Endpoint_AVR8.h **** 			 */
 337:./lib/lufa/LUFA/Drivers/USB/Core/AVR8/../AVR8/Endpoint_AVR8.h **** 			static inline void Endpoint_AbortPendingIN(void)
 338:./lib/lufa/LUFA/Drivers/USB/Core/AVR8/../AVR8/Endpoint_AVR8.h **** 			{
 339:./lib/lufa/LUFA/Drivers/USB/Core/AVR8/../AVR8/Endpoint_AVR8.h **** 				while (Endpoint_GetBusyBanks() != 0)
 340:./lib/lufa/LUFA/Drivers/USB/Core/AVR8/../AVR8/Endpoint_AVR8.h **** 				{
 341:./lib/lufa/LUFA/Drivers/USB/Core/AVR8/../AVR8/Endpoint_AVR8.h **** 					UEINTX |= (1 << RXOUTI);
 342:./lib/lufa/LUFA/Drivers/USB/Core/AVR8/../AVR8/Endpoint_AVR8.h **** 					while (UEINTX & (1 << RXOUTI));
 343:./lib/lufa/LUFA/Drivers/USB/Core/AVR8/../AVR8/Endpoint_AVR8.h **** 				}
 344:./lib/lufa/LUFA/Drivers/USB/Core/AVR8/../AVR8/Endpoint_AVR8.h **** 			}
 345:./lib/lufa/LUFA/Drivers/USB/Core/AVR8/../AVR8/Endpoint_AVR8.h **** 
 346:./lib/lufa/LUFA/Drivers/USB/Core/AVR8/../AVR8/Endpoint_AVR8.h **** 			/** Determines if the currently selected endpoint may be read from (if data is waiting in the en
 347:./lib/lufa/LUFA/Drivers/USB/Core/AVR8/../AVR8/Endpoint_AVR8.h **** 			 *  bank and the endpoint is an OUT direction, or if the bank is not yet full if the endpoint is
 348:./lib/lufa/LUFA/Drivers/USB/Core/AVR8/../AVR8/Endpoint_AVR8.h **** 			 *  direction). This function will return false if an error has occurred in the endpoint, if the
 349:./lib/lufa/LUFA/Drivers/USB/Core/AVR8/../AVR8/Endpoint_AVR8.h **** 			 *  is an OUT direction and no packet (or an empty packet) has been received, or if the endpoint
 350:./lib/lufa/LUFA/Drivers/USB/Core/AVR8/../AVR8/Endpoint_AVR8.h **** 			 *  direction and the endpoint bank is full.
 351:./lib/lufa/LUFA/Drivers/USB/Core/AVR8/../AVR8/Endpoint_AVR8.h **** 			 *
 352:./lib/lufa/LUFA/Drivers/USB/Core/AVR8/../AVR8/Endpoint_AVR8.h **** 			 *  \ingroup Group_EndpointPacketManagement_AVR8
 353:./lib/lufa/LUFA/Drivers/USB/Core/AVR8/../AVR8/Endpoint_AVR8.h **** 			 *
 354:./lib/lufa/LUFA/Drivers/USB/Core/AVR8/../AVR8/Endpoint_AVR8.h **** 			 *  \return Boolean \c true if the currently selected endpoint may be read from or written to, d
 355:./lib/lufa/LUFA/Drivers/USB/Core/AVR8/../AVR8/Endpoint_AVR8.h **** 			 *          on its direction.
 356:./lib/lufa/LUFA/Drivers/USB/Core/AVR8/../AVR8/Endpoint_AVR8.h **** 			 */
 357:./lib/lufa/LUFA/Drivers/USB/Core/AVR8/../AVR8/Endpoint_AVR8.h **** 			static inline bool Endpoint_IsReadWriteAllowed(void) ATTR_WARN_UNUSED_RESULT ATTR_ALWAYS_INLINE;
 358:./lib/lufa/LUFA/Drivers/USB/Core/AVR8/../AVR8/Endpoint_AVR8.h **** 			static inline bool Endpoint_IsReadWriteAllowed(void)
 359:./lib/lufa/LUFA/Drivers/USB/Core/AVR8/../AVR8/Endpoint_AVR8.h **** 			{
 360:./lib/lufa/LUFA/Drivers/USB/Core/AVR8/../AVR8/Endpoint_AVR8.h **** 				return ((UEINTX & (1 << RWAL)) ? true : false);
  95               		.loc 2 360 0
  96 002c 9091 E800 		lds r25,232
  97 0030 8150      		subi r24,lo8(-(-1))
  98               	.LVL7:
  99               	.LBE104:
 100               	.LBE103:
 785:./tmk_core/protocol/lufa/lufa.c ****         .report_id = REPORT_ID_CONSUMER,
 786:./tmk_core/protocol/lufa/lufa.c ****         .usage = data
 787:./tmk_core/protocol/lufa/lufa.c ****     };
 788:./tmk_core/protocol/lufa/lufa.c ****     Endpoint_SelectEndpoint(EXTRAKEY_IN_EPNUM);
 789:./tmk_core/protocol/lufa/lufa.c **** 
 790:./tmk_core/protocol/lufa/lufa.c ****     /* Check if write ready for a polling interval around 10ms */
 791:./tmk_core/protocol/lufa/lufa.c ****     while (timeout-- && !Endpoint_IsReadWriteAllowed()) _delay_us(40);
 101               		.loc 1 791 0
 102 0032 95FD      		sbrc r25,5
 103 0034 00C0      		rjmp .L6
 104               	.LVL8:
 105               	.LBB105:
 106               	.LBB106:
 107               		.file 3 "/usr/local/Cellar/avr-gcc@7/7.3.0/avr/include/util/delay.h"
   1:/usr/local/Cellar/avr-gcc@7/7.3.0/avr/include/util/delay.h **** /* Copyright (c) 2002, Marek Michalkiewicz
   2:/usr/local/Cellar/avr-gcc@7/7.3.0/avr/include/util/delay.h ****    Copyright (c) 2004,2005,2007 Joerg Wunsch
   3:/usr/local/Cellar/avr-gcc@7/7.3.0/avr/include/util/delay.h ****    Copyright (c) 2007  Florin-Viorel Petrov
   4:/usr/local/Cellar/avr-gcc@7/7.3.0/avr/include/util/delay.h ****    All rights reserved.
   5:/usr/local/Cellar/avr-gcc@7/7.3.0/avr/include/util/delay.h **** 
   6:/usr/local/Cellar/avr-gcc@7/7.3.0/avr/include/util/delay.h ****    Redistribution and use in source and binary forms, with or without
   7:/usr/local/Cellar/avr-gcc@7/7.3.0/avr/include/util/delay.h ****    modification, are permitted provided that the following conditions are met:
   8:/usr/local/Cellar/avr-gcc@7/7.3.0/avr/include/util/delay.h **** 
   9:/usr/local/Cellar/avr-gcc@7/7.3.0/avr/include/util/delay.h ****    * Redistributions of source code must retain the above copyright
  10:/usr/local/Cellar/avr-gcc@7/7.3.0/avr/include/util/delay.h ****      notice, this list of conditions and the following disclaimer.
  11:/usr/local/Cellar/avr-gcc@7/7.3.0/avr/include/util/delay.h **** 
  12:/usr/local/Cellar/avr-gcc@7/7.3.0/avr/include/util/delay.h ****    * Redistributions in binary form must reproduce the above copyright
  13:/usr/local/Cellar/avr-gcc@7/7.3.0/avr/include/util/delay.h ****      notice, this list of conditions and the following disclaimer in
  14:/usr/local/Cellar/avr-gcc@7/7.3.0/avr/include/util/delay.h ****      the documentation and/or other materials provided with the
  15:/usr/local/Cellar/avr-gcc@7/7.3.0/avr/include/util/delay.h ****      distribution.
  16:/usr/local/Cellar/avr-gcc@7/7.3.0/avr/include/util/delay.h **** 
  17:/usr/local/Cellar/avr-gcc@7/7.3.0/avr/include/util/delay.h ****    * Neither the name of the copyright holders nor the names of
  18:/usr/local/Cellar/avr-gcc@7/7.3.0/avr/include/util/delay.h ****      contributors may be used to endorse or promote products derived
  19:/usr/local/Cellar/avr-gcc@7/7.3.0/avr/include/util/delay.h ****      from this software without specific prior written permission.
  20:/usr/local/Cellar/avr-gcc@7/7.3.0/avr/include/util/delay.h **** 
  21:/usr/local/Cellar/avr-gcc@7/7.3.0/avr/include/util/delay.h ****   THIS SOFTWARE IS PROVIDED BY THE COPYRIGHT HOLDERS AND CONTRIBUTORS "AS IS"
  22:/usr/local/Cellar/avr-gcc@7/7.3.0/avr/include/util/delay.h ****   AND ANY EXPRESS OR IMPLIED WARRANTIES, INCLUDING, BUT NOT LIMITED TO, THE
  23:/usr/local/Cellar/avr-gcc@7/7.3.0/avr/include/util/delay.h ****   IMPLIED WARRANTIES OF MERCHANTABILITY AND FITNESS FOR A PARTICULAR PURPOSE
  24:/usr/local/Cellar/avr-gcc@7/7.3.0/avr/include/util/delay.h ****   ARE DISCLAIMED. IN NO EVENT SHALL THE COPYRIGHT OWNER OR CONTRIBUTORS BE
  25:/usr/local/Cellar/avr-gcc@7/7.3.0/avr/include/util/delay.h ****   LIABLE FOR ANY DIRECT, INDIRECT, INCIDENTAL, SPECIAL, EXEMPLARY, OR
  26:/usr/local/Cellar/avr-gcc@7/7.3.0/avr/include/util/delay.h ****   CONSEQUENTIAL DAMAGES (INCLUDING, BUT NOT LIMITED TO, PROCUREMENT OF
  27:/usr/local/Cellar/avr-gcc@7/7.3.0/avr/include/util/delay.h ****   SUBSTITUTE GOODS OR SERVICES; LOSS OF USE, DATA, OR PROFITS; OR BUSINESS
  28:/usr/local/Cellar/avr-gcc@7/7.3.0/avr/include/util/delay.h ****   INTERRUPTION) HOWEVER CAUSED AND ON ANY THEORY OF LIABILITY, WHETHER IN
  29:/usr/local/Cellar/avr-gcc@7/7.3.0/avr/include/util/delay.h ****   CONTRACT, STRICT LIABILITY, OR TORT (INCLUDING NEGLIGENCE OR OTHERWISE)
  30:/usr/local/Cellar/avr-gcc@7/7.3.0/avr/include/util/delay.h ****   ARISING IN ANY WAY OUT OF THE USE OF THIS SOFTWARE, EVEN IF ADVISED OF THE
  31:/usr/local/Cellar/avr-gcc@7/7.3.0/avr/include/util/delay.h ****   POSSIBILITY OF SUCH DAMAGE. */
  32:/usr/local/Cellar/avr-gcc@7/7.3.0/avr/include/util/delay.h **** 
  33:/usr/local/Cellar/avr-gcc@7/7.3.0/avr/include/util/delay.h **** /* $Id: delay.h.in 2506 2016-02-08 10:05:45Z joerg_wunsch $ */
  34:/usr/local/Cellar/avr-gcc@7/7.3.0/avr/include/util/delay.h **** 
  35:/usr/local/Cellar/avr-gcc@7/7.3.0/avr/include/util/delay.h **** #ifndef _UTIL_DELAY_H_
  36:/usr/local/Cellar/avr-gcc@7/7.3.0/avr/include/util/delay.h **** #define _UTIL_DELAY_H_ 1
  37:/usr/local/Cellar/avr-gcc@7/7.3.0/avr/include/util/delay.h **** 
  38:/usr/local/Cellar/avr-gcc@7/7.3.0/avr/include/util/delay.h **** #ifndef __DOXYGEN__
  39:/usr/local/Cellar/avr-gcc@7/7.3.0/avr/include/util/delay.h **** #  ifndef __HAS_DELAY_CYCLES
  40:/usr/local/Cellar/avr-gcc@7/7.3.0/avr/include/util/delay.h **** #    define __HAS_DELAY_CYCLES 1
  41:/usr/local/Cellar/avr-gcc@7/7.3.0/avr/include/util/delay.h **** #  endif
  42:/usr/local/Cellar/avr-gcc@7/7.3.0/avr/include/util/delay.h **** #endif  /* __DOXYGEN__ */
  43:/usr/local/Cellar/avr-gcc@7/7.3.0/avr/include/util/delay.h **** 
  44:/usr/local/Cellar/avr-gcc@7/7.3.0/avr/include/util/delay.h **** #include <inttypes.h>
  45:/usr/local/Cellar/avr-gcc@7/7.3.0/avr/include/util/delay.h **** #include <util/delay_basic.h>
  46:/usr/local/Cellar/avr-gcc@7/7.3.0/avr/include/util/delay.h **** #include <math.h>
  47:/usr/local/Cellar/avr-gcc@7/7.3.0/avr/include/util/delay.h **** 
  48:/usr/local/Cellar/avr-gcc@7/7.3.0/avr/include/util/delay.h **** /** \file */
  49:/usr/local/Cellar/avr-gcc@7/7.3.0/avr/include/util/delay.h **** /** \defgroup util_delay <util/delay.h>: Convenience functions for busy-wait delay loops
  50:/usr/local/Cellar/avr-gcc@7/7.3.0/avr/include/util/delay.h ****     \code
  51:/usr/local/Cellar/avr-gcc@7/7.3.0/avr/include/util/delay.h ****     #define F_CPU 1000000UL  // 1 MHz
  52:/usr/local/Cellar/avr-gcc@7/7.3.0/avr/include/util/delay.h ****     //#define F_CPU 14.7456E6
  53:/usr/local/Cellar/avr-gcc@7/7.3.0/avr/include/util/delay.h ****     #include <util/delay.h>
  54:/usr/local/Cellar/avr-gcc@7/7.3.0/avr/include/util/delay.h ****     \endcode
  55:/usr/local/Cellar/avr-gcc@7/7.3.0/avr/include/util/delay.h **** 
  56:/usr/local/Cellar/avr-gcc@7/7.3.0/avr/include/util/delay.h ****     \note As an alternative method, it is possible to pass the
  57:/usr/local/Cellar/avr-gcc@7/7.3.0/avr/include/util/delay.h ****     F_CPU macro down to the compiler from the Makefile.
  58:/usr/local/Cellar/avr-gcc@7/7.3.0/avr/include/util/delay.h ****     Obviously, in that case, no \c \#define statement should be
  59:/usr/local/Cellar/avr-gcc@7/7.3.0/avr/include/util/delay.h ****     used.
  60:/usr/local/Cellar/avr-gcc@7/7.3.0/avr/include/util/delay.h **** 
  61:/usr/local/Cellar/avr-gcc@7/7.3.0/avr/include/util/delay.h ****     The functions in this header file are wrappers around the basic
  62:/usr/local/Cellar/avr-gcc@7/7.3.0/avr/include/util/delay.h ****     busy-wait functions from <util/delay_basic.h>.  They are meant as
  63:/usr/local/Cellar/avr-gcc@7/7.3.0/avr/include/util/delay.h ****     convenience functions where actual time values can be specified
  64:/usr/local/Cellar/avr-gcc@7/7.3.0/avr/include/util/delay.h ****     rather than a number of cycles to wait for.  The idea behind is
  65:/usr/local/Cellar/avr-gcc@7/7.3.0/avr/include/util/delay.h ****     that compile-time constant expressions will be eliminated by
  66:/usr/local/Cellar/avr-gcc@7/7.3.0/avr/include/util/delay.h ****     compiler optimization so floating-point expressions can be used
  67:/usr/local/Cellar/avr-gcc@7/7.3.0/avr/include/util/delay.h ****     to calculate the number of delay cycles needed based on the CPU
  68:/usr/local/Cellar/avr-gcc@7/7.3.0/avr/include/util/delay.h ****     frequency passed by the macro F_CPU.
  69:/usr/local/Cellar/avr-gcc@7/7.3.0/avr/include/util/delay.h **** 
  70:/usr/local/Cellar/avr-gcc@7/7.3.0/avr/include/util/delay.h ****     \note In order for these functions to work as intended, compiler
  71:/usr/local/Cellar/avr-gcc@7/7.3.0/avr/include/util/delay.h ****     optimizations <em>must</em> be enabled, and the delay time
  72:/usr/local/Cellar/avr-gcc@7/7.3.0/avr/include/util/delay.h ****     <em>must</em> be an expression that is a known constant at
  73:/usr/local/Cellar/avr-gcc@7/7.3.0/avr/include/util/delay.h ****     compile-time.  If these requirements are not met, the resulting
  74:/usr/local/Cellar/avr-gcc@7/7.3.0/avr/include/util/delay.h ****     delay will be much longer (and basically unpredictable), and
  75:/usr/local/Cellar/avr-gcc@7/7.3.0/avr/include/util/delay.h ****     applications that otherwise do not use floating-point calculations
  76:/usr/local/Cellar/avr-gcc@7/7.3.0/avr/include/util/delay.h ****     will experience severe code bloat by the floating-point library
  77:/usr/local/Cellar/avr-gcc@7/7.3.0/avr/include/util/delay.h ****     routines linked into the application.
  78:/usr/local/Cellar/avr-gcc@7/7.3.0/avr/include/util/delay.h **** 
  79:/usr/local/Cellar/avr-gcc@7/7.3.0/avr/include/util/delay.h ****     The functions available allow the specification of microsecond, and
  80:/usr/local/Cellar/avr-gcc@7/7.3.0/avr/include/util/delay.h ****     millisecond delays directly, using the application-supplied macro
  81:/usr/local/Cellar/avr-gcc@7/7.3.0/avr/include/util/delay.h ****     F_CPU as the CPU clock frequency (in Hertz).
  82:/usr/local/Cellar/avr-gcc@7/7.3.0/avr/include/util/delay.h **** 
  83:/usr/local/Cellar/avr-gcc@7/7.3.0/avr/include/util/delay.h **** */
  84:/usr/local/Cellar/avr-gcc@7/7.3.0/avr/include/util/delay.h **** 
  85:/usr/local/Cellar/avr-gcc@7/7.3.0/avr/include/util/delay.h **** #if !defined(__DOXYGEN__)
  86:/usr/local/Cellar/avr-gcc@7/7.3.0/avr/include/util/delay.h **** static __inline__ void _delay_us(double __us) __attribute__((__always_inline__));
  87:/usr/local/Cellar/avr-gcc@7/7.3.0/avr/include/util/delay.h **** static __inline__ void _delay_ms(double __ms) __attribute__((__always_inline__));
  88:/usr/local/Cellar/avr-gcc@7/7.3.0/avr/include/util/delay.h **** #endif
  89:/usr/local/Cellar/avr-gcc@7/7.3.0/avr/include/util/delay.h **** 
  90:/usr/local/Cellar/avr-gcc@7/7.3.0/avr/include/util/delay.h **** #ifndef F_CPU
  91:/usr/local/Cellar/avr-gcc@7/7.3.0/avr/include/util/delay.h **** /* prevent compiler error by supplying a default */
  92:/usr/local/Cellar/avr-gcc@7/7.3.0/avr/include/util/delay.h **** # warning "F_CPU not defined for <util/delay.h>"
  93:/usr/local/Cellar/avr-gcc@7/7.3.0/avr/include/util/delay.h **** /** \ingroup util_delay
  94:/usr/local/Cellar/avr-gcc@7/7.3.0/avr/include/util/delay.h ****     \def F_CPU
  95:/usr/local/Cellar/avr-gcc@7/7.3.0/avr/include/util/delay.h ****     \brief CPU frequency in Hz
  96:/usr/local/Cellar/avr-gcc@7/7.3.0/avr/include/util/delay.h **** 
  97:/usr/local/Cellar/avr-gcc@7/7.3.0/avr/include/util/delay.h ****     The macro F_CPU specifies the CPU frequency to be considered by
  98:/usr/local/Cellar/avr-gcc@7/7.3.0/avr/include/util/delay.h ****     the delay macros.  This macro is normally supplied by the
  99:/usr/local/Cellar/avr-gcc@7/7.3.0/avr/include/util/delay.h ****     environment (e.g. from within a project header, or the project's
 100:/usr/local/Cellar/avr-gcc@7/7.3.0/avr/include/util/delay.h ****     Makefile).  The value 1 MHz here is only provided as a "vanilla"
 101:/usr/local/Cellar/avr-gcc@7/7.3.0/avr/include/util/delay.h ****     fallback if no such user-provided definition could be found.
 102:/usr/local/Cellar/avr-gcc@7/7.3.0/avr/include/util/delay.h **** 
 103:/usr/local/Cellar/avr-gcc@7/7.3.0/avr/include/util/delay.h ****     In terms of the delay functions, the CPU frequency can be given as
 104:/usr/local/Cellar/avr-gcc@7/7.3.0/avr/include/util/delay.h ****     a floating-point constant (e.g. 3.6864E6 for 3.6864 MHz).
 105:/usr/local/Cellar/avr-gcc@7/7.3.0/avr/include/util/delay.h ****     However, the macros in <util/setbaud.h> require it to be an
 106:/usr/local/Cellar/avr-gcc@7/7.3.0/avr/include/util/delay.h ****     integer value.
 107:/usr/local/Cellar/avr-gcc@7/7.3.0/avr/include/util/delay.h ****  */
 108:/usr/local/Cellar/avr-gcc@7/7.3.0/avr/include/util/delay.h **** # define F_CPU 1000000UL
 109:/usr/local/Cellar/avr-gcc@7/7.3.0/avr/include/util/delay.h **** #endif
 110:/usr/local/Cellar/avr-gcc@7/7.3.0/avr/include/util/delay.h **** 
 111:/usr/local/Cellar/avr-gcc@7/7.3.0/avr/include/util/delay.h **** #ifndef __OPTIMIZE__
 112:/usr/local/Cellar/avr-gcc@7/7.3.0/avr/include/util/delay.h **** # warning "Compiler optimizations disabled; functions from <util/delay.h> won't work as designed"
 113:/usr/local/Cellar/avr-gcc@7/7.3.0/avr/include/util/delay.h **** #endif
 114:/usr/local/Cellar/avr-gcc@7/7.3.0/avr/include/util/delay.h **** 
 115:/usr/local/Cellar/avr-gcc@7/7.3.0/avr/include/util/delay.h **** #if __HAS_DELAY_CYCLES && defined(__OPTIMIZE__) && \
 116:/usr/local/Cellar/avr-gcc@7/7.3.0/avr/include/util/delay.h ****   !defined(__DELAY_BACKWARD_COMPATIBLE__) &&	   \
 117:/usr/local/Cellar/avr-gcc@7/7.3.0/avr/include/util/delay.h ****   __STDC_HOSTED__
 118:/usr/local/Cellar/avr-gcc@7/7.3.0/avr/include/util/delay.h **** #  include <math.h>
 119:/usr/local/Cellar/avr-gcc@7/7.3.0/avr/include/util/delay.h **** #endif
 120:/usr/local/Cellar/avr-gcc@7/7.3.0/avr/include/util/delay.h **** 
 121:/usr/local/Cellar/avr-gcc@7/7.3.0/avr/include/util/delay.h **** /**
 122:/usr/local/Cellar/avr-gcc@7/7.3.0/avr/include/util/delay.h ****    \ingroup util_delay
 123:/usr/local/Cellar/avr-gcc@7/7.3.0/avr/include/util/delay.h **** 
 124:/usr/local/Cellar/avr-gcc@7/7.3.0/avr/include/util/delay.h ****    Perform a delay of \c __ms milliseconds, using _delay_loop_2().
 125:/usr/local/Cellar/avr-gcc@7/7.3.0/avr/include/util/delay.h **** 
 126:/usr/local/Cellar/avr-gcc@7/7.3.0/avr/include/util/delay.h ****    The macro F_CPU is supposed to be defined to a
 127:/usr/local/Cellar/avr-gcc@7/7.3.0/avr/include/util/delay.h ****    constant defining the CPU clock frequency (in Hertz).
 128:/usr/local/Cellar/avr-gcc@7/7.3.0/avr/include/util/delay.h **** 
 129:/usr/local/Cellar/avr-gcc@7/7.3.0/avr/include/util/delay.h ****    The maximal possible delay is 262.14 ms / F_CPU in MHz.
 130:/usr/local/Cellar/avr-gcc@7/7.3.0/avr/include/util/delay.h **** 
 131:/usr/local/Cellar/avr-gcc@7/7.3.0/avr/include/util/delay.h ****    When the user request delay which exceed the maximum possible one,
 132:/usr/local/Cellar/avr-gcc@7/7.3.0/avr/include/util/delay.h ****    _delay_ms() provides a decreased resolution functionality. In this
 133:/usr/local/Cellar/avr-gcc@7/7.3.0/avr/include/util/delay.h ****    mode _delay_ms() will work with a resolution of 1/10 ms, providing
 134:/usr/local/Cellar/avr-gcc@7/7.3.0/avr/include/util/delay.h ****    delays up to 6.5535 seconds (independent from CPU frequency).  The
 135:/usr/local/Cellar/avr-gcc@7/7.3.0/avr/include/util/delay.h ****    user will not be informed about decreased resolution.
 136:/usr/local/Cellar/avr-gcc@7/7.3.0/avr/include/util/delay.h **** 
 137:/usr/local/Cellar/avr-gcc@7/7.3.0/avr/include/util/delay.h ****    If the avr-gcc toolchain has __builtin_avr_delay_cycles()
 138:/usr/local/Cellar/avr-gcc@7/7.3.0/avr/include/util/delay.h ****    support, maximal possible delay is 4294967.295 ms/ F_CPU in MHz. For
 139:/usr/local/Cellar/avr-gcc@7/7.3.0/avr/include/util/delay.h ****    values greater than the maximal possible delay, overflows results in
 140:/usr/local/Cellar/avr-gcc@7/7.3.0/avr/include/util/delay.h ****    no delay i.e., 0ms.
 141:/usr/local/Cellar/avr-gcc@7/7.3.0/avr/include/util/delay.h **** 
 142:/usr/local/Cellar/avr-gcc@7/7.3.0/avr/include/util/delay.h ****    Conversion of \c __ms into clock cycles may not always result in
 143:/usr/local/Cellar/avr-gcc@7/7.3.0/avr/include/util/delay.h ****    integer.  By default, the clock cycles rounded up to next
 144:/usr/local/Cellar/avr-gcc@7/7.3.0/avr/include/util/delay.h ****    integer. This ensures that the user gets at least \c __ms
 145:/usr/local/Cellar/avr-gcc@7/7.3.0/avr/include/util/delay.h ****    microseconds of delay.
 146:/usr/local/Cellar/avr-gcc@7/7.3.0/avr/include/util/delay.h **** 
 147:/usr/local/Cellar/avr-gcc@7/7.3.0/avr/include/util/delay.h ****    Alternatively, by defining the macro \c __DELAY_ROUND_DOWN__, or
 148:/usr/local/Cellar/avr-gcc@7/7.3.0/avr/include/util/delay.h ****    \c __DELAY_ROUND_CLOSEST__, before including this header file, the
 149:/usr/local/Cellar/avr-gcc@7/7.3.0/avr/include/util/delay.h ****    algorithm can be made to round down, or round to closest integer,
 150:/usr/local/Cellar/avr-gcc@7/7.3.0/avr/include/util/delay.h ****    respectively.
 151:/usr/local/Cellar/avr-gcc@7/7.3.0/avr/include/util/delay.h **** 
 152:/usr/local/Cellar/avr-gcc@7/7.3.0/avr/include/util/delay.h ****    \note
 153:/usr/local/Cellar/avr-gcc@7/7.3.0/avr/include/util/delay.h **** 
 154:/usr/local/Cellar/avr-gcc@7/7.3.0/avr/include/util/delay.h ****    The implementation of _delay_ms() based on
 155:/usr/local/Cellar/avr-gcc@7/7.3.0/avr/include/util/delay.h ****    __builtin_avr_delay_cycles() is not backward compatible with older
 156:/usr/local/Cellar/avr-gcc@7/7.3.0/avr/include/util/delay.h ****    implementations.  In order to get functionality backward compatible
 157:/usr/local/Cellar/avr-gcc@7/7.3.0/avr/include/util/delay.h ****    with previous versions, the macro \c "__DELAY_BACKWARD_COMPATIBLE__"
 158:/usr/local/Cellar/avr-gcc@7/7.3.0/avr/include/util/delay.h ****    must be defined before including this header file. Also, the
 159:/usr/local/Cellar/avr-gcc@7/7.3.0/avr/include/util/delay.h ****    backward compatible algorithm will be chosen if the code is
 160:/usr/local/Cellar/avr-gcc@7/7.3.0/avr/include/util/delay.h ****    compiled in a <em>freestanding environment</em> (GCC option
 161:/usr/local/Cellar/avr-gcc@7/7.3.0/avr/include/util/delay.h ****    \c -ffreestanding), as the math functions required for rounding are
 162:/usr/local/Cellar/avr-gcc@7/7.3.0/avr/include/util/delay.h ****    not available to the compiler then.
 163:/usr/local/Cellar/avr-gcc@7/7.3.0/avr/include/util/delay.h **** 
 164:/usr/local/Cellar/avr-gcc@7/7.3.0/avr/include/util/delay.h ****  */
 165:/usr/local/Cellar/avr-gcc@7/7.3.0/avr/include/util/delay.h **** void
 166:/usr/local/Cellar/avr-gcc@7/7.3.0/avr/include/util/delay.h **** _delay_ms(double __ms)
 167:/usr/local/Cellar/avr-gcc@7/7.3.0/avr/include/util/delay.h **** {
 168:/usr/local/Cellar/avr-gcc@7/7.3.0/avr/include/util/delay.h **** 	double __tmp ;
 169:/usr/local/Cellar/avr-gcc@7/7.3.0/avr/include/util/delay.h **** #if __HAS_DELAY_CYCLES && defined(__OPTIMIZE__) && \
 170:/usr/local/Cellar/avr-gcc@7/7.3.0/avr/include/util/delay.h ****   !defined(__DELAY_BACKWARD_COMPATIBLE__) &&	   \
 171:/usr/local/Cellar/avr-gcc@7/7.3.0/avr/include/util/delay.h ****   __STDC_HOSTED__
 172:/usr/local/Cellar/avr-gcc@7/7.3.0/avr/include/util/delay.h **** 	uint32_t __ticks_dc;
 173:/usr/local/Cellar/avr-gcc@7/7.3.0/avr/include/util/delay.h **** 	extern void __builtin_avr_delay_cycles(unsigned long);
 174:/usr/local/Cellar/avr-gcc@7/7.3.0/avr/include/util/delay.h **** 	__tmp = ((F_CPU) / 1e3) * __ms;
 175:/usr/local/Cellar/avr-gcc@7/7.3.0/avr/include/util/delay.h **** 
 176:/usr/local/Cellar/avr-gcc@7/7.3.0/avr/include/util/delay.h **** 	#if defined(__DELAY_ROUND_DOWN__)
 177:/usr/local/Cellar/avr-gcc@7/7.3.0/avr/include/util/delay.h **** 		__ticks_dc = (uint32_t)fabs(__tmp);
 178:/usr/local/Cellar/avr-gcc@7/7.3.0/avr/include/util/delay.h **** 
 179:/usr/local/Cellar/avr-gcc@7/7.3.0/avr/include/util/delay.h **** 	#elif defined(__DELAY_ROUND_CLOSEST__)
 180:/usr/local/Cellar/avr-gcc@7/7.3.0/avr/include/util/delay.h **** 		__ticks_dc = (uint32_t)(fabs(__tmp)+0.5);
 181:/usr/local/Cellar/avr-gcc@7/7.3.0/avr/include/util/delay.h **** 
 182:/usr/local/Cellar/avr-gcc@7/7.3.0/avr/include/util/delay.h **** 	#else
 183:/usr/local/Cellar/avr-gcc@7/7.3.0/avr/include/util/delay.h **** 		//round up by default
 184:/usr/local/Cellar/avr-gcc@7/7.3.0/avr/include/util/delay.h **** 		__ticks_dc = (uint32_t)(ceil(fabs(__tmp)));
 185:/usr/local/Cellar/avr-gcc@7/7.3.0/avr/include/util/delay.h **** 	#endif
 186:/usr/local/Cellar/avr-gcc@7/7.3.0/avr/include/util/delay.h **** 
 187:/usr/local/Cellar/avr-gcc@7/7.3.0/avr/include/util/delay.h **** 	__builtin_avr_delay_cycles(__ticks_dc);
 188:/usr/local/Cellar/avr-gcc@7/7.3.0/avr/include/util/delay.h **** 
 189:/usr/local/Cellar/avr-gcc@7/7.3.0/avr/include/util/delay.h **** #else
 190:/usr/local/Cellar/avr-gcc@7/7.3.0/avr/include/util/delay.h **** 	uint16_t __ticks;
 191:/usr/local/Cellar/avr-gcc@7/7.3.0/avr/include/util/delay.h **** 	__tmp = ((F_CPU) / 4e3) * __ms;
 192:/usr/local/Cellar/avr-gcc@7/7.3.0/avr/include/util/delay.h **** 	if (__tmp < 1.0)
 193:/usr/local/Cellar/avr-gcc@7/7.3.0/avr/include/util/delay.h **** 		__ticks = 1;
 194:/usr/local/Cellar/avr-gcc@7/7.3.0/avr/include/util/delay.h **** 	else if (__tmp > 65535)
 195:/usr/local/Cellar/avr-gcc@7/7.3.0/avr/include/util/delay.h **** 	{
 196:/usr/local/Cellar/avr-gcc@7/7.3.0/avr/include/util/delay.h **** 		//	__ticks = requested delay in 1/10 ms
 197:/usr/local/Cellar/avr-gcc@7/7.3.0/avr/include/util/delay.h **** 		__ticks = (uint16_t) (__ms * 10.0);
 198:/usr/local/Cellar/avr-gcc@7/7.3.0/avr/include/util/delay.h **** 		while(__ticks)
 199:/usr/local/Cellar/avr-gcc@7/7.3.0/avr/include/util/delay.h **** 		{
 200:/usr/local/Cellar/avr-gcc@7/7.3.0/avr/include/util/delay.h **** 			// wait 1/10 ms
 201:/usr/local/Cellar/avr-gcc@7/7.3.0/avr/include/util/delay.h **** 			_delay_loop_2(((F_CPU) / 4e3) / 10);
 202:/usr/local/Cellar/avr-gcc@7/7.3.0/avr/include/util/delay.h **** 			__ticks --;
 203:/usr/local/Cellar/avr-gcc@7/7.3.0/avr/include/util/delay.h **** 		}
 204:/usr/local/Cellar/avr-gcc@7/7.3.0/avr/include/util/delay.h **** 		return;
 205:/usr/local/Cellar/avr-gcc@7/7.3.0/avr/include/util/delay.h **** 	}
 206:/usr/local/Cellar/avr-gcc@7/7.3.0/avr/include/util/delay.h **** 	else
 207:/usr/local/Cellar/avr-gcc@7/7.3.0/avr/include/util/delay.h **** 		__ticks = (uint16_t)__tmp;
 208:/usr/local/Cellar/avr-gcc@7/7.3.0/avr/include/util/delay.h **** 	_delay_loop_2(__ticks);
 209:/usr/local/Cellar/avr-gcc@7/7.3.0/avr/include/util/delay.h **** #endif
 210:/usr/local/Cellar/avr-gcc@7/7.3.0/avr/include/util/delay.h **** }
 211:/usr/local/Cellar/avr-gcc@7/7.3.0/avr/include/util/delay.h **** 
 212:/usr/local/Cellar/avr-gcc@7/7.3.0/avr/include/util/delay.h **** /**
 213:/usr/local/Cellar/avr-gcc@7/7.3.0/avr/include/util/delay.h ****    \ingroup util_delay
 214:/usr/local/Cellar/avr-gcc@7/7.3.0/avr/include/util/delay.h **** 
 215:/usr/local/Cellar/avr-gcc@7/7.3.0/avr/include/util/delay.h ****    Perform a delay of \c __us microseconds, using _delay_loop_1().
 216:/usr/local/Cellar/avr-gcc@7/7.3.0/avr/include/util/delay.h **** 
 217:/usr/local/Cellar/avr-gcc@7/7.3.0/avr/include/util/delay.h ****    The macro F_CPU is supposed to be defined to a
 218:/usr/local/Cellar/avr-gcc@7/7.3.0/avr/include/util/delay.h ****    constant defining the CPU clock frequency (in Hertz).
 219:/usr/local/Cellar/avr-gcc@7/7.3.0/avr/include/util/delay.h **** 
 220:/usr/local/Cellar/avr-gcc@7/7.3.0/avr/include/util/delay.h ****    The maximal possible delay is 768 us / F_CPU in MHz.
 221:/usr/local/Cellar/avr-gcc@7/7.3.0/avr/include/util/delay.h **** 
 222:/usr/local/Cellar/avr-gcc@7/7.3.0/avr/include/util/delay.h ****    If the user requests a delay greater than the maximal possible one,
 223:/usr/local/Cellar/avr-gcc@7/7.3.0/avr/include/util/delay.h ****    _delay_us() will automatically call _delay_ms() instead.  The user
 224:/usr/local/Cellar/avr-gcc@7/7.3.0/avr/include/util/delay.h ****    will not be informed about this case.
 225:/usr/local/Cellar/avr-gcc@7/7.3.0/avr/include/util/delay.h **** 
 226:/usr/local/Cellar/avr-gcc@7/7.3.0/avr/include/util/delay.h ****    If the avr-gcc toolchain has __builtin_avr_delay_cycles()
 227:/usr/local/Cellar/avr-gcc@7/7.3.0/avr/include/util/delay.h ****    support, maximal possible delay is 4294967.295 us/ F_CPU in MHz. For
 228:/usr/local/Cellar/avr-gcc@7/7.3.0/avr/include/util/delay.h ****    values greater than the maximal possible delay, overflow results in
 229:/usr/local/Cellar/avr-gcc@7/7.3.0/avr/include/util/delay.h ****    no delay i.e., 0us.
 230:/usr/local/Cellar/avr-gcc@7/7.3.0/avr/include/util/delay.h **** 
 231:/usr/local/Cellar/avr-gcc@7/7.3.0/avr/include/util/delay.h ****    Conversion of \c __us into clock cycles may not always result in
 232:/usr/local/Cellar/avr-gcc@7/7.3.0/avr/include/util/delay.h ****    integer.  By default, the clock cycles rounded up to next
 233:/usr/local/Cellar/avr-gcc@7/7.3.0/avr/include/util/delay.h ****    integer. This ensures that the user gets at least \c __us
 234:/usr/local/Cellar/avr-gcc@7/7.3.0/avr/include/util/delay.h ****    microseconds of delay.
 235:/usr/local/Cellar/avr-gcc@7/7.3.0/avr/include/util/delay.h **** 
 236:/usr/local/Cellar/avr-gcc@7/7.3.0/avr/include/util/delay.h ****    Alternatively, by defining the macro \c __DELAY_ROUND_DOWN__, or
 237:/usr/local/Cellar/avr-gcc@7/7.3.0/avr/include/util/delay.h ****    \c __DELAY_ROUND_CLOSEST__, before including this header file, the
 238:/usr/local/Cellar/avr-gcc@7/7.3.0/avr/include/util/delay.h ****    algorithm can be made to round down, or round to closest integer,
 239:/usr/local/Cellar/avr-gcc@7/7.3.0/avr/include/util/delay.h ****    respectively.
 240:/usr/local/Cellar/avr-gcc@7/7.3.0/avr/include/util/delay.h **** 
 241:/usr/local/Cellar/avr-gcc@7/7.3.0/avr/include/util/delay.h ****    \note
 242:/usr/local/Cellar/avr-gcc@7/7.3.0/avr/include/util/delay.h **** 
 243:/usr/local/Cellar/avr-gcc@7/7.3.0/avr/include/util/delay.h ****    The implementation of _delay_ms() based on
 244:/usr/local/Cellar/avr-gcc@7/7.3.0/avr/include/util/delay.h ****    __builtin_avr_delay_cycles() is not backward compatible with older
 245:/usr/local/Cellar/avr-gcc@7/7.3.0/avr/include/util/delay.h ****    implementations.  In order to get functionality backward compatible
 246:/usr/local/Cellar/avr-gcc@7/7.3.0/avr/include/util/delay.h ****    with previous versions, the macro \c __DELAY_BACKWARD_COMPATIBLE__
 247:/usr/local/Cellar/avr-gcc@7/7.3.0/avr/include/util/delay.h ****    must be defined before including this header file. Also, the
 248:/usr/local/Cellar/avr-gcc@7/7.3.0/avr/include/util/delay.h ****    backward compatible algorithm will be chosen if the code is
 249:/usr/local/Cellar/avr-gcc@7/7.3.0/avr/include/util/delay.h ****    compiled in a <em>freestanding environment</em> (GCC option
 250:/usr/local/Cellar/avr-gcc@7/7.3.0/avr/include/util/delay.h ****    \c -ffreestanding), as the math functions required for rounding are
 251:/usr/local/Cellar/avr-gcc@7/7.3.0/avr/include/util/delay.h ****    not available to the compiler then.
 252:/usr/local/Cellar/avr-gcc@7/7.3.0/avr/include/util/delay.h **** 
 253:/usr/local/Cellar/avr-gcc@7/7.3.0/avr/include/util/delay.h ****  */
 254:/usr/local/Cellar/avr-gcc@7/7.3.0/avr/include/util/delay.h **** void
 255:/usr/local/Cellar/avr-gcc@7/7.3.0/avr/include/util/delay.h **** _delay_us(double __us)
 256:/usr/local/Cellar/avr-gcc@7/7.3.0/avr/include/util/delay.h **** {
 257:/usr/local/Cellar/avr-gcc@7/7.3.0/avr/include/util/delay.h **** 	double __tmp ;
 258:/usr/local/Cellar/avr-gcc@7/7.3.0/avr/include/util/delay.h **** #if __HAS_DELAY_CYCLES && defined(__OPTIMIZE__) && \
 259:/usr/local/Cellar/avr-gcc@7/7.3.0/avr/include/util/delay.h ****   !defined(__DELAY_BACKWARD_COMPATIBLE__) &&	   \
 260:/usr/local/Cellar/avr-gcc@7/7.3.0/avr/include/util/delay.h ****   __STDC_HOSTED__
 261:/usr/local/Cellar/avr-gcc@7/7.3.0/avr/include/util/delay.h **** 	uint32_t __ticks_dc;
 262:/usr/local/Cellar/avr-gcc@7/7.3.0/avr/include/util/delay.h **** 	extern void __builtin_avr_delay_cycles(unsigned long);
 263:/usr/local/Cellar/avr-gcc@7/7.3.0/avr/include/util/delay.h **** 	__tmp = ((F_CPU) / 1e6) * __us;
 264:/usr/local/Cellar/avr-gcc@7/7.3.0/avr/include/util/delay.h **** 
 265:/usr/local/Cellar/avr-gcc@7/7.3.0/avr/include/util/delay.h **** 	#if defined(__DELAY_ROUND_DOWN__)
 266:/usr/local/Cellar/avr-gcc@7/7.3.0/avr/include/util/delay.h **** 		__ticks_dc = (uint32_t)fabs(__tmp);
 267:/usr/local/Cellar/avr-gcc@7/7.3.0/avr/include/util/delay.h **** 
 268:/usr/local/Cellar/avr-gcc@7/7.3.0/avr/include/util/delay.h **** 	#elif defined(__DELAY_ROUND_CLOSEST__)
 269:/usr/local/Cellar/avr-gcc@7/7.3.0/avr/include/util/delay.h **** 		__ticks_dc = (uint32_t)(fabs(__tmp)+0.5);
 270:/usr/local/Cellar/avr-gcc@7/7.3.0/avr/include/util/delay.h **** 
 271:/usr/local/Cellar/avr-gcc@7/7.3.0/avr/include/util/delay.h **** 	#else
 272:/usr/local/Cellar/avr-gcc@7/7.3.0/avr/include/util/delay.h **** 		//round up by default
 273:/usr/local/Cellar/avr-gcc@7/7.3.0/avr/include/util/delay.h **** 		__ticks_dc = (uint32_t)(ceil(fabs(__tmp)));
 274:/usr/local/Cellar/avr-gcc@7/7.3.0/avr/include/util/delay.h **** 	#endif
 275:/usr/local/Cellar/avr-gcc@7/7.3.0/avr/include/util/delay.h **** 
 276:/usr/local/Cellar/avr-gcc@7/7.3.0/avr/include/util/delay.h **** 	__builtin_avr_delay_cycles(__ticks_dc);
 108               		.loc 3 276 0
 109 0036 95ED      		ldi r25,lo8(-43)
 110 0038 9A95      	1:	dec r25
 111 003a 01F4      		brne 1b
 112 003c 0000      		nop
 113               	.LVL9:
 114               	.LBE106:
 115               	.LBE105:
 116               		.loc 1 791 0
 117 003e 8111      		cpse r24,__zero_reg__
 118 0040 00C0      		rjmp .L5
 119               	.LVL10:
 120               	.L6:
 121               	.LBB107:
 122               	.LBB108:
 123               		.loc 2 360 0
 124 0042 8091 E800 		lds r24,232
 125               	.LBE108:
 126               	.LBE107:
 792:./tmk_core/protocol/lufa/lufa.c ****     if (!Endpoint_IsReadWriteAllowed()) return;
 127               		.loc 1 792 0
 128 0046 85FF      		sbrs r24,5
 129 0048 00C0      		rjmp .L2
 793:./tmk_core/protocol/lufa/lufa.c **** 
 794:./tmk_core/protocol/lufa/lufa.c ****     Endpoint_Write_Stream_LE(&r, sizeof(report_extra_t), NULL);
 130               		.loc 1 794 0
 131 004a 50E0      		ldi r21,0
 132 004c 40E0      		ldi r20,0
 133 004e 63E0      		ldi r22,lo8(3)
 134 0050 70E0      		ldi r23,0
 135 0052 CE01      		movw r24,r28
 136 0054 0196      		adiw r24,1
 137 0056 0E94 0000 		call Endpoint_Write_Stream_LE
 138               	.LVL11:
 139               	.LBB109:
 140               	.LBB110:
 361:./lib/lufa/LUFA/Drivers/USB/Core/AVR8/../AVR8/Endpoint_AVR8.h **** 			}
 362:./lib/lufa/LUFA/Drivers/USB/Core/AVR8/../AVR8/Endpoint_AVR8.h **** 
 363:./lib/lufa/LUFA/Drivers/USB/Core/AVR8/../AVR8/Endpoint_AVR8.h **** 			/** Determines if the currently selected endpoint is configured.
 364:./lib/lufa/LUFA/Drivers/USB/Core/AVR8/../AVR8/Endpoint_AVR8.h **** 			 *
 365:./lib/lufa/LUFA/Drivers/USB/Core/AVR8/../AVR8/Endpoint_AVR8.h **** 			 *  \return Boolean \c true if the currently selected endpoint has been configured, \c false oth
 366:./lib/lufa/LUFA/Drivers/USB/Core/AVR8/../AVR8/Endpoint_AVR8.h **** 			 */
 367:./lib/lufa/LUFA/Drivers/USB/Core/AVR8/../AVR8/Endpoint_AVR8.h **** 			static inline bool Endpoint_IsConfigured(void) ATTR_WARN_UNUSED_RESULT ATTR_ALWAYS_INLINE;
 368:./lib/lufa/LUFA/Drivers/USB/Core/AVR8/../AVR8/Endpoint_AVR8.h **** 			static inline bool Endpoint_IsConfigured(void)
 369:./lib/lufa/LUFA/Drivers/USB/Core/AVR8/../AVR8/Endpoint_AVR8.h **** 			{
 370:./lib/lufa/LUFA/Drivers/USB/Core/AVR8/../AVR8/Endpoint_AVR8.h **** 				return ((UESTA0X & (1 << CFGOK)) ? true : false);
 371:./lib/lufa/LUFA/Drivers/USB/Core/AVR8/../AVR8/Endpoint_AVR8.h **** 			}
 372:./lib/lufa/LUFA/Drivers/USB/Core/AVR8/../AVR8/Endpoint_AVR8.h **** 
 373:./lib/lufa/LUFA/Drivers/USB/Core/AVR8/../AVR8/Endpoint_AVR8.h **** 			/** Returns a mask indicating which INTERRUPT type endpoints have interrupted - i.e. their
 374:./lib/lufa/LUFA/Drivers/USB/Core/AVR8/../AVR8/Endpoint_AVR8.h **** 			 *  interrupt duration has elapsed. Which endpoints have interrupted can be determined by
 375:./lib/lufa/LUFA/Drivers/USB/Core/AVR8/../AVR8/Endpoint_AVR8.h **** 			 *  masking the return value against <tt>(1 << <i>{Endpoint Number}</i>)</tt>.
 376:./lib/lufa/LUFA/Drivers/USB/Core/AVR8/../AVR8/Endpoint_AVR8.h **** 			 *
 377:./lib/lufa/LUFA/Drivers/USB/Core/AVR8/../AVR8/Endpoint_AVR8.h **** 			 *  \return Mask whose bits indicate which endpoints have interrupted.
 378:./lib/lufa/LUFA/Drivers/USB/Core/AVR8/../AVR8/Endpoint_AVR8.h **** 			 */
 379:./lib/lufa/LUFA/Drivers/USB/Core/AVR8/../AVR8/Endpoint_AVR8.h **** 			static inline uint8_t Endpoint_GetEndpointInterrupts(void) ATTR_WARN_UNUSED_RESULT ATTR_ALWAYS_I
 380:./lib/lufa/LUFA/Drivers/USB/Core/AVR8/../AVR8/Endpoint_AVR8.h **** 			static inline uint8_t Endpoint_GetEndpointInterrupts(void)
 381:./lib/lufa/LUFA/Drivers/USB/Core/AVR8/../AVR8/Endpoint_AVR8.h **** 			{
 382:./lib/lufa/LUFA/Drivers/USB/Core/AVR8/../AVR8/Endpoint_AVR8.h **** 				return UEINT;
 383:./lib/lufa/LUFA/Drivers/USB/Core/AVR8/../AVR8/Endpoint_AVR8.h **** 			}
 384:./lib/lufa/LUFA/Drivers/USB/Core/AVR8/../AVR8/Endpoint_AVR8.h **** 
 385:./lib/lufa/LUFA/Drivers/USB/Core/AVR8/../AVR8/Endpoint_AVR8.h **** 			/** Determines if the specified endpoint number has interrupted (valid only for INTERRUPT type
 386:./lib/lufa/LUFA/Drivers/USB/Core/AVR8/../AVR8/Endpoint_AVR8.h **** 			 *  endpoints).
 387:./lib/lufa/LUFA/Drivers/USB/Core/AVR8/../AVR8/Endpoint_AVR8.h **** 			 *
 388:./lib/lufa/LUFA/Drivers/USB/Core/AVR8/../AVR8/Endpoint_AVR8.h **** 			 *  \param[in] Address  Address of the endpoint whose interrupt flag should be tested.
 389:./lib/lufa/LUFA/Drivers/USB/Core/AVR8/../AVR8/Endpoint_AVR8.h **** 			 *
 390:./lib/lufa/LUFA/Drivers/USB/Core/AVR8/../AVR8/Endpoint_AVR8.h **** 			 *  \return Boolean \c true if the specified endpoint has interrupted, \c false otherwise.
 391:./lib/lufa/LUFA/Drivers/USB/Core/AVR8/../AVR8/Endpoint_AVR8.h **** 			 */
 392:./lib/lufa/LUFA/Drivers/USB/Core/AVR8/../AVR8/Endpoint_AVR8.h **** 			static inline bool Endpoint_HasEndpointInterrupted(const uint8_t Address) ATTR_WARN_UNUSED_RESUL
 393:./lib/lufa/LUFA/Drivers/USB/Core/AVR8/../AVR8/Endpoint_AVR8.h **** 			static inline bool Endpoint_HasEndpointInterrupted(const uint8_t Address)
 394:./lib/lufa/LUFA/Drivers/USB/Core/AVR8/../AVR8/Endpoint_AVR8.h **** 			{
 395:./lib/lufa/LUFA/Drivers/USB/Core/AVR8/../AVR8/Endpoint_AVR8.h **** 				return ((Endpoint_GetEndpointInterrupts() & (1 << (Address & ENDPOINT_EPNUM_MASK))) ? true : fa
 396:./lib/lufa/LUFA/Drivers/USB/Core/AVR8/../AVR8/Endpoint_AVR8.h **** 			}
 397:./lib/lufa/LUFA/Drivers/USB/Core/AVR8/../AVR8/Endpoint_AVR8.h **** 
 398:./lib/lufa/LUFA/Drivers/USB/Core/AVR8/../AVR8/Endpoint_AVR8.h **** 			/** Determines if the selected IN endpoint is ready for a new packet to be sent to the host.
 399:./lib/lufa/LUFA/Drivers/USB/Core/AVR8/../AVR8/Endpoint_AVR8.h **** 			 *
 400:./lib/lufa/LUFA/Drivers/USB/Core/AVR8/../AVR8/Endpoint_AVR8.h **** 			 *  \ingroup Group_EndpointPacketManagement_AVR8
 401:./lib/lufa/LUFA/Drivers/USB/Core/AVR8/../AVR8/Endpoint_AVR8.h **** 			 *
 402:./lib/lufa/LUFA/Drivers/USB/Core/AVR8/../AVR8/Endpoint_AVR8.h **** 			 *  \return Boolean \c true if the current endpoint is ready for an IN packet, \c false otherwis
 403:./lib/lufa/LUFA/Drivers/USB/Core/AVR8/../AVR8/Endpoint_AVR8.h **** 			 */
 404:./lib/lufa/LUFA/Drivers/USB/Core/AVR8/../AVR8/Endpoint_AVR8.h **** 			static inline bool Endpoint_IsINReady(void) ATTR_WARN_UNUSED_RESULT ATTR_ALWAYS_INLINE;
 405:./lib/lufa/LUFA/Drivers/USB/Core/AVR8/../AVR8/Endpoint_AVR8.h **** 			static inline bool Endpoint_IsINReady(void)
 406:./lib/lufa/LUFA/Drivers/USB/Core/AVR8/../AVR8/Endpoint_AVR8.h **** 			{
 407:./lib/lufa/LUFA/Drivers/USB/Core/AVR8/../AVR8/Endpoint_AVR8.h **** 				return ((UEINTX & (1 << TXINI)) ? true : false);
 408:./lib/lufa/LUFA/Drivers/USB/Core/AVR8/../AVR8/Endpoint_AVR8.h **** 			}
 409:./lib/lufa/LUFA/Drivers/USB/Core/AVR8/../AVR8/Endpoint_AVR8.h **** 
 410:./lib/lufa/LUFA/Drivers/USB/Core/AVR8/../AVR8/Endpoint_AVR8.h **** 			/** Determines if the selected OUT endpoint has received new packet from the host.
 411:./lib/lufa/LUFA/Drivers/USB/Core/AVR8/../AVR8/Endpoint_AVR8.h **** 			 *
 412:./lib/lufa/LUFA/Drivers/USB/Core/AVR8/../AVR8/Endpoint_AVR8.h **** 			 *  \ingroup Group_EndpointPacketManagement_AVR8
 413:./lib/lufa/LUFA/Drivers/USB/Core/AVR8/../AVR8/Endpoint_AVR8.h **** 			 *
 414:./lib/lufa/LUFA/Drivers/USB/Core/AVR8/../AVR8/Endpoint_AVR8.h **** 			 *  \return Boolean \c true if current endpoint is has received an OUT packet, \c false otherwis
 415:./lib/lufa/LUFA/Drivers/USB/Core/AVR8/../AVR8/Endpoint_AVR8.h **** 			 */
 416:./lib/lufa/LUFA/Drivers/USB/Core/AVR8/../AVR8/Endpoint_AVR8.h **** 			static inline bool Endpoint_IsOUTReceived(void) ATTR_WARN_UNUSED_RESULT ATTR_ALWAYS_INLINE;
 417:./lib/lufa/LUFA/Drivers/USB/Core/AVR8/../AVR8/Endpoint_AVR8.h **** 			static inline bool Endpoint_IsOUTReceived(void)
 418:./lib/lufa/LUFA/Drivers/USB/Core/AVR8/../AVR8/Endpoint_AVR8.h **** 			{
 419:./lib/lufa/LUFA/Drivers/USB/Core/AVR8/../AVR8/Endpoint_AVR8.h **** 				return ((UEINTX & (1 << RXOUTI)) ? true : false);
 420:./lib/lufa/LUFA/Drivers/USB/Core/AVR8/../AVR8/Endpoint_AVR8.h **** 			}
 421:./lib/lufa/LUFA/Drivers/USB/Core/AVR8/../AVR8/Endpoint_AVR8.h **** 
 422:./lib/lufa/LUFA/Drivers/USB/Core/AVR8/../AVR8/Endpoint_AVR8.h **** 			/** Determines if the current CONTROL type endpoint has received a SETUP packet.
 423:./lib/lufa/LUFA/Drivers/USB/Core/AVR8/../AVR8/Endpoint_AVR8.h **** 			 *
 424:./lib/lufa/LUFA/Drivers/USB/Core/AVR8/../AVR8/Endpoint_AVR8.h **** 			 *  \ingroup Group_EndpointPacketManagement_AVR8
 425:./lib/lufa/LUFA/Drivers/USB/Core/AVR8/../AVR8/Endpoint_AVR8.h **** 			 *
 426:./lib/lufa/LUFA/Drivers/USB/Core/AVR8/../AVR8/Endpoint_AVR8.h **** 			 *  \return Boolean \c true if the selected endpoint has received a SETUP packet, \c false other
 427:./lib/lufa/LUFA/Drivers/USB/Core/AVR8/../AVR8/Endpoint_AVR8.h **** 			 */
 428:./lib/lufa/LUFA/Drivers/USB/Core/AVR8/../AVR8/Endpoint_AVR8.h **** 			static inline bool Endpoint_IsSETUPReceived(void) ATTR_WARN_UNUSED_RESULT ATTR_ALWAYS_INLINE;
 429:./lib/lufa/LUFA/Drivers/USB/Core/AVR8/../AVR8/Endpoint_AVR8.h **** 			static inline bool Endpoint_IsSETUPReceived(void)
 430:./lib/lufa/LUFA/Drivers/USB/Core/AVR8/../AVR8/Endpoint_AVR8.h **** 			{
 431:./lib/lufa/LUFA/Drivers/USB/Core/AVR8/../AVR8/Endpoint_AVR8.h **** 				return ((UEINTX & (1 << RXSTPI)) ? true : false);
 432:./lib/lufa/LUFA/Drivers/USB/Core/AVR8/../AVR8/Endpoint_AVR8.h **** 			}
 433:./lib/lufa/LUFA/Drivers/USB/Core/AVR8/../AVR8/Endpoint_AVR8.h **** 
 434:./lib/lufa/LUFA/Drivers/USB/Core/AVR8/../AVR8/Endpoint_AVR8.h **** 			/** Clears a received SETUP packet on the currently selected CONTROL type endpoint, freeing up t
 435:./lib/lufa/LUFA/Drivers/USB/Core/AVR8/../AVR8/Endpoint_AVR8.h **** 			 *  endpoint for the next packet.
 436:./lib/lufa/LUFA/Drivers/USB/Core/AVR8/../AVR8/Endpoint_AVR8.h **** 			 *
 437:./lib/lufa/LUFA/Drivers/USB/Core/AVR8/../AVR8/Endpoint_AVR8.h **** 			 *  \ingroup Group_EndpointPacketManagement_AVR8
 438:./lib/lufa/LUFA/Drivers/USB/Core/AVR8/../AVR8/Endpoint_AVR8.h **** 			 *
 439:./lib/lufa/LUFA/Drivers/USB/Core/AVR8/../AVR8/Endpoint_AVR8.h **** 			 *  \note This is not applicable for non CONTROL type endpoints.
 440:./lib/lufa/LUFA/Drivers/USB/Core/AVR8/../AVR8/Endpoint_AVR8.h **** 			 */
 441:./lib/lufa/LUFA/Drivers/USB/Core/AVR8/../AVR8/Endpoint_AVR8.h **** 			static inline void Endpoint_ClearSETUP(void) ATTR_ALWAYS_INLINE;
 442:./lib/lufa/LUFA/Drivers/USB/Core/AVR8/../AVR8/Endpoint_AVR8.h **** 			static inline void Endpoint_ClearSETUP(void)
 443:./lib/lufa/LUFA/Drivers/USB/Core/AVR8/../AVR8/Endpoint_AVR8.h **** 			{
 444:./lib/lufa/LUFA/Drivers/USB/Core/AVR8/../AVR8/Endpoint_AVR8.h **** 				UEINTX &= ~(1 << RXSTPI);
 445:./lib/lufa/LUFA/Drivers/USB/Core/AVR8/../AVR8/Endpoint_AVR8.h **** 			}
 446:./lib/lufa/LUFA/Drivers/USB/Core/AVR8/../AVR8/Endpoint_AVR8.h **** 
 447:./lib/lufa/LUFA/Drivers/USB/Core/AVR8/../AVR8/Endpoint_AVR8.h **** 			/** Sends an IN packet to the host on the currently selected endpoint, freeing up the endpoint f
 448:./lib/lufa/LUFA/Drivers/USB/Core/AVR8/../AVR8/Endpoint_AVR8.h **** 			 *  next packet and switching to the alternative endpoint bank if double banked.
 449:./lib/lufa/LUFA/Drivers/USB/Core/AVR8/../AVR8/Endpoint_AVR8.h **** 			 *
 450:./lib/lufa/LUFA/Drivers/USB/Core/AVR8/../AVR8/Endpoint_AVR8.h **** 			 *  \ingroup Group_EndpointPacketManagement_AVR8
 451:./lib/lufa/LUFA/Drivers/USB/Core/AVR8/../AVR8/Endpoint_AVR8.h **** 			 */
 452:./lib/lufa/LUFA/Drivers/USB/Core/AVR8/../AVR8/Endpoint_AVR8.h **** 			static inline void Endpoint_ClearIN(void) ATTR_ALWAYS_INLINE;
 453:./lib/lufa/LUFA/Drivers/USB/Core/AVR8/../AVR8/Endpoint_AVR8.h **** 			static inline void Endpoint_ClearIN(void)
 454:./lib/lufa/LUFA/Drivers/USB/Core/AVR8/../AVR8/Endpoint_AVR8.h **** 			{
 455:./lib/lufa/LUFA/Drivers/USB/Core/AVR8/../AVR8/Endpoint_AVR8.h **** 				#if !defined(CONTROL_ONLY_DEVICE)
 456:./lib/lufa/LUFA/Drivers/USB/Core/AVR8/../AVR8/Endpoint_AVR8.h **** 					UEINTX &= ~((1 << TXINI) | (1 << FIFOCON));
 141               		.loc 2 456 0
 142 005a 8091 E800 		lds r24,232
 143 005e 8E77      		andi r24,lo8(126)
 144 0060 8093 E800 		sts 232,r24
 145               	.LVL12:
 146               	.L2:
 147               	/* epilogue start */
 148               	.LBE110:
 149               	.LBE109:
 795:./tmk_core/protocol/lufa/lufa.c ****     Endpoint_ClearIN();
 796:./tmk_core/protocol/lufa/lufa.c **** }
 150               		.loc 1 796 0
 151 0064 0F90      		pop __tmp_reg__
 152 0066 0F90      		pop __tmp_reg__
 153 0068 0F90      		pop __tmp_reg__
 154 006a DF91      		pop r29
 155 006c CF91      		pop r28
 156 006e 1F91      		pop r17
 157 0070 0F91      		pop r16
 158               	.LVL13:
 159 0072 0895      		ret
 160               		.cfi_endproc
 161               	.LFE142:
 163               		.section	.text.send_system,"ax",@progbits
 165               	send_system:
 166               	.LFB141:
 719:./tmk_core/protocol/lufa/lufa.c ****     uint8_t timeout = 255;
 167               		.loc 1 719 0
 168               		.cfi_startproc
 169               	.LVL14:
 170 0000 CF93      		push r28
 171               	.LCFI6:
 172               		.cfi_def_cfa_offset 3
 173               		.cfi_offset 28, -2
 174 0002 DF93      		push r29
 175               	.LCFI7:
 176               		.cfi_def_cfa_offset 4
 177               		.cfi_offset 29, -3
 178 0004 00D0      		rcall .
 179 0006 1F92      		push __zero_reg__
 180               	.LCFI8:
 181               		.cfi_def_cfa_offset 7
 182 0008 CDB7      		in r28,__SP_L__
 183 000a DEB7      		in r29,__SP_H__
 184               	.LCFI9:
 185               		.cfi_def_cfa_register 28
 186               	/* prologue: function */
 187               	/* frame size = 3 */
 188               	/* stack size = 5 */
 189               	.L__stack_usage = 5
 190               	.LVL15:
 722:./tmk_core/protocol/lufa/lufa.c ****         return;
 191               		.loc 1 722 0
 192 000c 2091 0000 		lds r18,USB_DeviceState
 193 0010 2430      		cpi r18,lo8(4)
 194 0012 01F4      		brne .L18
 725:./tmk_core/protocol/lufa/lufa.c ****         .report_id = REPORT_ID_SYSTEM,
 195               		.loc 1 725 0
 196 0014 22E0      		ldi r18,lo8(2)
 197 0016 2983      		std Y+1,r18
 727:./tmk_core/protocol/lufa/lufa.c ****     };
 198               		.loc 1 727 0
 199 0018 8058      		subi r24,-128
 200 001a 9109      		sbc r25,__zero_reg__
 201               	.LVL16:
 725:./tmk_core/protocol/lufa/lufa.c ****         .report_id = REPORT_ID_SYSTEM,
 202               		.loc 1 725 0
 203 001c 9B83      		std Y+3,r25
 204 001e 8A83      		std Y+2,r24
 205               	.LVL17:
 206               	.LBB111:
 207               	.LBB112:
 270:./lib/lufa/LUFA/Drivers/USB/Core/AVR8/../AVR8/Endpoint_AVR8.h **** 				#endif
 208               		.loc 2 270 0
 209 0020 83E0      		ldi r24,lo8(3)
 210               	.LVL18:
 211 0022 8093 E900 		sts 233,r24
 212               	.LVL19:
 213 0026 8FEF      		ldi r24,lo8(-1)
 214               	.LVL20:
 215               	.L20:
 216               	.LBE112:
 217               	.LBE111:
 218               	.LBB113:
 219               	.LBB114:
 360:./lib/lufa/LUFA/Drivers/USB/Core/AVR8/../AVR8/Endpoint_AVR8.h **** 			}
 220               		.loc 2 360 0
 221 0028 9091 E800 		lds r25,232
 222 002c 8150      		subi r24,lo8(-(-1))
 223               	.LVL21:
 224               	.LBE114:
 225               	.LBE113:
 732:./tmk_core/protocol/lufa/lufa.c ****     if (!Endpoint_IsReadWriteAllowed()) return;
 226               		.loc 1 732 0
 227 002e 95FD      		sbrc r25,5
 228 0030 00C0      		rjmp .L21
 229               	.LVL22:
 230               	.LBB115:
 231               	.LBB116:
 232               		.loc 3 276 0
 233 0032 95ED      		ldi r25,lo8(-43)
 234 0034 9A95      	1:	dec r25
 235 0036 01F4      		brne 1b
 236 0038 0000      		nop
 237               	.LVL23:
 238               	.LBE116:
 239               	.LBE115:
 732:./tmk_core/protocol/lufa/lufa.c ****     if (!Endpoint_IsReadWriteAllowed()) return;
 240               		.loc 1 732 0
 241 003a 8111      		cpse r24,__zero_reg__
 242 003c 00C0      		rjmp .L20
 243               	.LVL24:
 244               	.L21:
 245               	.LBB117:
 246               	.LBB118:
 360:./lib/lufa/LUFA/Drivers/USB/Core/AVR8/../AVR8/Endpoint_AVR8.h **** 			}
 247               		.loc 2 360 0
 248 003e 8091 E800 		lds r24,232
 249               	.LBE118:
 250               	.LBE117:
 733:./tmk_core/protocol/lufa/lufa.c **** 
 251               		.loc 1 733 0
 252 0042 85FF      		sbrs r24,5
 253 0044 00C0      		rjmp .L18
 735:./tmk_core/protocol/lufa/lufa.c ****     Endpoint_ClearIN();
 254               		.loc 1 735 0
 255 0046 50E0      		ldi r21,0
 256 0048 40E0      		ldi r20,0
 257 004a 63E0      		ldi r22,lo8(3)
 258 004c 70E0      		ldi r23,0
 259 004e CE01      		movw r24,r28
 260 0050 0196      		adiw r24,1
 261 0052 0E94 0000 		call Endpoint_Write_Stream_LE
 262               	.LVL25:
 263               	.LBB119:
 264               	.LBB120:
 265               		.loc 2 456 0
 266 0056 8091 E800 		lds r24,232
 267 005a 8E77      		andi r24,lo8(126)
 268 005c 8093 E800 		sts 232,r24
 269               	.LVL26:
 270               	.L18:
 271               	/* epilogue start */
 272               	.LBE120:
 273               	.LBE119:
 737:./tmk_core/protocol/lufa/lufa.c **** 
 274               		.loc 1 737 0
 275 0060 0F90      		pop __tmp_reg__
 276 0062 0F90      		pop __tmp_reg__
 277 0064 0F90      		pop __tmp_reg__
 278 0066 DF91      		pop r29
 279 0068 CF91      		pop r28
 280 006a 0895      		ret
 281               		.cfi_endproc
 282               	.LFE141:
 284               		.section	.text.send_mouse,"ax",@progbits
 286               	send_mouse:
 287               	.LFB140:
 671:./tmk_core/protocol/lufa/lufa.c **** #ifdef MOUSE_ENABLE
 288               		.loc 1 671 0
 289               		.cfi_startproc
 290               	.LVL27:
 291 0000 CF93      		push r28
 292               	.LCFI10:
 293               		.cfi_def_cfa_offset 3
 294               		.cfi_offset 28, -2
 295 0002 DF93      		push r29
 296               	.LCFI11:
 297               		.cfi_def_cfa_offset 4
 298               		.cfi_offset 29, -3
 299               	/* prologue: function */
 300               	/* frame size = 0 */
 301               	/* stack size = 2 */
 302               	.L__stack_usage = 2
 303 0004 EC01      		movw r28,r24
 304               	.LVL28:
 674:./tmk_core/protocol/lufa/lufa.c **** 
 305               		.loc 1 674 0
 306 0006 0E94 0000 		call where_to_send
 307               	.LVL29:
 695:./tmk_core/protocol/lufa/lufa.c ****       return;
 308               		.loc 1 695 0
 309 000a 8230      		cpi r24,lo8(2)
 310 000c 01F0      		breq .L31
 695:./tmk_core/protocol/lufa/lufa.c ****       return;
 311               		.loc 1 695 0 is_stmt 0 discriminator 1
 312 000e 8430      		cpi r24,lo8(4)
 313 0010 01F4      		brne .L30
 314               	.L31:
 315               	.LVL30:
 316               	.LBB121:
 317               	.LBB122:
 270:./lib/lufa/LUFA/Drivers/USB/Core/AVR8/../AVR8/Endpoint_AVR8.h **** 				#endif
 318               		.loc 2 270 0 is_stmt 1
 319 0012 82E0      		ldi r24,lo8(2)
 320               	.LVL31:
 321 0014 8093 E900 		sts 233,r24
 322               	.LVL32:
 323 0018 8FEF      		ldi r24,lo8(-1)
 324               	.LVL33:
 325               	.L33:
 326               	.LBE122:
 327               	.LBE121:
 328               	.LBB123:
 329               	.LBB124:
 360:./lib/lufa/LUFA/Drivers/USB/Core/AVR8/../AVR8/Endpoint_AVR8.h **** 			}
 330               		.loc 2 360 0
 331 001a 9091 E800 		lds r25,232
 332 001e 8150      		subi r24,lo8(-(-1))
 333               	.LVL34:
 334               	.LBE124:
 335               	.LBE123:
 703:./tmk_core/protocol/lufa/lufa.c ****     if (!Endpoint_IsReadWriteAllowed()) return;
 336               		.loc 1 703 0
 337 0020 95FD      		sbrc r25,5
 338 0022 00C0      		rjmp .L34
 339               	.LVL35:
 340               	.LBB125:
 341               	.LBB126:
 342               		.loc 3 276 0
 343 0024 95ED      		ldi r25,lo8(-43)
 344 0026 9A95      	1:	dec r25
 345 0028 01F4      		brne 1b
 346 002a 0000      		nop
 347               	.LVL36:
 348               	.LBE126:
 349               	.LBE125:
 703:./tmk_core/protocol/lufa/lufa.c ****     if (!Endpoint_IsReadWriteAllowed()) return;
 350               		.loc 1 703 0
 351 002c 8111      		cpse r24,__zero_reg__
 352 002e 00C0      		rjmp .L33
 353               	.LVL37:
 354               	.L34:
 355               	.LBB127:
 356               	.LBB128:
 360:./lib/lufa/LUFA/Drivers/USB/Core/AVR8/../AVR8/Endpoint_AVR8.h **** 			}
 357               		.loc 2 360 0
 358 0030 8091 E800 		lds r24,232
 359               	.LBE128:
 360               	.LBE127:
 704:./tmk_core/protocol/lufa/lufa.c **** 
 361               		.loc 1 704 0
 362 0034 85FF      		sbrs r24,5
 363 0036 00C0      		rjmp .L30
 707:./tmk_core/protocol/lufa/lufa.c **** 
 364               		.loc 1 707 0
 365 0038 50E0      		ldi r21,0
 366 003a 40E0      		ldi r20,0
 367 003c 65E0      		ldi r22,lo8(5)
 368 003e 70E0      		ldi r23,0
 369 0040 CE01      		movw r24,r28
 370 0042 0E94 0000 		call Endpoint_Write_Stream_LE
 371               	.LVL38:
 372               	.LBB129:
 373               	.LBB130:
 374               		.loc 2 456 0
 375 0046 8091 E800 		lds r24,232
 376 004a 8E77      		andi r24,lo8(126)
 377 004c 8093 E800 		sts 232,r24
 378               	.LVL39:
 379               	.L30:
 380               	/* epilogue start */
 381               	.LBE130:
 382               	.LBE129:
 712:./tmk_core/protocol/lufa/lufa.c **** 
 383               		.loc 1 712 0
 384 0050 DF91      		pop r29
 385 0052 CF91      		pop r28
 386               	.LVL40:
 387 0054 0895      		ret
 388               		.cfi_endproc
 389               	.LFE140:
 391               		.section	.text.send_keyboard,"ax",@progbits
 393               	send_keyboard:
 394               	.LFB139:
 605:./tmk_core/protocol/lufa/lufa.c ****     uint8_t timeout = 255;
 395               		.loc 1 605 0
 396               		.cfi_startproc
 397               	.LVL41:
 398 0000 CF93      		push r28
 399               	.LCFI12:
 400               		.cfi_def_cfa_offset 3
 401               		.cfi_offset 28, -2
 402 0002 DF93      		push r29
 403               	.LCFI13:
 404               		.cfi_def_cfa_offset 4
 405               		.cfi_offset 29, -3
 406               	/* prologue: function */
 407               	/* frame size = 0 */
 408               	/* stack size = 2 */
 409               	.L__stack_usage = 2
 410 0004 EC01      		movw r28,r24
 411               	.LVL42:
 607:./tmk_core/protocol/lufa/lufa.c **** 
 412               		.loc 1 607 0
 413 0006 0E94 0000 		call where_to_send
 414               	.LVL43:
 629:./tmk_core/protocol/lufa/lufa.c ****       return;
 415               		.loc 1 629 0
 416 000a 8230      		cpi r24,lo8(2)
 417 000c 01F0      		breq .L50
 629:./tmk_core/protocol/lufa/lufa.c ****       return;
 418               		.loc 1 629 0 is_stmt 0 discriminator 1
 419 000e 8430      		cpi r24,lo8(4)
 420 0010 01F4      		brne .L49
 421               	.L50:
 422               	.LVL44:
 423               	.LBB131:
 424               	.LBB132:
 270:./lib/lufa/LUFA/Drivers/USB/Core/AVR8/../AVR8/Endpoint_AVR8.h **** 				#endif
 425               		.loc 2 270 0 is_stmt 1
 426 0012 81E0      		ldi r24,lo8(1)
 427               	.LVL45:
 428 0014 8093 E900 		sts 233,r24
 429               	.LVL46:
 430 0018 8FEF      		ldi r24,lo8(-1)
 431               	.LVL47:
 432               	.L52:
 433               	.LBE132:
 434               	.LBE131:
 435               	.LBB133:
 436               	.LBB134:
 360:./lib/lufa/LUFA/Drivers/USB/Core/AVR8/../AVR8/Endpoint_AVR8.h **** 			}
 437               		.loc 2 360 0
 438 001a 9091 E800 		lds r25,232
 439 001e 8150      		subi r24,lo8(-(-1))
 440               	.LVL48:
 441               	.LBE134:
 442               	.LBE133:
 653:./tmk_core/protocol/lufa/lufa.c ****         if (!Endpoint_IsReadWriteAllowed()) return;
 443               		.loc 1 653 0
 444 0020 95FD      		sbrc r25,5
 445 0022 00C0      		rjmp .L53
 446               	.LVL49:
 447               	.LBB135:
 448               	.LBB136:
 449               		.loc 3 276 0
 450 0024 95ED      		ldi r25,lo8(-43)
 451 0026 9A95      	1:	dec r25
 452 0028 01F4      		brne 1b
 453 002a 0000      		nop
 454               	.LVL50:
 455               	.LBE136:
 456               	.LBE135:
 653:./tmk_core/protocol/lufa/lufa.c ****         if (!Endpoint_IsReadWriteAllowed()) return;
 457               		.loc 1 653 0
 458 002c 8111      		cpse r24,__zero_reg__
 459 002e 00C0      		rjmp .L52
 460               	.LVL51:
 461               	.L53:
 462               	.LBB137:
 463               	.LBB138:
 360:./lib/lufa/LUFA/Drivers/USB/Core/AVR8/../AVR8/Endpoint_AVR8.h **** 			}
 464               		.loc 2 360 0
 465 0030 8091 E800 		lds r24,232
 466               	.LBE138:
 467               	.LBE137:
 654:./tmk_core/protocol/lufa/lufa.c **** 
 468               		.loc 1 654 0
 469 0034 85FF      		sbrs r24,5
 470 0036 00C0      		rjmp .L49
 657:./tmk_core/protocol/lufa/lufa.c ****     }
 471               		.loc 1 657 0
 472 0038 50E0      		ldi r21,0
 473 003a 40E0      		ldi r20,0
 474 003c 68E0      		ldi r22,lo8(8)
 475 003e 70E0      		ldi r23,0
 476 0040 CE01      		movw r24,r28
 477 0042 0E94 0000 		call Endpoint_Write_Stream_LE
 478               	.LVL52:
 479               	.LBB139:
 480               	.LBB140:
 481               		.loc 2 456 0
 482 0046 8091 E800 		lds r24,232
 483 004a 8E77      		andi r24,lo8(126)
 484 004c 8093 E800 		sts 232,r24
 485               	.LBE140:
 486               	.LBE139:
 663:./tmk_core/protocol/lufa/lufa.c **** }
 487               		.loc 1 663 0
 488 0050 88E0      		ldi r24,lo8(8)
 489 0052 FE01      		movw r30,r28
 490 0054 A0E0      		ldi r26,lo8(keyboard_report_sent)
 491 0056 B0E0      		ldi r27,hi8(keyboard_report_sent)
 492               		0:
 493 0058 0190      		ld r0,Z+
 494 005a 0D92      		st X+,r0
 495 005c 8A95      		dec r24
 496 005e 01F4      		brne 0b
 497               	.LVL53:
 498               	.L49:
 499               	/* epilogue start */
 664:./tmk_core/protocol/lufa/lufa.c ****  
 500               		.loc 1 664 0
 501 0060 DF91      		pop r29
 502 0062 CF91      		pop r28
 503               	.LVL54:
 504 0064 0895      		ret
 505               		.cfi_endproc
 506               	.LFE139:
 508               		.section	.text.rgblight_toggle,"ax",@progbits
 509               		.weak	rgblight_toggle
 511               	rgblight_toggle:
 512               	.LFB108:
 513               		.file 4 "./quantum/rgb.h"
   1:./quantum/rgb.h **** /* Copyright 2017 Jack Humbert
   2:./quantum/rgb.h ****  *
   3:./quantum/rgb.h ****  * This program is free software: you can redistribute it and/or modify
   4:./quantum/rgb.h ****  * it under the terms of the GNU General Public License as published by
   5:./quantum/rgb.h ****  * the Free Software Foundation, either version 2 of the License, or
   6:./quantum/rgb.h ****  * (at your option) any later version.
   7:./quantum/rgb.h ****  *
   8:./quantum/rgb.h ****  * This program is distributed in the hope that it will be useful,
   9:./quantum/rgb.h ****  * but WITHOUT ANY WARRANTY; without even the implied warranty of
  10:./quantum/rgb.h ****  * MERCHANTABILITY or FITNESS FOR A PARTICULAR PURPOSE.  See the
  11:./quantum/rgb.h ****  * GNU General Public License for more details.
  12:./quantum/rgb.h ****  *
  13:./quantum/rgb.h ****  * You should have received a copy of the GNU General Public License
  14:./quantum/rgb.h ****  * along with this program.  If not, see <http://www.gnu.org/licenses/>.
  15:./quantum/rgb.h ****  */
  16:./quantum/rgb.h **** 
  17:./quantum/rgb.h **** #ifndef RGB_H
  18:./quantum/rgb.h **** #define RGB_H
  19:./quantum/rgb.h **** 
  20:./quantum/rgb.h **** __attribute__((weak))
  21:./quantum/rgb.h **** void rgblight_toggle(void) {};
 514               		.loc 4 21 0
 515               		.cfi_startproc
 516               	/* prologue: function */
 517               	/* frame size = 0 */
 518               	/* stack size = 0 */
 519               	.L__stack_usage = 0
 520               	/* epilogue start */
 521               		.loc 4 21 0
 522 0000 0895      		ret
 523               		.cfi_endproc
 524               	.LFE108:
 526               		.section	.text.rgblight_step,"ax",@progbits
 527               		.weak	rgblight_step
 529               	rgblight_step:
 530               	.LFB151:
 531               		.cfi_startproc
 532               	/* prologue: function */
 533               	/* frame size = 0 */
 534               	/* stack size = 0 */
 535               	.L__stack_usage = 0
 536               	/* epilogue start */
 537 0000 0895      		ret
 538               		.cfi_endproc
 539               	.LFE151:
 541               		.section	.text.rgblight_step_reverse,"ax",@progbits
 542               		.weak	rgblight_step_reverse
 544               	rgblight_step_reverse:
 545               	.LFB153:
 546               		.cfi_startproc
 547               	/* prologue: function */
 548               	/* frame size = 0 */
 549               	/* stack size = 0 */
 550               	.L__stack_usage = 0
 551               	/* epilogue start */
 552 0000 0895      		ret
 553               		.cfi_endproc
 554               	.LFE153:
 556               		.section	.text.rgblight_increase_hue,"ax",@progbits
 557               		.weak	rgblight_increase_hue
 559               	rgblight_increase_hue:
 560               	.LFB155:
 561               		.cfi_startproc
 562               	/* prologue: function */
 563               	/* frame size = 0 */
 564               	/* stack size = 0 */
 565               	.L__stack_usage = 0
 566               	/* epilogue start */
 567 0000 0895      		ret
 568               		.cfi_endproc
 569               	.LFE155:
 571               		.section	.text.rgblight_decrease_hue,"ax",@progbits
 572               		.weak	rgblight_decrease_hue
 574               	rgblight_decrease_hue:
 575               	.LFB157:
 576               		.cfi_startproc
 577               	/* prologue: function */
 578               	/* frame size = 0 */
 579               	/* stack size = 0 */
 580               	.L__stack_usage = 0
 581               	/* epilogue start */
 582 0000 0895      		ret
 583               		.cfi_endproc
 584               	.LFE157:
 586               		.section	.text.rgblight_increase_sat,"ax",@progbits
 587               		.weak	rgblight_increase_sat
 589               	rgblight_increase_sat:
 590               	.LFB159:
 591               		.cfi_startproc
 592               	/* prologue: function */
 593               	/* frame size = 0 */
 594               	/* stack size = 0 */
 595               	.L__stack_usage = 0
 596               	/* epilogue start */
 597 0000 0895      		ret
 598               		.cfi_endproc
 599               	.LFE159:
 601               		.section	.text.rgblight_decrease_sat,"ax",@progbits
 602               		.weak	rgblight_decrease_sat
 604               	rgblight_decrease_sat:
 605               	.LFB161:
 606               		.cfi_startproc
 607               	/* prologue: function */
 608               	/* frame size = 0 */
 609               	/* stack size = 0 */
 610               	.L__stack_usage = 0
 611               	/* epilogue start */
 612 0000 0895      		ret
 613               		.cfi_endproc
 614               	.LFE161:
 616               		.section	.text.rgblight_increase_val,"ax",@progbits
 617               		.weak	rgblight_increase_val
 619               	rgblight_increase_val:
 620               	.LFB163:
 621               		.cfi_startproc
 622               	/* prologue: function */
 623               	/* frame size = 0 */
 624               	/* stack size = 0 */
 625               	.L__stack_usage = 0
 626               	/* epilogue start */
 627 0000 0895      		ret
 628               		.cfi_endproc
 629               	.LFE163:
 631               		.section	.text.rgblight_decrease_val,"ax",@progbits
 632               		.weak	rgblight_decrease_val
 634               	rgblight_decrease_val:
 635               	.LFB165:
 636               		.cfi_startproc
 637               	/* prologue: function */
 638               	/* frame size = 0 */
 639               	/* stack size = 0 */
 640               	.L__stack_usage = 0
 641               	/* epilogue start */
 642 0000 0895      		ret
 643               		.cfi_endproc
 644               	.LFE165:
 646               		.section	.text.rgblight_increase_speed,"ax",@progbits
 647               		.weak	rgblight_increase_speed
 649               	rgblight_increase_speed:
 650               	.LFB167:
 651               		.cfi_startproc
 652               	/* prologue: function */
 653               	/* frame size = 0 */
 654               	/* stack size = 0 */
 655               	.L__stack_usage = 0
 656               	/* epilogue start */
 657 0000 0895      		ret
 658               		.cfi_endproc
 659               	.LFE167:
 661               		.section	.text.rgblight_decrease_speed,"ax",@progbits
 662               		.weak	rgblight_decrease_speed
 664               	rgblight_decrease_speed:
 665               	.LFB169:
 666               		.cfi_startproc
 667               	/* prologue: function */
 668               	/* frame size = 0 */
 669               	/* stack size = 0 */
 670               	.L__stack_usage = 0
 671               	/* epilogue start */
 672 0000 0895      		ret
 673               		.cfi_endproc
 674               	.LFE169:
 676               		.section	.text.EVENT_USB_Device_Connect,"ax",@progbits
 677               	.global	EVENT_USB_Device_Connect
 679               	EVENT_USB_Device_Connect:
 680               	.LFB131:
 306:./tmk_core/protocol/lufa/lufa.c ****     print("[C]");
 681               		.loc 1 306 0
 682               		.cfi_startproc
 683               	/* prologue: function */
 684               	/* frame size = 0 */
 685               	/* stack size = 0 */
 686               	.L__stack_usage = 0
 309:./tmk_core/protocol/lufa/lufa.c ****         USB_Disable();
 687               		.loc 1 309 0
 688 0000 8091 0000 		lds r24,USB_IsInitialized
 689 0004 8111      		cpse r24,__zero_reg__
 690 0006 00C0      		rjmp .L79
 310:./tmk_core/protocol/lufa/lufa.c ****         USB_Init();
 691               		.loc 1 310 0
 692 0008 0E94 0000 		call USB_Disable
 693               	.LVL55:
 311:./tmk_core/protocol/lufa/lufa.c ****         USB_Device_EnableSOFEvents();
 694               		.loc 1 311 0
 695 000c 0E94 0000 		call USB_Init
 696               	.LVL56:
 697               	.LBB141:
 698               	.LBB142:
 699               	.LBB143:
 700               		.file 5 "./lib/lufa/LUFA/Drivers/USB/Core/AVR8/../AVR8/USBInterrupt_AVR8.h"
   1:./lib/lufa/LUFA/Drivers/USB/Core/AVR8/../AVR8/USBInterrupt_AVR8.h **** /*
   2:./lib/lufa/LUFA/Drivers/USB/Core/AVR8/../AVR8/USBInterrupt_AVR8.h ****              LUFA Library
   3:./lib/lufa/LUFA/Drivers/USB/Core/AVR8/../AVR8/USBInterrupt_AVR8.h ****      Copyright (C) Dean Camera, 2017.
   4:./lib/lufa/LUFA/Drivers/USB/Core/AVR8/../AVR8/USBInterrupt_AVR8.h **** 
   5:./lib/lufa/LUFA/Drivers/USB/Core/AVR8/../AVR8/USBInterrupt_AVR8.h ****   dean [at] fourwalledcubicle [dot] com
   6:./lib/lufa/LUFA/Drivers/USB/Core/AVR8/../AVR8/USBInterrupt_AVR8.h ****            www.lufa-lib.org
   7:./lib/lufa/LUFA/Drivers/USB/Core/AVR8/../AVR8/USBInterrupt_AVR8.h **** */
   8:./lib/lufa/LUFA/Drivers/USB/Core/AVR8/../AVR8/USBInterrupt_AVR8.h **** 
   9:./lib/lufa/LUFA/Drivers/USB/Core/AVR8/../AVR8/USBInterrupt_AVR8.h **** /*
  10:./lib/lufa/LUFA/Drivers/USB/Core/AVR8/../AVR8/USBInterrupt_AVR8.h ****   Copyright 2017  Dean Camera (dean [at] fourwalledcubicle [dot] com)
  11:./lib/lufa/LUFA/Drivers/USB/Core/AVR8/../AVR8/USBInterrupt_AVR8.h **** 
  12:./lib/lufa/LUFA/Drivers/USB/Core/AVR8/../AVR8/USBInterrupt_AVR8.h ****   Permission to use, copy, modify, distribute, and sell this
  13:./lib/lufa/LUFA/Drivers/USB/Core/AVR8/../AVR8/USBInterrupt_AVR8.h ****   software and its documentation for any purpose is hereby granted
  14:./lib/lufa/LUFA/Drivers/USB/Core/AVR8/../AVR8/USBInterrupt_AVR8.h ****   without fee, provided that the above copyright notice appear in
  15:./lib/lufa/LUFA/Drivers/USB/Core/AVR8/../AVR8/USBInterrupt_AVR8.h ****   all copies and that both that the copyright notice and this
  16:./lib/lufa/LUFA/Drivers/USB/Core/AVR8/../AVR8/USBInterrupt_AVR8.h ****   permission notice and warranty disclaimer appear in supporting
  17:./lib/lufa/LUFA/Drivers/USB/Core/AVR8/../AVR8/USBInterrupt_AVR8.h ****   documentation, and that the name of the author not be used in
  18:./lib/lufa/LUFA/Drivers/USB/Core/AVR8/../AVR8/USBInterrupt_AVR8.h ****   advertising or publicity pertaining to distribution of the
  19:./lib/lufa/LUFA/Drivers/USB/Core/AVR8/../AVR8/USBInterrupt_AVR8.h ****   software without specific, written prior permission.
  20:./lib/lufa/LUFA/Drivers/USB/Core/AVR8/../AVR8/USBInterrupt_AVR8.h **** 
  21:./lib/lufa/LUFA/Drivers/USB/Core/AVR8/../AVR8/USBInterrupt_AVR8.h ****   The author disclaims all warranties with regard to this
  22:./lib/lufa/LUFA/Drivers/USB/Core/AVR8/../AVR8/USBInterrupt_AVR8.h ****   software, including all implied warranties of merchantability
  23:./lib/lufa/LUFA/Drivers/USB/Core/AVR8/../AVR8/USBInterrupt_AVR8.h ****   and fitness.  In no event shall the author be liable for any
  24:./lib/lufa/LUFA/Drivers/USB/Core/AVR8/../AVR8/USBInterrupt_AVR8.h ****   special, indirect or consequential damages or any damages
  25:./lib/lufa/LUFA/Drivers/USB/Core/AVR8/../AVR8/USBInterrupt_AVR8.h ****   whatsoever resulting from loss of use, data or profits, whether
  26:./lib/lufa/LUFA/Drivers/USB/Core/AVR8/../AVR8/USBInterrupt_AVR8.h ****   in an action of contract, negligence or other tortious action,
  27:./lib/lufa/LUFA/Drivers/USB/Core/AVR8/../AVR8/USBInterrupt_AVR8.h ****   arising out of or in connection with the use or performance of
  28:./lib/lufa/LUFA/Drivers/USB/Core/AVR8/../AVR8/USBInterrupt_AVR8.h ****   this software.
  29:./lib/lufa/LUFA/Drivers/USB/Core/AVR8/../AVR8/USBInterrupt_AVR8.h **** */
  30:./lib/lufa/LUFA/Drivers/USB/Core/AVR8/../AVR8/USBInterrupt_AVR8.h **** 
  31:./lib/lufa/LUFA/Drivers/USB/Core/AVR8/../AVR8/USBInterrupt_AVR8.h **** /** \file
  32:./lib/lufa/LUFA/Drivers/USB/Core/AVR8/../AVR8/USBInterrupt_AVR8.h ****  *  \brief USB Controller Interrupt definitions for the AVR8 microcontrollers.
  33:./lib/lufa/LUFA/Drivers/USB/Core/AVR8/../AVR8/USBInterrupt_AVR8.h ****  *
  34:./lib/lufa/LUFA/Drivers/USB/Core/AVR8/../AVR8/USBInterrupt_AVR8.h ****  *  This file contains definitions required for the correct handling of low level USB service routi
  35:./lib/lufa/LUFA/Drivers/USB/Core/AVR8/../AVR8/USBInterrupt_AVR8.h ****  *  from the USB controller.
  36:./lib/lufa/LUFA/Drivers/USB/Core/AVR8/../AVR8/USBInterrupt_AVR8.h ****  *
  37:./lib/lufa/LUFA/Drivers/USB/Core/AVR8/../AVR8/USBInterrupt_AVR8.h ****  *  \note This file should not be included directly. It is automatically included as needed by the 
  38:./lib/lufa/LUFA/Drivers/USB/Core/AVR8/../AVR8/USBInterrupt_AVR8.h ****  *        dispatch header located in LUFA/Drivers/USB/USB.h.
  39:./lib/lufa/LUFA/Drivers/USB/Core/AVR8/../AVR8/USBInterrupt_AVR8.h ****  */
  40:./lib/lufa/LUFA/Drivers/USB/Core/AVR8/../AVR8/USBInterrupt_AVR8.h **** 
  41:./lib/lufa/LUFA/Drivers/USB/Core/AVR8/../AVR8/USBInterrupt_AVR8.h **** #ifndef __USBINTERRUPT_AVR8_H__
  42:./lib/lufa/LUFA/Drivers/USB/Core/AVR8/../AVR8/USBInterrupt_AVR8.h **** #define __USBINTERRUPT_AVR8_H__
  43:./lib/lufa/LUFA/Drivers/USB/Core/AVR8/../AVR8/USBInterrupt_AVR8.h **** 
  44:./lib/lufa/LUFA/Drivers/USB/Core/AVR8/../AVR8/USBInterrupt_AVR8.h **** 	/* Includes: */
  45:./lib/lufa/LUFA/Drivers/USB/Core/AVR8/../AVR8/USBInterrupt_AVR8.h **** 		#include "../../../../Common/Common.h"
  46:./lib/lufa/LUFA/Drivers/USB/Core/AVR8/../AVR8/USBInterrupt_AVR8.h **** 
  47:./lib/lufa/LUFA/Drivers/USB/Core/AVR8/../AVR8/USBInterrupt_AVR8.h **** 	/* Enable C linkage for C++ Compilers: */
  48:./lib/lufa/LUFA/Drivers/USB/Core/AVR8/../AVR8/USBInterrupt_AVR8.h **** 		#if defined(__cplusplus)
  49:./lib/lufa/LUFA/Drivers/USB/Core/AVR8/../AVR8/USBInterrupt_AVR8.h **** 			extern "C" {
  50:./lib/lufa/LUFA/Drivers/USB/Core/AVR8/../AVR8/USBInterrupt_AVR8.h **** 		#endif
  51:./lib/lufa/LUFA/Drivers/USB/Core/AVR8/../AVR8/USBInterrupt_AVR8.h **** 
  52:./lib/lufa/LUFA/Drivers/USB/Core/AVR8/../AVR8/USBInterrupt_AVR8.h **** 	/* Preprocessor Checks: */
  53:./lib/lufa/LUFA/Drivers/USB/Core/AVR8/../AVR8/USBInterrupt_AVR8.h **** 		#if !defined(__INCLUDE_FROM_USB_DRIVER)
  54:./lib/lufa/LUFA/Drivers/USB/Core/AVR8/../AVR8/USBInterrupt_AVR8.h **** 			#error Do not include this file directly. Include LUFA/Drivers/USB/USB.h instead.
  55:./lib/lufa/LUFA/Drivers/USB/Core/AVR8/../AVR8/USBInterrupt_AVR8.h **** 		#endif
  56:./lib/lufa/LUFA/Drivers/USB/Core/AVR8/../AVR8/USBInterrupt_AVR8.h **** 
  57:./lib/lufa/LUFA/Drivers/USB/Core/AVR8/../AVR8/USBInterrupt_AVR8.h **** 	/* Private Interface - For use in library only: */
  58:./lib/lufa/LUFA/Drivers/USB/Core/AVR8/../AVR8/USBInterrupt_AVR8.h **** 	#if !defined(__DOXYGEN__)
  59:./lib/lufa/LUFA/Drivers/USB/Core/AVR8/../AVR8/USBInterrupt_AVR8.h **** 		/* Enums: */
  60:./lib/lufa/LUFA/Drivers/USB/Core/AVR8/../AVR8/USBInterrupt_AVR8.h **** 			enum USB_Interrupts_t
  61:./lib/lufa/LUFA/Drivers/USB/Core/AVR8/../AVR8/USBInterrupt_AVR8.h **** 			{
  62:./lib/lufa/LUFA/Drivers/USB/Core/AVR8/../AVR8/USBInterrupt_AVR8.h **** 				#if (defined(USB_SERIES_4_AVR) || defined(USB_SERIES_6_AVR) || defined(USB_SERIES_7_AVR) || def
  63:./lib/lufa/LUFA/Drivers/USB/Core/AVR8/../AVR8/USBInterrupt_AVR8.h **** 				USB_INT_VBUSTI  = 0,
  64:./lib/lufa/LUFA/Drivers/USB/Core/AVR8/../AVR8/USBInterrupt_AVR8.h **** 				#endif
  65:./lib/lufa/LUFA/Drivers/USB/Core/AVR8/../AVR8/USBInterrupt_AVR8.h **** 				#if (defined(USB_CAN_BE_BOTH) || defined(__DOXYGEN__))
  66:./lib/lufa/LUFA/Drivers/USB/Core/AVR8/../AVR8/USBInterrupt_AVR8.h **** 				USB_INT_IDTI    = 1,
  67:./lib/lufa/LUFA/Drivers/USB/Core/AVR8/../AVR8/USBInterrupt_AVR8.h **** 				#endif
  68:./lib/lufa/LUFA/Drivers/USB/Core/AVR8/../AVR8/USBInterrupt_AVR8.h **** 				#if (defined(USB_CAN_BE_DEVICE) || defined(__DOXYGEN__))
  69:./lib/lufa/LUFA/Drivers/USB/Core/AVR8/../AVR8/USBInterrupt_AVR8.h **** 				USB_INT_WAKEUPI = 2,
  70:./lib/lufa/LUFA/Drivers/USB/Core/AVR8/../AVR8/USBInterrupt_AVR8.h **** 				USB_INT_SUSPI   = 3,
  71:./lib/lufa/LUFA/Drivers/USB/Core/AVR8/../AVR8/USBInterrupt_AVR8.h **** 				USB_INT_EORSTI  = 4,
  72:./lib/lufa/LUFA/Drivers/USB/Core/AVR8/../AVR8/USBInterrupt_AVR8.h **** 				USB_INT_SOFI    = 5,
  73:./lib/lufa/LUFA/Drivers/USB/Core/AVR8/../AVR8/USBInterrupt_AVR8.h **** 				USB_INT_RXSTPI  = 6,
  74:./lib/lufa/LUFA/Drivers/USB/Core/AVR8/../AVR8/USBInterrupt_AVR8.h **** 				#endif
  75:./lib/lufa/LUFA/Drivers/USB/Core/AVR8/../AVR8/USBInterrupt_AVR8.h **** 				#if (defined(USB_CAN_BE_HOST) || defined(__DOXYGEN__))
  76:./lib/lufa/LUFA/Drivers/USB/Core/AVR8/../AVR8/USBInterrupt_AVR8.h **** 				USB_INT_HSOFI   = 7,
  77:./lib/lufa/LUFA/Drivers/USB/Core/AVR8/../AVR8/USBInterrupt_AVR8.h **** 				USB_INT_DCONNI  = 8,
  78:./lib/lufa/LUFA/Drivers/USB/Core/AVR8/../AVR8/USBInterrupt_AVR8.h **** 				USB_INT_DDISCI  = 9,
  79:./lib/lufa/LUFA/Drivers/USB/Core/AVR8/../AVR8/USBInterrupt_AVR8.h **** 				USB_INT_RSTI    = 10,
  80:./lib/lufa/LUFA/Drivers/USB/Core/AVR8/../AVR8/USBInterrupt_AVR8.h **** 				USB_INT_BCERRI  = 11,
  81:./lib/lufa/LUFA/Drivers/USB/Core/AVR8/../AVR8/USBInterrupt_AVR8.h **** 				USB_INT_VBERRI  = 12,
  82:./lib/lufa/LUFA/Drivers/USB/Core/AVR8/../AVR8/USBInterrupt_AVR8.h **** 				USB_INT_SRPI    = 13,
  83:./lib/lufa/LUFA/Drivers/USB/Core/AVR8/../AVR8/USBInterrupt_AVR8.h **** 				#endif
  84:./lib/lufa/LUFA/Drivers/USB/Core/AVR8/../AVR8/USBInterrupt_AVR8.h **** 			};
  85:./lib/lufa/LUFA/Drivers/USB/Core/AVR8/../AVR8/USBInterrupt_AVR8.h **** 
  86:./lib/lufa/LUFA/Drivers/USB/Core/AVR8/../AVR8/USBInterrupt_AVR8.h **** 		/* Inline Functions: */
  87:./lib/lufa/LUFA/Drivers/USB/Core/AVR8/../AVR8/USBInterrupt_AVR8.h **** 			static inline void USB_INT_Enable(const uint8_t Interrupt) ATTR_ALWAYS_INLINE;
  88:./lib/lufa/LUFA/Drivers/USB/Core/AVR8/../AVR8/USBInterrupt_AVR8.h **** 			static inline void USB_INT_Enable(const uint8_t Interrupt)
  89:./lib/lufa/LUFA/Drivers/USB/Core/AVR8/../AVR8/USBInterrupt_AVR8.h **** 			{
  90:./lib/lufa/LUFA/Drivers/USB/Core/AVR8/../AVR8/USBInterrupt_AVR8.h **** 				switch (Interrupt)
  91:./lib/lufa/LUFA/Drivers/USB/Core/AVR8/../AVR8/USBInterrupt_AVR8.h **** 				{
  92:./lib/lufa/LUFA/Drivers/USB/Core/AVR8/../AVR8/USBInterrupt_AVR8.h **** 					#if (defined(USB_SERIES_4_AVR) || defined(USB_SERIES_6_AVR) || defined(USB_SERIES_7_AVR))
  93:./lib/lufa/LUFA/Drivers/USB/Core/AVR8/../AVR8/USBInterrupt_AVR8.h **** 					case USB_INT_VBUSTI:
  94:./lib/lufa/LUFA/Drivers/USB/Core/AVR8/../AVR8/USBInterrupt_AVR8.h **** 						USBCON |= (1 << VBUSTE);
  95:./lib/lufa/LUFA/Drivers/USB/Core/AVR8/../AVR8/USBInterrupt_AVR8.h **** 						break;
  96:./lib/lufa/LUFA/Drivers/USB/Core/AVR8/../AVR8/USBInterrupt_AVR8.h **** 					#endif
  97:./lib/lufa/LUFA/Drivers/USB/Core/AVR8/../AVR8/USBInterrupt_AVR8.h **** 					#if defined(USB_CAN_BE_BOTH)
  98:./lib/lufa/LUFA/Drivers/USB/Core/AVR8/../AVR8/USBInterrupt_AVR8.h **** 					case USB_INT_IDTI:
  99:./lib/lufa/LUFA/Drivers/USB/Core/AVR8/../AVR8/USBInterrupt_AVR8.h **** 						USBCON |= (1 << IDTE);
 100:./lib/lufa/LUFA/Drivers/USB/Core/AVR8/../AVR8/USBInterrupt_AVR8.h **** 						break;
 101:./lib/lufa/LUFA/Drivers/USB/Core/AVR8/../AVR8/USBInterrupt_AVR8.h **** 					#endif
 102:./lib/lufa/LUFA/Drivers/USB/Core/AVR8/../AVR8/USBInterrupt_AVR8.h **** 					#if defined(USB_CAN_BE_DEVICE)
 103:./lib/lufa/LUFA/Drivers/USB/Core/AVR8/../AVR8/USBInterrupt_AVR8.h **** 					case USB_INT_WAKEUPI:
 104:./lib/lufa/LUFA/Drivers/USB/Core/AVR8/../AVR8/USBInterrupt_AVR8.h **** 						UDIEN  |= (1 << WAKEUPE);
 105:./lib/lufa/LUFA/Drivers/USB/Core/AVR8/../AVR8/USBInterrupt_AVR8.h **** 						break;
 106:./lib/lufa/LUFA/Drivers/USB/Core/AVR8/../AVR8/USBInterrupt_AVR8.h **** 					case USB_INT_SUSPI:
 107:./lib/lufa/LUFA/Drivers/USB/Core/AVR8/../AVR8/USBInterrupt_AVR8.h **** 						UDIEN  |= (1 << SUSPE);
 108:./lib/lufa/LUFA/Drivers/USB/Core/AVR8/../AVR8/USBInterrupt_AVR8.h **** 						break;
 109:./lib/lufa/LUFA/Drivers/USB/Core/AVR8/../AVR8/USBInterrupt_AVR8.h **** 					case USB_INT_EORSTI:
 110:./lib/lufa/LUFA/Drivers/USB/Core/AVR8/../AVR8/USBInterrupt_AVR8.h **** 						UDIEN  |= (1 << EORSTE);
 111:./lib/lufa/LUFA/Drivers/USB/Core/AVR8/../AVR8/USBInterrupt_AVR8.h **** 						break;
 112:./lib/lufa/LUFA/Drivers/USB/Core/AVR8/../AVR8/USBInterrupt_AVR8.h **** 					case USB_INT_SOFI:
 113:./lib/lufa/LUFA/Drivers/USB/Core/AVR8/../AVR8/USBInterrupt_AVR8.h **** 						UDIEN  |= (1 << SOFE);
 701               		.loc 5 113 0
 702 0010 8091 E200 		lds r24,226
 703 0014 8460      		ori r24,lo8(4)
 704 0016 8093 E200 		sts 226,r24
 705               	.LVL57:
 706               	.L79:
 707               	/* epilogue start */
 708               	.LBE143:
 709               	.LBE142:
 710               	.LBE141:
 314:./tmk_core/protocol/lufa/lufa.c **** 
 711               		.loc 1 314 0
 712 001a 0895      		ret
 713               		.cfi_endproc
 714               	.LFE131:
 716               		.section	.text.EVENT_USB_Device_Disconnect,"ax",@progbits
 717               	.global	EVENT_USB_Device_Disconnect
 719               	EVENT_USB_Device_Disconnect:
 720               	.LFB132:
 321:./tmk_core/protocol/lufa/lufa.c ****     print("[D]");
 721               		.loc 1 321 0
 722               		.cfi_startproc
 723               	/* prologue: function */
 724               	/* frame size = 0 */
 725               	/* stack size = 0 */
 726               	.L__stack_usage = 0
 324:./tmk_core/protocol/lufa/lufa.c **** /* TODO: This doesn't work. After several plug in/outs can not be enumerated.
 727               		.loc 1 324 0
 728 0000 1092 0000 		sts USB_IsInitialized,__zero_reg__
 729               	/* epilogue start */
 332:./tmk_core/protocol/lufa/lufa.c **** 
 730               		.loc 1 332 0
 731 0004 0895      		ret
 732               		.cfi_endproc
 733               	.LFE132:
 735               		.section	.text.EVENT_USB_Device_Reset,"ax",@progbits
 736               	.global	EVENT_USB_Device_Reset
 738               	EVENT_USB_Device_Reset:
 739               	.LFB149:
 740               		.cfi_startproc
 741               	/* prologue: function */
 742               	/* frame size = 0 */
 743               	/* stack size = 0 */
 744               	.L__stack_usage = 0
 745               	/* epilogue start */
 746 0000 0895      		ret
 747               		.cfi_endproc
 748               	.LFE149:
 750               		.section	.text.EVENT_USB_Device_Suspend,"ax",@progbits
 751               	.global	EVENT_USB_Device_Suspend
 753               	EVENT_USB_Device_Suspend:
 754               	.LFB134:
 348:./tmk_core/protocol/lufa/lufa.c ****     print("[S]");
 755               		.loc 1 348 0
 756               		.cfi_startproc
 757               	/* prologue: function */
 758               	/* frame size = 0 */
 759               	/* stack size = 0 */
 760               	.L__stack_usage = 0
 761               	/* epilogue start */
 353:./tmk_core/protocol/lufa/lufa.c **** 
 762               		.loc 1 353 0
 763 0000 0895      		ret
 764               		.cfi_endproc
 765               	.LFE134:
 767               		.section	.text.EVENT_USB_Device_WakeUp,"ax",@progbits
 768               	.global	EVENT_USB_Device_WakeUp
 770               	EVENT_USB_Device_WakeUp:
 771               	.LFB135:
 360:./tmk_core/protocol/lufa/lufa.c ****     print("[W]");
 772               		.loc 1 360 0
 773               		.cfi_startproc
 774               	/* prologue: function */
 775               	/* frame size = 0 */
 776               	/* stack size = 0 */
 777               	.L__stack_usage = 0
 362:./tmk_core/protocol/lufa/lufa.c **** 
 778               		.loc 1 362 0
 779 0000 0C94 0000 		jmp suspend_wakeup_init
 780               	.LVL58:
 781               		.cfi_endproc
 782               	.LFE135:
 784               		.section	.text.EVENT_USB_Device_ConfigurationChanged,"ax",@progbits
 785               	.global	EVENT_USB_Device_ConfigurationChanged
 787               	EVENT_USB_Device_ConfigurationChanged:
 788               	.LFB136:
 407:./tmk_core/protocol/lufa/lufa.c ****     bool ConfigSuccess = true;
 789               		.loc 1 407 0
 790               		.cfi_startproc
 791               	/* prologue: function */
 792               	/* frame size = 0 */
 793               	/* stack size = 0 */
 794               	.L__stack_usage = 0
 795               	.LVL59:
 796               	.LBB144:
 797               	.LBB145:
 210:./lib/lufa/LUFA/Drivers/USB/Core/AVR8/../AVR8/Endpoint_AVR8.h **** 				                                      ((Type << EPTYPE0) | ((Address & ENDPOINT_DIR_IN) ? (1 <<
 798               		.loc 2 210 0
 799 0000 42E0      		ldi r20,lo8(2)
 800 0002 61EC      		ldi r22,lo8(-63)
 801 0004 81E0      		ldi r24,lo8(1)
 802 0006 0E94 0000 		call Endpoint_ConfigureEndpoint_Prv
 803               	.LVL60:
 804               	.LBE145:
 805               	.LBE144:
 806               	.LBB146:
 807               	.LBB147:
 808 000a 42E0      		ldi r20,lo8(2)
 809 000c 61EC      		ldi r22,lo8(-63)
 810 000e 82E0      		ldi r24,lo8(2)
 811 0010 0E94 0000 		call Endpoint_ConfigureEndpoint_Prv
 812               	.LVL61:
 813               	.LBE147:
 814               	.LBE146:
 815               	.LBB148:
 816               	.LBB149:
 817 0014 42E0      		ldi r20,lo8(2)
 818 0016 61EC      		ldi r22,lo8(-63)
 819 0018 83E0      		ldi r24,lo8(3)
 820 001a 0C94 0000 		jmp Endpoint_ConfigureEndpoint_Prv
 821               	.LVL62:
 822               	.LBE149:
 823               	.LBE148:
 824               		.cfi_endproc
 825               	.LFE136:
 827               		.section	.text.EVENT_USB_Device_ControlRequest,"ax",@progbits
 828               	.global	EVENT_USB_Device_ControlRequest
 830               	EVENT_USB_Device_ControlRequest:
 831               	.LFB137:
 480:./tmk_core/protocol/lufa/lufa.c ****     uint8_t* ReportData = NULL;
 832               		.loc 1 480 0
 833               		.cfi_startproc
 834               	/* prologue: function */
 835               	/* frame size = 0 */
 836               	/* stack size = 0 */
 837               	.L__stack_usage = 0
 838               	.LVL63:
 485:./tmk_core/protocol/lufa/lufa.c ****     {
 839               		.loc 1 485 0
 840 0000 8091 0000 		lds r24,USB_ControlRequest+1
 841 0004 8330      		cpi r24,lo8(3)
 842 0006 01F4      		brne .+2
 843 0008 00C0      		rjmp .L88
 844 000a 00F4      		brsh .L89
 845 000c 8130      		cpi r24,lo8(1)
 846 000e 01F0      		breq .L90
 847 0010 8230      		cpi r24,lo8(2)
 848 0012 01F4      		brne .+2
 849 0014 00C0      		rjmp .L91
 850 0016 0895      		ret
 851               	.L89:
 852 0018 8A30      		cpi r24,lo8(10)
 853 001a 01F4      		brne .+2
 854 001c 00C0      		rjmp .L92
 855 001e 8B30      		cpi r24,lo8(11)
 856 0020 01F4      		brne .+2
 857 0022 00C0      		rjmp .L93
 858 0024 8930      		cpi r24,lo8(9)
 859 0026 01F0      		breq .+2
 860 0028 00C0      		rjmp .L86
 508:./tmk_core/protocol/lufa/lufa.c ****             {
 861               		.loc 1 508 0
 862 002a 8091 0000 		lds r24,USB_ControlRequest
 863 002e 8132      		cpi r24,lo8(33)
 864 0030 01F4      		brne .L86
 512:./tmk_core/protocol/lufa/lufa.c ****                 case KEYBOARD_INTERFACE:
 865               		.loc 1 512 0
 866 0032 8091 0000 		lds r24,USB_ControlRequest+4
 867 0036 9091 0000 		lds r25,USB_ControlRequest+4+1
 868 003a 892B      		or r24,r25
 869 003c 01F4      		brne .L86
 870               	.LBB150:
 871               	.LBB151:
 444:./lib/lufa/LUFA/Drivers/USB/Core/AVR8/../AVR8/Endpoint_AVR8.h **** 			}
 872               		.loc 2 444 0
 873 003e 8091 E800 		lds r24,232
 874 0042 877F      		andi r24,lo8(-9)
 875 0044 8093 E800 		sts 232,r24
 876               	.L100:
 877               	.LBE151:
 878               	.LBE150:
 879               	.LBB152:
 880               	.LBB153:
 419:./lib/lufa/LUFA/Drivers/USB/Core/AVR8/../AVR8/Endpoint_AVR8.h **** 			}
 881               		.loc 2 419 0
 882 0048 8091 E800 		lds r24,232
 883               	.LBE153:
 884               	.LBE152:
 519:./tmk_core/protocol/lufa/lufa.c ****                         if (USB_DeviceState == DEVICE_STATE_Unattached)
 885               		.loc 1 519 0
 886 004c 82FF      		sbrs r24,2
 887 004e 00C0      		rjmp .L101
 888               	.LBB154:
 889               	.LBB155:
 457:./lib/lufa/LUFA/Drivers/USB/Core/AVR8/../AVR8/Endpoint_AVR8.h **** 				#else
 458:./lib/lufa/LUFA/Drivers/USB/Core/AVR8/../AVR8/Endpoint_AVR8.h **** 					UEINTX &= ~(1 << TXINI);
 459:./lib/lufa/LUFA/Drivers/USB/Core/AVR8/../AVR8/Endpoint_AVR8.h **** 				#endif
 460:./lib/lufa/LUFA/Drivers/USB/Core/AVR8/../AVR8/Endpoint_AVR8.h **** 			}
 461:./lib/lufa/LUFA/Drivers/USB/Core/AVR8/../AVR8/Endpoint_AVR8.h **** 
 462:./lib/lufa/LUFA/Drivers/USB/Core/AVR8/../AVR8/Endpoint_AVR8.h **** 			/** Acknowledges an OUT packet to the host on the currently selected endpoint, freeing up the en
 463:./lib/lufa/LUFA/Drivers/USB/Core/AVR8/../AVR8/Endpoint_AVR8.h **** 			 *  for the next packet and switching to the alternative endpoint bank if double banked.
 464:./lib/lufa/LUFA/Drivers/USB/Core/AVR8/../AVR8/Endpoint_AVR8.h **** 			 *
 465:./lib/lufa/LUFA/Drivers/USB/Core/AVR8/../AVR8/Endpoint_AVR8.h **** 			 *  \ingroup Group_EndpointPacketManagement_AVR8
 466:./lib/lufa/LUFA/Drivers/USB/Core/AVR8/../AVR8/Endpoint_AVR8.h **** 			 */
 467:./lib/lufa/LUFA/Drivers/USB/Core/AVR8/../AVR8/Endpoint_AVR8.h **** 			static inline void Endpoint_ClearOUT(void) ATTR_ALWAYS_INLINE;
 468:./lib/lufa/LUFA/Drivers/USB/Core/AVR8/../AVR8/Endpoint_AVR8.h **** 			static inline void Endpoint_ClearOUT(void)
 469:./lib/lufa/LUFA/Drivers/USB/Core/AVR8/../AVR8/Endpoint_AVR8.h **** 			{
 470:./lib/lufa/LUFA/Drivers/USB/Core/AVR8/../AVR8/Endpoint_AVR8.h **** 				#if !defined(CONTROL_ONLY_DEVICE)
 471:./lib/lufa/LUFA/Drivers/USB/Core/AVR8/../AVR8/Endpoint_AVR8.h **** 					UEINTX &= ~((1 << RXOUTI) | (1 << FIFOCON));
 472:./lib/lufa/LUFA/Drivers/USB/Core/AVR8/../AVR8/Endpoint_AVR8.h **** 				#else
 473:./lib/lufa/LUFA/Drivers/USB/Core/AVR8/../AVR8/Endpoint_AVR8.h **** 					UEINTX &= ~(1 << RXOUTI);
 474:./lib/lufa/LUFA/Drivers/USB/Core/AVR8/../AVR8/Endpoint_AVR8.h **** 				#endif
 475:./lib/lufa/LUFA/Drivers/USB/Core/AVR8/../AVR8/Endpoint_AVR8.h **** 			}
 476:./lib/lufa/LUFA/Drivers/USB/Core/AVR8/../AVR8/Endpoint_AVR8.h **** 
 477:./lib/lufa/LUFA/Drivers/USB/Core/AVR8/../AVR8/Endpoint_AVR8.h **** 			/** Stalls the current endpoint, indicating to the host that a logical problem occurred with the
 478:./lib/lufa/LUFA/Drivers/USB/Core/AVR8/../AVR8/Endpoint_AVR8.h **** 			 *  indicated endpoint and that the current transfer sequence should be aborted. This provides a
 479:./lib/lufa/LUFA/Drivers/USB/Core/AVR8/../AVR8/Endpoint_AVR8.h **** 			 *  way for devices to indicate invalid commands to the host so that the current transfer can be
 480:./lib/lufa/LUFA/Drivers/USB/Core/AVR8/../AVR8/Endpoint_AVR8.h **** 			 *  aborted and the host can begin its own recovery sequence.
 481:./lib/lufa/LUFA/Drivers/USB/Core/AVR8/../AVR8/Endpoint_AVR8.h **** 			 *
 482:./lib/lufa/LUFA/Drivers/USB/Core/AVR8/../AVR8/Endpoint_AVR8.h **** 			 *  The currently selected endpoint remains stalled until either the \ref Endpoint_ClearStall() 
 483:./lib/lufa/LUFA/Drivers/USB/Core/AVR8/../AVR8/Endpoint_AVR8.h **** 			 *  is called, or the host issues a CLEAR FEATURE request to the device for the currently select
 484:./lib/lufa/LUFA/Drivers/USB/Core/AVR8/../AVR8/Endpoint_AVR8.h **** 			 *  endpoint.
 485:./lib/lufa/LUFA/Drivers/USB/Core/AVR8/../AVR8/Endpoint_AVR8.h **** 			 *
 486:./lib/lufa/LUFA/Drivers/USB/Core/AVR8/../AVR8/Endpoint_AVR8.h **** 			 *  \ingroup Group_EndpointPacketManagement_AVR8
 487:./lib/lufa/LUFA/Drivers/USB/Core/AVR8/../AVR8/Endpoint_AVR8.h **** 			 */
 488:./lib/lufa/LUFA/Drivers/USB/Core/AVR8/../AVR8/Endpoint_AVR8.h **** 			static inline void Endpoint_StallTransaction(void) ATTR_ALWAYS_INLINE;
 489:./lib/lufa/LUFA/Drivers/USB/Core/AVR8/../AVR8/Endpoint_AVR8.h **** 			static inline void Endpoint_StallTransaction(void)
 490:./lib/lufa/LUFA/Drivers/USB/Core/AVR8/../AVR8/Endpoint_AVR8.h **** 			{
 491:./lib/lufa/LUFA/Drivers/USB/Core/AVR8/../AVR8/Endpoint_AVR8.h **** 				UECONX |= (1 << STALLRQ);
 492:./lib/lufa/LUFA/Drivers/USB/Core/AVR8/../AVR8/Endpoint_AVR8.h **** 			}
 493:./lib/lufa/LUFA/Drivers/USB/Core/AVR8/../AVR8/Endpoint_AVR8.h **** 
 494:./lib/lufa/LUFA/Drivers/USB/Core/AVR8/../AVR8/Endpoint_AVR8.h **** 			/** Clears the STALL condition on the currently selected endpoint.
 495:./lib/lufa/LUFA/Drivers/USB/Core/AVR8/../AVR8/Endpoint_AVR8.h **** 			 *
 496:./lib/lufa/LUFA/Drivers/USB/Core/AVR8/../AVR8/Endpoint_AVR8.h **** 			 *  \ingroup Group_EndpointPacketManagement_AVR8
 497:./lib/lufa/LUFA/Drivers/USB/Core/AVR8/../AVR8/Endpoint_AVR8.h **** 			 */
 498:./lib/lufa/LUFA/Drivers/USB/Core/AVR8/../AVR8/Endpoint_AVR8.h **** 			static inline void Endpoint_ClearStall(void) ATTR_ALWAYS_INLINE;
 499:./lib/lufa/LUFA/Drivers/USB/Core/AVR8/../AVR8/Endpoint_AVR8.h **** 			static inline void Endpoint_ClearStall(void)
 500:./lib/lufa/LUFA/Drivers/USB/Core/AVR8/../AVR8/Endpoint_AVR8.h **** 			{
 501:./lib/lufa/LUFA/Drivers/USB/Core/AVR8/../AVR8/Endpoint_AVR8.h **** 				UECONX |= (1 << STALLRQC);
 502:./lib/lufa/LUFA/Drivers/USB/Core/AVR8/../AVR8/Endpoint_AVR8.h **** 			}
 503:./lib/lufa/LUFA/Drivers/USB/Core/AVR8/../AVR8/Endpoint_AVR8.h **** 
 504:./lib/lufa/LUFA/Drivers/USB/Core/AVR8/../AVR8/Endpoint_AVR8.h **** 			/** Determines if the currently selected endpoint is stalled, \c false otherwise.
 505:./lib/lufa/LUFA/Drivers/USB/Core/AVR8/../AVR8/Endpoint_AVR8.h **** 			 *
 506:./lib/lufa/LUFA/Drivers/USB/Core/AVR8/../AVR8/Endpoint_AVR8.h **** 			 *  \ingroup Group_EndpointPacketManagement_AVR8
 507:./lib/lufa/LUFA/Drivers/USB/Core/AVR8/../AVR8/Endpoint_AVR8.h **** 			 *
 508:./lib/lufa/LUFA/Drivers/USB/Core/AVR8/../AVR8/Endpoint_AVR8.h **** 			 *  \return Boolean \c true if the currently selected endpoint is stalled, \c false otherwise.
 509:./lib/lufa/LUFA/Drivers/USB/Core/AVR8/../AVR8/Endpoint_AVR8.h **** 			 */
 510:./lib/lufa/LUFA/Drivers/USB/Core/AVR8/../AVR8/Endpoint_AVR8.h **** 			static inline bool Endpoint_IsStalled(void) ATTR_WARN_UNUSED_RESULT ATTR_ALWAYS_INLINE;
 511:./lib/lufa/LUFA/Drivers/USB/Core/AVR8/../AVR8/Endpoint_AVR8.h **** 			static inline bool Endpoint_IsStalled(void)
 512:./lib/lufa/LUFA/Drivers/USB/Core/AVR8/../AVR8/Endpoint_AVR8.h **** 			{
 513:./lib/lufa/LUFA/Drivers/USB/Core/AVR8/../AVR8/Endpoint_AVR8.h **** 				return ((UECONX & (1 << STALLRQ)) ? true : false);
 514:./lib/lufa/LUFA/Drivers/USB/Core/AVR8/../AVR8/Endpoint_AVR8.h **** 			}
 515:./lib/lufa/LUFA/Drivers/USB/Core/AVR8/../AVR8/Endpoint_AVR8.h **** 
 516:./lib/lufa/LUFA/Drivers/USB/Core/AVR8/../AVR8/Endpoint_AVR8.h **** 			/** Resets the data toggle of the currently selected endpoint. */
 517:./lib/lufa/LUFA/Drivers/USB/Core/AVR8/../AVR8/Endpoint_AVR8.h **** 			static inline void Endpoint_ResetDataToggle(void) ATTR_ALWAYS_INLINE;
 518:./lib/lufa/LUFA/Drivers/USB/Core/AVR8/../AVR8/Endpoint_AVR8.h **** 			static inline void Endpoint_ResetDataToggle(void)
 519:./lib/lufa/LUFA/Drivers/USB/Core/AVR8/../AVR8/Endpoint_AVR8.h **** 			{
 520:./lib/lufa/LUFA/Drivers/USB/Core/AVR8/../AVR8/Endpoint_AVR8.h **** 				UECONX |= (1 << RSTDT);
 521:./lib/lufa/LUFA/Drivers/USB/Core/AVR8/../AVR8/Endpoint_AVR8.h **** 			}
 522:./lib/lufa/LUFA/Drivers/USB/Core/AVR8/../AVR8/Endpoint_AVR8.h **** 
 523:./lib/lufa/LUFA/Drivers/USB/Core/AVR8/../AVR8/Endpoint_AVR8.h **** 			/** Sets the direction of the currently selected endpoint.
 524:./lib/lufa/LUFA/Drivers/USB/Core/AVR8/../AVR8/Endpoint_AVR8.h **** 			 *
 525:./lib/lufa/LUFA/Drivers/USB/Core/AVR8/../AVR8/Endpoint_AVR8.h **** 			 *  \param[in] DirectionMask  New endpoint direction, as a \c ENDPOINT_DIR_* mask.
 526:./lib/lufa/LUFA/Drivers/USB/Core/AVR8/../AVR8/Endpoint_AVR8.h **** 			 */
 527:./lib/lufa/LUFA/Drivers/USB/Core/AVR8/../AVR8/Endpoint_AVR8.h **** 			static inline void Endpoint_SetEndpointDirection(const uint8_t DirectionMask) ATTR_ALWAYS_INLINE
 528:./lib/lufa/LUFA/Drivers/USB/Core/AVR8/../AVR8/Endpoint_AVR8.h **** 			static inline void Endpoint_SetEndpointDirection(const uint8_t DirectionMask)
 529:./lib/lufa/LUFA/Drivers/USB/Core/AVR8/../AVR8/Endpoint_AVR8.h **** 			{
 530:./lib/lufa/LUFA/Drivers/USB/Core/AVR8/../AVR8/Endpoint_AVR8.h **** 				UECFG0X = ((UECFG0X & ~(1 << EPDIR)) | (DirectionMask ? (1 << EPDIR) : 0));
 531:./lib/lufa/LUFA/Drivers/USB/Core/AVR8/../AVR8/Endpoint_AVR8.h **** 			}
 532:./lib/lufa/LUFA/Drivers/USB/Core/AVR8/../AVR8/Endpoint_AVR8.h **** 
 533:./lib/lufa/LUFA/Drivers/USB/Core/AVR8/../AVR8/Endpoint_AVR8.h **** 			/** Reads one byte from the currently selected endpoint's bank, for OUT direction endpoints.
 534:./lib/lufa/LUFA/Drivers/USB/Core/AVR8/../AVR8/Endpoint_AVR8.h **** 			 *
 535:./lib/lufa/LUFA/Drivers/USB/Core/AVR8/../AVR8/Endpoint_AVR8.h **** 			 *  \ingroup Group_EndpointPrimitiveRW_AVR8
 536:./lib/lufa/LUFA/Drivers/USB/Core/AVR8/../AVR8/Endpoint_AVR8.h **** 			 *
 537:./lib/lufa/LUFA/Drivers/USB/Core/AVR8/../AVR8/Endpoint_AVR8.h **** 			 *  \return Next byte in the currently selected endpoint's FIFO buffer.
 538:./lib/lufa/LUFA/Drivers/USB/Core/AVR8/../AVR8/Endpoint_AVR8.h **** 			 */
 539:./lib/lufa/LUFA/Drivers/USB/Core/AVR8/../AVR8/Endpoint_AVR8.h **** 			static inline uint8_t Endpoint_Read_8(void) ATTR_WARN_UNUSED_RESULT ATTR_ALWAYS_INLINE;
 540:./lib/lufa/LUFA/Drivers/USB/Core/AVR8/../AVR8/Endpoint_AVR8.h **** 			static inline uint8_t Endpoint_Read_8(void)
 541:./lib/lufa/LUFA/Drivers/USB/Core/AVR8/../AVR8/Endpoint_AVR8.h **** 			{
 542:./lib/lufa/LUFA/Drivers/USB/Core/AVR8/../AVR8/Endpoint_AVR8.h **** 				return UEDATX;
 890               		.loc 2 542 0
 891 0050 8091 F100 		lds r24,241
 892               	.LBE155:
 893               	.LBE154:
 523:./tmk_core/protocol/lufa/lufa.c **** 
 894               		.loc 1 523 0
 895 0054 8093 0000 		sts keyboard_led_stats,r24
 896               	.LBB156:
 897               	.LBB157:
 471:./lib/lufa/LUFA/Drivers/USB/Core/AVR8/../AVR8/Endpoint_AVR8.h **** 				#else
 898               		.loc 2 471 0
 899 0058 8091 E800 		lds r24,232
 900 005c 8B77      		andi r24,lo8(123)
 901               	.L113:
 902               	.LBE157:
 903               	.LBE156:
 904               	.LBB158:
 905               	.LBB159:
 456:./lib/lufa/LUFA/Drivers/USB/Core/AVR8/../AVR8/Endpoint_AVR8.h **** 				#else
 906               		.loc 2 456 0
 907 005e 8093 E800 		sts 232,r24
 908               	.LBE159:
 909               	.LBE158:
 577:./tmk_core/protocol/lufa/lufa.c ****             }
 910               		.loc 1 577 0
 911 0062 0C94 0000 		jmp Endpoint_ClearStatusStage
 912               	.LVL64:
 913               	.L90:
 488:./tmk_core/protocol/lufa/lufa.c ****             {
 914               		.loc 1 488 0
 915 0066 8091 0000 		lds r24,USB_ControlRequest
 916 006a 813A      		cpi r24,lo8(-95)
 917 006c 01F4      		brne .L86
 918               	.LBB161:
 919               	.LBB162:
 444:./lib/lufa/LUFA/Drivers/USB/Core/AVR8/../AVR8/Endpoint_AVR8.h **** 			}
 920               		.loc 2 444 0
 921 006e 8091 E800 		lds r24,232
 922 0072 877F      		andi r24,lo8(-9)
 923 0074 8093 E800 		sts 232,r24
 924               	.LBE162:
 925               	.LBE161:
 493:./tmk_core/protocol/lufa/lufa.c ****                 case KEYBOARD_INTERFACE:
 926               		.loc 1 493 0
 927 0078 8091 0000 		lds r24,USB_ControlRequest+4
 928 007c 9091 0000 		lds r25,USB_ControlRequest+4+1
 929 0080 892B      		or r24,r25
 930 0082 01F4      		brne .L112
 497:./tmk_core/protocol/lufa/lufa.c ****                     break;
 931               		.loc 1 497 0
 932 0084 68E0      		ldi r22,lo8(8)
 496:./tmk_core/protocol/lufa/lufa.c ****                     ReportSize = sizeof(keyboard_report_sent);
 933               		.loc 1 496 0
 934 0086 80E0      		ldi r24,lo8(keyboard_report_sent)
 935 0088 90E0      		ldi r25,hi8(keyboard_report_sent)
 936               	.L96:
 937               	.LVL65:
 502:./tmk_core/protocol/lufa/lufa.c ****                 Endpoint_ClearOUT();
 938               		.loc 1 502 0
 939 008a 70E0      		ldi r23,0
 940 008c 0E94 0000 		call Endpoint_Write_Control_Stream_LE
 941               	.LVL66:
 942               	.LBB163:
 943               	.LBB164:
 471:./lib/lufa/LUFA/Drivers/USB/Core/AVR8/../AVR8/Endpoint_AVR8.h **** 				#else
 944               		.loc 2 471 0
 945 0090 8091 E800 		lds r24,232
 946 0094 8B77      		andi r24,lo8(123)
 947 0096 8093 E800 		sts 232,r24
 948 009a 0895      		ret
 949               	.LVL67:
 950               	.L112:
 951               	.LBE164:
 952               	.LBE163:
 482:./tmk_core/protocol/lufa/lufa.c **** 
 953               		.loc 1 482 0
 954 009c 60E0      		ldi r22,0
 481:./tmk_core/protocol/lufa/lufa.c ****     uint8_t  ReportSize = 0;
 955               		.loc 1 481 0
 956 009e 90E0      		ldi r25,0
 957 00a0 80E0      		ldi r24,0
 958 00a2 00C0      		rjmp .L96
 959               	.L101:
 520:./tmk_core/protocol/lufa/lufa.c ****                           return;
 960               		.loc 1 520 0
 961 00a4 8091 0000 		lds r24,USB_DeviceState
 962 00a8 8111      		cpse r24,__zero_reg__
 963 00aa 00C0      		rjmp .L100
 964               	.L86:
 965               	/* epilogue start */
 586:./tmk_core/protocol/lufa/lufa.c **** 
 966               		.loc 1 586 0
 967 00ac 0895      		ret
 968               	.L88:
 535:./tmk_core/protocol/lufa/lufa.c ****             {
 969               		.loc 1 535 0
 970 00ae 8091 0000 		lds r24,USB_ControlRequest
 971 00b2 813A      		cpi r24,lo8(-95)
 972 00b4 01F4      		brne .L86
 537:./tmk_core/protocol/lufa/lufa.c ****                     Endpoint_ClearSETUP();
 973               		.loc 1 537 0
 974 00b6 8091 0000 		lds r24,USB_ControlRequest+4
 975 00ba 9091 0000 		lds r25,USB_ControlRequest+4+1
 976 00be 892B      		or r24,r25
 977 00c0 01F4      		brne .L86
 978               	.LBB165:
 979               	.LBB166:
 444:./lib/lufa/LUFA/Drivers/USB/Core/AVR8/../AVR8/Endpoint_AVR8.h **** 			}
 980               		.loc 2 444 0
 981 00c2 8091 E800 		lds r24,232
 982 00c6 877F      		andi r24,lo8(-9)
 983 00c8 8093 E800 		sts 232,r24
 984               	.L102:
 985               	.LBE166:
 986               	.LBE165:
 987               	.LBB167:
 988               	.LBB168:
 407:./lib/lufa/LUFA/Drivers/USB/Core/AVR8/../AVR8/Endpoint_AVR8.h **** 			}
 989               		.loc 2 407 0 discriminator 1
 990 00cc 8091 E800 		lds r24,232
 991               	.LBE168:
 992               	.LBE167:
 539:./tmk_core/protocol/lufa/lufa.c ****                     Endpoint_Write_8(keyboard_protocol);
 993               		.loc 1 539 0 discriminator 1
 994 00d0 80FF      		sbrs r24,0
 995 00d2 00C0      		rjmp .L102
 540:./tmk_core/protocol/lufa/lufa.c ****                     Endpoint_ClearIN();
 996               		.loc 1 540 0
 997 00d4 8091 0000 		lds r24,keyboard_protocol
 998               	.LVL68:
 999               	.L114:
 1000               	.LBB169:
 1001               	.LBB170:
 543:./lib/lufa/LUFA/Drivers/USB/Core/AVR8/../AVR8/Endpoint_AVR8.h **** 			}
 544:./lib/lufa/LUFA/Drivers/USB/Core/AVR8/../AVR8/Endpoint_AVR8.h **** 
 545:./lib/lufa/LUFA/Drivers/USB/Core/AVR8/../AVR8/Endpoint_AVR8.h **** 			/** Writes one byte to the currently selected endpoint's bank, for IN direction endpoints.
 546:./lib/lufa/LUFA/Drivers/USB/Core/AVR8/../AVR8/Endpoint_AVR8.h **** 			 *
 547:./lib/lufa/LUFA/Drivers/USB/Core/AVR8/../AVR8/Endpoint_AVR8.h **** 			 *  \ingroup Group_EndpointPrimitiveRW_AVR8
 548:./lib/lufa/LUFA/Drivers/USB/Core/AVR8/../AVR8/Endpoint_AVR8.h **** 			 *
 549:./lib/lufa/LUFA/Drivers/USB/Core/AVR8/../AVR8/Endpoint_AVR8.h **** 			 *  \param[in] Data  Data to write into the the currently selected endpoint's FIFO buffer.
 550:./lib/lufa/LUFA/Drivers/USB/Core/AVR8/../AVR8/Endpoint_AVR8.h **** 			 */
 551:./lib/lufa/LUFA/Drivers/USB/Core/AVR8/../AVR8/Endpoint_AVR8.h **** 			static inline void Endpoint_Write_8(const uint8_t Data) ATTR_ALWAYS_INLINE;
 552:./lib/lufa/LUFA/Drivers/USB/Core/AVR8/../AVR8/Endpoint_AVR8.h **** 			static inline void Endpoint_Write_8(const uint8_t Data)
 553:./lib/lufa/LUFA/Drivers/USB/Core/AVR8/../AVR8/Endpoint_AVR8.h **** 			{
 554:./lib/lufa/LUFA/Drivers/USB/Core/AVR8/../AVR8/Endpoint_AVR8.h **** 				UEDATX = Data;
 1002               		.loc 2 554 0
 1003 00d8 8093 F100 		sts 241,r24
 1004               	.LVL69:
 1005               	.LBE170:
 1006               	.LBE169:
 1007               	.LBB171:
 1008               	.LBB160:
 456:./lib/lufa/LUFA/Drivers/USB/Core/AVR8/../AVR8/Endpoint_AVR8.h **** 				#else
 1009               		.loc 2 456 0
 1010 00dc 8091 E800 		lds r24,232
 1011 00e0 8E77      		andi r24,lo8(126)
 1012 00e2 00C0      		rjmp .L113
 1013               	.L93:
 1014               	.LBE160:
 1015               	.LBE171:
 548:./tmk_core/protocol/lufa/lufa.c ****             {
 1016               		.loc 1 548 0
 1017 00e4 8091 0000 		lds r24,USB_ControlRequest
 1018 00e8 8132      		cpi r24,lo8(33)
 1019 00ea 01F4      		brne .L86
 550:./tmk_core/protocol/lufa/lufa.c ****                     Endpoint_ClearSETUP();
 1020               		.loc 1 550 0
 1021 00ec 8091 0000 		lds r24,USB_ControlRequest+4
 1022 00f0 9091 0000 		lds r25,USB_ControlRequest+4+1
 1023 00f4 892B      		or r24,r25
 1024 00f6 01F4      		brne .L86
 1025               	.LBB172:
 1026               	.LBB173:
 444:./lib/lufa/LUFA/Drivers/USB/Core/AVR8/../AVR8/Endpoint_AVR8.h **** 			}
 1027               		.loc 2 444 0
 1028 00f8 8091 E800 		lds r24,232
 1029 00fc 877F      		andi r24,lo8(-9)
 1030 00fe 8093 E800 		sts 232,r24
 1031               	.LBE173:
 1032               	.LBE172:
 552:./tmk_core/protocol/lufa/lufa.c **** 
 1033               		.loc 1 552 0
 1034 0102 0E94 0000 		call Endpoint_ClearStatusStage
 1035               	.LVL70:
 554:./tmk_core/protocol/lufa/lufa.c ****                     clear_keyboard();
 1036               		.loc 1 554 0
 1037 0106 8091 0000 		lds r24,USB_ControlRequest+2
 1038 010a 8093 0000 		sts keyboard_protocol,r24
 555:./tmk_core/protocol/lufa/lufa.c ****                 }
 1039               		.loc 1 555 0
 1040 010e 0C94 0000 		jmp clear_keyboard
 1041               	.LVL71:
 1042               	.L92:
 561:./tmk_core/protocol/lufa/lufa.c ****             {
 1043               		.loc 1 561 0
 1044 0112 8091 0000 		lds r24,USB_ControlRequest
 1045 0116 8132      		cpi r24,lo8(33)
 1046 0118 01F4      		brne .L86
 1047               	.LBB174:
 1048               	.LBB175:
 444:./lib/lufa/LUFA/Drivers/USB/Core/AVR8/../AVR8/Endpoint_AVR8.h **** 			}
 1049               		.loc 2 444 0
 1050 011a 8091 E800 		lds r24,232
 1051 011e 877F      		andi r24,lo8(-9)
 1052 0120 8093 E800 		sts 232,r24
 1053               	.LBE175:
 1054               	.LBE174:
 564:./tmk_core/protocol/lufa/lufa.c **** 
 1055               		.loc 1 564 0
 1056 0124 0E94 0000 		call Endpoint_ClearStatusStage
 1057               	.LVL72:
 566:./tmk_core/protocol/lufa/lufa.c ****             }
 1058               		.loc 1 566 0
 1059 0128 8091 0000 		lds r24,USB_ControlRequest+3
 1060 012c 8093 0000 		sts keyboard_idle,r24
 1061 0130 0895      		ret
 1062               	.L91:
 571:./tmk_core/protocol/lufa/lufa.c ****             {
 1063               		.loc 1 571 0
 1064 0132 8091 0000 		lds r24,USB_ControlRequest
 1065 0136 813A      		cpi r24,lo8(-95)
 1066 0138 01F0      		breq .+2
 1067 013a 00C0      		rjmp .L86
 1068               	.LBB176:
 1069               	.LBB177:
 444:./lib/lufa/LUFA/Drivers/USB/Core/AVR8/../AVR8/Endpoint_AVR8.h **** 			}
 1070               		.loc 2 444 0
 1071 013c 8091 E800 		lds r24,232
 1072 0140 877F      		andi r24,lo8(-9)
 1073 0142 8093 E800 		sts 232,r24
 1074               	.L103:
 1075               	.LBE177:
 1076               	.LBE176:
 1077               	.LBB178:
 1078               	.LBB179:
 407:./lib/lufa/LUFA/Drivers/USB/Core/AVR8/../AVR8/Endpoint_AVR8.h **** 			}
 1079               		.loc 2 407 0 discriminator 1
 1080 0146 8091 E800 		lds r24,232
 1081               	.LBE179:
 1082               	.LBE178:
 574:./tmk_core/protocol/lufa/lufa.c ****                 Endpoint_Write_8(keyboard_idle);
 1083               		.loc 1 574 0 discriminator 1
 1084 014a 80FF      		sbrs r24,0
 1085 014c 00C0      		rjmp .L103
 575:./tmk_core/protocol/lufa/lufa.c ****                 Endpoint_ClearIN();
 1086               		.loc 1 575 0
 1087 014e 8091 0000 		lds r24,keyboard_idle
 1088 0152 00C0      		rjmp .L114
 1089               		.cfi_endproc
 1090               	.LFE137:
 1092               		.section	.text.sendchar,"ax",@progbits
 1093               	.global	sendchar
 1095               	sendchar:
 1096               	.LFB143:
 797:./tmk_core/protocol/lufa/lufa.c **** 
 798:./tmk_core/protocol/lufa/lufa.c **** 
 799:./tmk_core/protocol/lufa/lufa.c **** /*******************************************************************************
 800:./tmk_core/protocol/lufa/lufa.c ****  * sendchar
 801:./tmk_core/protocol/lufa/lufa.c ****  ******************************************************************************/
 802:./tmk_core/protocol/lufa/lufa.c **** #ifdef CONSOLE_ENABLE
 803:./tmk_core/protocol/lufa/lufa.c **** #define SEND_TIMEOUT 5
 804:./tmk_core/protocol/lufa/lufa.c **** /** \brief Send Char
 805:./tmk_core/protocol/lufa/lufa.c ****  *
 806:./tmk_core/protocol/lufa/lufa.c ****  * FIXME: Needs doc
 807:./tmk_core/protocol/lufa/lufa.c ****  */
 808:./tmk_core/protocol/lufa/lufa.c **** int8_t sendchar(uint8_t c)
 809:./tmk_core/protocol/lufa/lufa.c **** {
 810:./tmk_core/protocol/lufa/lufa.c ****     // Not wait once timeouted.
 811:./tmk_core/protocol/lufa/lufa.c ****     // Because sendchar() is called so many times, waiting each call causes big lag.
 812:./tmk_core/protocol/lufa/lufa.c ****     static bool timeouted = false;
 813:./tmk_core/protocol/lufa/lufa.c **** 
 814:./tmk_core/protocol/lufa/lufa.c ****     // prevents Console_Task() from running during sendchar() runs.
 815:./tmk_core/protocol/lufa/lufa.c ****     // or char will be lost. These two function is mutually exclusive.
 816:./tmk_core/protocol/lufa/lufa.c ****     CONSOLE_FLUSH_SET(false);
 817:./tmk_core/protocol/lufa/lufa.c **** 
 818:./tmk_core/protocol/lufa/lufa.c ****     if (USB_DeviceState != DEVICE_STATE_Configured)
 819:./tmk_core/protocol/lufa/lufa.c ****         return -1;
 820:./tmk_core/protocol/lufa/lufa.c **** 
 821:./tmk_core/protocol/lufa/lufa.c ****     uint8_t ep = Endpoint_GetCurrentEndpoint();
 822:./tmk_core/protocol/lufa/lufa.c ****     Endpoint_SelectEndpoint(CONSOLE_IN_EPNUM);
 823:./tmk_core/protocol/lufa/lufa.c ****     if (!Endpoint_IsEnabled() || !Endpoint_IsConfigured()) {
 824:./tmk_core/protocol/lufa/lufa.c ****         goto ERROR_EXIT;
 825:./tmk_core/protocol/lufa/lufa.c ****     }
 826:./tmk_core/protocol/lufa/lufa.c **** 
 827:./tmk_core/protocol/lufa/lufa.c ****     if (timeouted && !Endpoint_IsReadWriteAllowed()) {
 828:./tmk_core/protocol/lufa/lufa.c ****         goto ERROR_EXIT;
 829:./tmk_core/protocol/lufa/lufa.c ****     }
 830:./tmk_core/protocol/lufa/lufa.c **** 
 831:./tmk_core/protocol/lufa/lufa.c ****     timeouted = false;
 832:./tmk_core/protocol/lufa/lufa.c **** 
 833:./tmk_core/protocol/lufa/lufa.c ****     uint8_t timeout = SEND_TIMEOUT;
 834:./tmk_core/protocol/lufa/lufa.c ****     while (!Endpoint_IsReadWriteAllowed()) {
 835:./tmk_core/protocol/lufa/lufa.c ****         if (USB_DeviceState != DEVICE_STATE_Configured) {
 836:./tmk_core/protocol/lufa/lufa.c ****             goto ERROR_EXIT;
 837:./tmk_core/protocol/lufa/lufa.c ****         }
 838:./tmk_core/protocol/lufa/lufa.c ****         if (Endpoint_IsStalled()) {
 839:./tmk_core/protocol/lufa/lufa.c ****             goto ERROR_EXIT;
 840:./tmk_core/protocol/lufa/lufa.c ****         }
 841:./tmk_core/protocol/lufa/lufa.c ****         if (!(timeout--)) {
 842:./tmk_core/protocol/lufa/lufa.c ****             timeouted = true;
 843:./tmk_core/protocol/lufa/lufa.c ****             goto ERROR_EXIT;
 844:./tmk_core/protocol/lufa/lufa.c ****         }
 845:./tmk_core/protocol/lufa/lufa.c ****         _delay_ms(1);
 846:./tmk_core/protocol/lufa/lufa.c ****     }
 847:./tmk_core/protocol/lufa/lufa.c **** 
 848:./tmk_core/protocol/lufa/lufa.c ****     Endpoint_Write_8(c);
 849:./tmk_core/protocol/lufa/lufa.c **** 
 850:./tmk_core/protocol/lufa/lufa.c ****     // send when bank is full
 851:./tmk_core/protocol/lufa/lufa.c ****     if (!Endpoint_IsReadWriteAllowed()) {
 852:./tmk_core/protocol/lufa/lufa.c ****         while (!(Endpoint_IsINReady()));
 853:./tmk_core/protocol/lufa/lufa.c ****         Endpoint_ClearIN();
 854:./tmk_core/protocol/lufa/lufa.c ****     } else {
 855:./tmk_core/protocol/lufa/lufa.c ****         CONSOLE_FLUSH_SET(true);
 856:./tmk_core/protocol/lufa/lufa.c ****     }
 857:./tmk_core/protocol/lufa/lufa.c **** 
 858:./tmk_core/protocol/lufa/lufa.c ****     Endpoint_SelectEndpoint(ep);
 859:./tmk_core/protocol/lufa/lufa.c ****     return 0;
 860:./tmk_core/protocol/lufa/lufa.c **** ERROR_EXIT:
 861:./tmk_core/protocol/lufa/lufa.c ****     Endpoint_SelectEndpoint(ep);
 862:./tmk_core/protocol/lufa/lufa.c ****     return -1;
 863:./tmk_core/protocol/lufa/lufa.c **** }
 864:./tmk_core/protocol/lufa/lufa.c **** #else
 865:./tmk_core/protocol/lufa/lufa.c **** int8_t sendchar(uint8_t c)
 866:./tmk_core/protocol/lufa/lufa.c **** {
 1097               		.loc 1 866 0
 1098               		.cfi_startproc
 1099               	.LVL73:
 1100               	/* prologue: function */
 1101               	/* frame size = 0 */
 1102               	/* stack size = 0 */
 1103               	.L__stack_usage = 0
 867:./tmk_core/protocol/lufa/lufa.c ****     return 0;
 868:./tmk_core/protocol/lufa/lufa.c **** }
 1104               		.loc 1 868 0
 1105 0000 80E0      		ldi r24,0
 1106               	.LVL74:
 1107               	/* epilogue start */
 1108 0002 0895      		ret
 1109               		.cfi_endproc
 1110               	.LFE143:
 1112               		.section	.text.startup.main,"ax",@progbits
 1113               		.weak	main
 1115               	main:
 1116               	.LFB146:
 869:./tmk_core/protocol/lufa/lufa.c **** #endif
 870:./tmk_core/protocol/lufa/lufa.c **** 
 871:./tmk_core/protocol/lufa/lufa.c **** /*******************************************************************************
 872:./tmk_core/protocol/lufa/lufa.c ****  * MIDI
 873:./tmk_core/protocol/lufa/lufa.c ****  ******************************************************************************/
 874:./tmk_core/protocol/lufa/lufa.c **** 
 875:./tmk_core/protocol/lufa/lufa.c **** #ifdef MIDI_ENABLE
 876:./tmk_core/protocol/lufa/lufa.c **** USB_ClassInfo_MIDI_Device_t USB_MIDI_Interface =
 877:./tmk_core/protocol/lufa/lufa.c **** {
 878:./tmk_core/protocol/lufa/lufa.c ****   .Config =
 879:./tmk_core/protocol/lufa/lufa.c ****   {
 880:./tmk_core/protocol/lufa/lufa.c ****     .StreamingInterfaceNumber = AS_INTERFACE,
 881:./tmk_core/protocol/lufa/lufa.c ****     .DataINEndpoint           =
 882:./tmk_core/protocol/lufa/lufa.c ****     {
 883:./tmk_core/protocol/lufa/lufa.c ****       .Address          = MIDI_STREAM_IN_EPADDR,
 884:./tmk_core/protocol/lufa/lufa.c ****       .Size             = MIDI_STREAM_EPSIZE,
 885:./tmk_core/protocol/lufa/lufa.c ****       .Banks            = 1,
 886:./tmk_core/protocol/lufa/lufa.c ****     },
 887:./tmk_core/protocol/lufa/lufa.c ****     .DataOUTEndpoint          =
 888:./tmk_core/protocol/lufa/lufa.c ****     {
 889:./tmk_core/protocol/lufa/lufa.c ****       .Address          = MIDI_STREAM_OUT_EPADDR,
 890:./tmk_core/protocol/lufa/lufa.c ****       .Size             = MIDI_STREAM_EPSIZE,
 891:./tmk_core/protocol/lufa/lufa.c ****       .Banks            = 1,
 892:./tmk_core/protocol/lufa/lufa.c ****     },
 893:./tmk_core/protocol/lufa/lufa.c ****   },
 894:./tmk_core/protocol/lufa/lufa.c **** };
 895:./tmk_core/protocol/lufa/lufa.c **** 
 896:./tmk_core/protocol/lufa/lufa.c **** void send_midi_packet(MIDI_EventPacket_t* event) {
 897:./tmk_core/protocol/lufa/lufa.c ****   MIDI_Device_SendEventPacket(&USB_MIDI_Interface, event);
 898:./tmk_core/protocol/lufa/lufa.c **** }
 899:./tmk_core/protocol/lufa/lufa.c **** 
 900:./tmk_core/protocol/lufa/lufa.c **** bool recv_midi_packet(MIDI_EventPacket_t* const event) {
 901:./tmk_core/protocol/lufa/lufa.c ****   return MIDI_Device_ReceiveEventPacket(&USB_MIDI_Interface, event);
 902:./tmk_core/protocol/lufa/lufa.c **** }
 903:./tmk_core/protocol/lufa/lufa.c **** 
 904:./tmk_core/protocol/lufa/lufa.c **** #endif
 905:./tmk_core/protocol/lufa/lufa.c **** 
 906:./tmk_core/protocol/lufa/lufa.c **** /*******************************************************************************
 907:./tmk_core/protocol/lufa/lufa.c ****  * VIRTUAL SERIAL
 908:./tmk_core/protocol/lufa/lufa.c ****  ******************************************************************************/
 909:./tmk_core/protocol/lufa/lufa.c **** 
 910:./tmk_core/protocol/lufa/lufa.c **** #ifdef VIRTSER_ENABLE
 911:./tmk_core/protocol/lufa/lufa.c **** /** \brief Virtual Serial Init
 912:./tmk_core/protocol/lufa/lufa.c ****  *
 913:./tmk_core/protocol/lufa/lufa.c ****  * FIXME: Needs doc
 914:./tmk_core/protocol/lufa/lufa.c ****  */
 915:./tmk_core/protocol/lufa/lufa.c **** void virtser_init(void)
 916:./tmk_core/protocol/lufa/lufa.c **** {
 917:./tmk_core/protocol/lufa/lufa.c ****   cdc_device.State.ControlLineStates.DeviceToHost = CDC_CONTROL_LINE_IN_DSR ;
 918:./tmk_core/protocol/lufa/lufa.c ****   CDC_Device_SendControlLineStateChange(&cdc_device);
 919:./tmk_core/protocol/lufa/lufa.c **** }
 920:./tmk_core/protocol/lufa/lufa.c **** 
 921:./tmk_core/protocol/lufa/lufa.c **** /** \brief Virtual Serial Receive
 922:./tmk_core/protocol/lufa/lufa.c ****  *
 923:./tmk_core/protocol/lufa/lufa.c ****  * FIXME: Needs doc
 924:./tmk_core/protocol/lufa/lufa.c ****  */
 925:./tmk_core/protocol/lufa/lufa.c **** void virtser_recv(uint8_t c) __attribute__ ((weak));
 926:./tmk_core/protocol/lufa/lufa.c **** void virtser_recv(uint8_t c)
 927:./tmk_core/protocol/lufa/lufa.c **** {
 928:./tmk_core/protocol/lufa/lufa.c ****   // Ignore by default
 929:./tmk_core/protocol/lufa/lufa.c **** }
 930:./tmk_core/protocol/lufa/lufa.c **** 
 931:./tmk_core/protocol/lufa/lufa.c **** /** \brief Virtual Serial Task
 932:./tmk_core/protocol/lufa/lufa.c ****  *
 933:./tmk_core/protocol/lufa/lufa.c ****  * FIXME: Needs doc
 934:./tmk_core/protocol/lufa/lufa.c ****  */
 935:./tmk_core/protocol/lufa/lufa.c **** void virtser_task(void)
 936:./tmk_core/protocol/lufa/lufa.c **** {
 937:./tmk_core/protocol/lufa/lufa.c ****   uint16_t count = CDC_Device_BytesReceived(&cdc_device);
 938:./tmk_core/protocol/lufa/lufa.c ****   uint8_t ch;
 939:./tmk_core/protocol/lufa/lufa.c ****   if (count)
 940:./tmk_core/protocol/lufa/lufa.c ****   {
 941:./tmk_core/protocol/lufa/lufa.c ****     ch = CDC_Device_ReceiveByte(&cdc_device);
 942:./tmk_core/protocol/lufa/lufa.c ****     virtser_recv(ch);
 943:./tmk_core/protocol/lufa/lufa.c ****   }
 944:./tmk_core/protocol/lufa/lufa.c **** }
 945:./tmk_core/protocol/lufa/lufa.c **** /** \brief Virtual Serial Send
 946:./tmk_core/protocol/lufa/lufa.c ****  *
 947:./tmk_core/protocol/lufa/lufa.c ****  * FIXME: Needs doc
 948:./tmk_core/protocol/lufa/lufa.c ****  */
 949:./tmk_core/protocol/lufa/lufa.c **** void virtser_send(const uint8_t byte)
 950:./tmk_core/protocol/lufa/lufa.c **** {
 951:./tmk_core/protocol/lufa/lufa.c ****   uint8_t timeout = 255;
 952:./tmk_core/protocol/lufa/lufa.c ****   uint8_t ep = Endpoint_GetCurrentEndpoint();
 953:./tmk_core/protocol/lufa/lufa.c **** 
 954:./tmk_core/protocol/lufa/lufa.c ****   if (cdc_device.State.ControlLineStates.HostToDevice & CDC_CONTROL_LINE_OUT_DTR)
 955:./tmk_core/protocol/lufa/lufa.c ****   {
 956:./tmk_core/protocol/lufa/lufa.c ****     /* IN packet */
 957:./tmk_core/protocol/lufa/lufa.c ****     Endpoint_SelectEndpoint(cdc_device.Config.DataINEndpoint.Address);
 958:./tmk_core/protocol/lufa/lufa.c **** 
 959:./tmk_core/protocol/lufa/lufa.c ****     if (!Endpoint_IsEnabled() || !Endpoint_IsConfigured()) {
 960:./tmk_core/protocol/lufa/lufa.c ****         Endpoint_SelectEndpoint(ep);
 961:./tmk_core/protocol/lufa/lufa.c ****         return;
 962:./tmk_core/protocol/lufa/lufa.c ****     }
 963:./tmk_core/protocol/lufa/lufa.c **** 
 964:./tmk_core/protocol/lufa/lufa.c ****     while (timeout-- && !Endpoint_IsReadWriteAllowed()) _delay_us(40);
 965:./tmk_core/protocol/lufa/lufa.c **** 
 966:./tmk_core/protocol/lufa/lufa.c ****     Endpoint_Write_8(byte);
 967:./tmk_core/protocol/lufa/lufa.c ****     CDC_Device_Flush(&cdc_device);
 968:./tmk_core/protocol/lufa/lufa.c **** 
 969:./tmk_core/protocol/lufa/lufa.c ****     if (Endpoint_IsINReady()) {
 970:./tmk_core/protocol/lufa/lufa.c ****       Endpoint_ClearIN();
 971:./tmk_core/protocol/lufa/lufa.c ****     }
 972:./tmk_core/protocol/lufa/lufa.c **** 
 973:./tmk_core/protocol/lufa/lufa.c ****     Endpoint_SelectEndpoint(ep);
 974:./tmk_core/protocol/lufa/lufa.c ****   }
 975:./tmk_core/protocol/lufa/lufa.c **** }
 976:./tmk_core/protocol/lufa/lufa.c **** #endif
 977:./tmk_core/protocol/lufa/lufa.c **** 
 978:./tmk_core/protocol/lufa/lufa.c **** /*******************************************************************************
 979:./tmk_core/protocol/lufa/lufa.c ****  * main
 980:./tmk_core/protocol/lufa/lufa.c ****  ******************************************************************************/
 981:./tmk_core/protocol/lufa/lufa.c **** /** \brief Setup MCU
 982:./tmk_core/protocol/lufa/lufa.c ****  *
 983:./tmk_core/protocol/lufa/lufa.c ****  * FIXME: Needs doc
 984:./tmk_core/protocol/lufa/lufa.c ****  */
 985:./tmk_core/protocol/lufa/lufa.c **** static void setup_mcu(void)
 986:./tmk_core/protocol/lufa/lufa.c **** {
 987:./tmk_core/protocol/lufa/lufa.c ****     /* Disable watchdog if enabled by bootloader/fuses */
 988:./tmk_core/protocol/lufa/lufa.c ****     MCUSR &= ~(1 << WDRF);
 989:./tmk_core/protocol/lufa/lufa.c ****     wdt_disable();
 990:./tmk_core/protocol/lufa/lufa.c **** 
 991:./tmk_core/protocol/lufa/lufa.c ****     /* Disable clock division */
 992:./tmk_core/protocol/lufa/lufa.c ****     // clock_prescale_set(clock_div_1);
 993:./tmk_core/protocol/lufa/lufa.c **** 
 994:./tmk_core/protocol/lufa/lufa.c ****     CLKPR = (1 << CLKPCE);
 995:./tmk_core/protocol/lufa/lufa.c ****     CLKPR = (0 << CLKPS3) | (0 << CLKPS2) | (0 << CLKPS1) | (0 << CLKPS0);
 996:./tmk_core/protocol/lufa/lufa.c **** }
 997:./tmk_core/protocol/lufa/lufa.c **** 
 998:./tmk_core/protocol/lufa/lufa.c **** /** \brief Setup USB
 999:./tmk_core/protocol/lufa/lufa.c ****  *
1000:./tmk_core/protocol/lufa/lufa.c ****  * FIXME: Needs doc
1001:./tmk_core/protocol/lufa/lufa.c ****  */
1002:./tmk_core/protocol/lufa/lufa.c **** static void setup_usb(void)
1003:./tmk_core/protocol/lufa/lufa.c **** {
1004:./tmk_core/protocol/lufa/lufa.c ****     // Leonardo needs. Without this USB device is not recognized.
1005:./tmk_core/protocol/lufa/lufa.c ****     USB_Disable();
1006:./tmk_core/protocol/lufa/lufa.c **** 
1007:./tmk_core/protocol/lufa/lufa.c ****     USB_Init();
1008:./tmk_core/protocol/lufa/lufa.c **** 
1009:./tmk_core/protocol/lufa/lufa.c ****     // for Console_Task
1010:./tmk_core/protocol/lufa/lufa.c ****     USB_Device_EnableSOFEvents();
1011:./tmk_core/protocol/lufa/lufa.c ****     print_set_sendchar(sendchar);
1012:./tmk_core/protocol/lufa/lufa.c **** }
1013:./tmk_core/protocol/lufa/lufa.c **** 
1014:./tmk_core/protocol/lufa/lufa.c **** /** \brief Main
1015:./tmk_core/protocol/lufa/lufa.c ****  *
1016:./tmk_core/protocol/lufa/lufa.c ****  * FIXME: Needs doc
1017:./tmk_core/protocol/lufa/lufa.c ****  */
1018:./tmk_core/protocol/lufa/lufa.c **** int main(void)  __attribute__ ((weak));
1019:./tmk_core/protocol/lufa/lufa.c **** int main(void)
1020:./tmk_core/protocol/lufa/lufa.c **** {
 1117               		.loc 1 1020 0
 1118               		.cfi_startproc
 1119               	/* prologue: function */
 1120               	/* frame size = 0 */
 1121               	/* stack size = 0 */
 1122               	.L__stack_usage = 0
 1123               	.LBB189:
 1124               	.LBB190:
 988:./tmk_core/protocol/lufa/lufa.c ****     wdt_disable();
 1125               		.loc 1 988 0
 1126 0000 84B7      		in r24,0x34
 1127 0002 877F      		andi r24,lo8(-9)
 1128 0004 84BF      		out 0x34,r24
 1129               	.LBB191:
 1130               	.LBB192:
 1131               		.file 6 "/usr/local/Cellar/avr-gcc@7/7.3.0/avr/include/avr/wdt.h"
   1:/usr/local/Cellar/avr-gcc@7/7.3.0/avr/include/avr/wdt.h **** /* Copyright (c) 2002, 2004 Marek Michalkiewicz
   2:/usr/local/Cellar/avr-gcc@7/7.3.0/avr/include/avr/wdt.h ****    Copyright (c) 2005, 2006, 2007 Eric B. Weddington
   3:/usr/local/Cellar/avr-gcc@7/7.3.0/avr/include/avr/wdt.h ****    All rights reserved.
   4:/usr/local/Cellar/avr-gcc@7/7.3.0/avr/include/avr/wdt.h **** 
   5:/usr/local/Cellar/avr-gcc@7/7.3.0/avr/include/avr/wdt.h ****    Redistribution and use in source and binary forms, with or without
   6:/usr/local/Cellar/avr-gcc@7/7.3.0/avr/include/avr/wdt.h ****    modification, are permitted provided that the following conditions are met:
   7:/usr/local/Cellar/avr-gcc@7/7.3.0/avr/include/avr/wdt.h **** 
   8:/usr/local/Cellar/avr-gcc@7/7.3.0/avr/include/avr/wdt.h ****    * Redistributions of source code must retain the above copyright
   9:/usr/local/Cellar/avr-gcc@7/7.3.0/avr/include/avr/wdt.h ****      notice, this list of conditions and the following disclaimer.
  10:/usr/local/Cellar/avr-gcc@7/7.3.0/avr/include/avr/wdt.h **** 
  11:/usr/local/Cellar/avr-gcc@7/7.3.0/avr/include/avr/wdt.h ****    * Redistributions in binary form must reproduce the above copyright
  12:/usr/local/Cellar/avr-gcc@7/7.3.0/avr/include/avr/wdt.h ****      notice, this list of conditions and the following disclaimer in
  13:/usr/local/Cellar/avr-gcc@7/7.3.0/avr/include/avr/wdt.h ****      the documentation and/or other materials provided with the
  14:/usr/local/Cellar/avr-gcc@7/7.3.0/avr/include/avr/wdt.h ****      distribution.
  15:/usr/local/Cellar/avr-gcc@7/7.3.0/avr/include/avr/wdt.h **** 
  16:/usr/local/Cellar/avr-gcc@7/7.3.0/avr/include/avr/wdt.h ****    * Neither the name of the copyright holders nor the names of
  17:/usr/local/Cellar/avr-gcc@7/7.3.0/avr/include/avr/wdt.h ****      contributors may be used to endorse or promote products derived
  18:/usr/local/Cellar/avr-gcc@7/7.3.0/avr/include/avr/wdt.h ****      from this software without specific prior written permission.
  19:/usr/local/Cellar/avr-gcc@7/7.3.0/avr/include/avr/wdt.h **** 
  20:/usr/local/Cellar/avr-gcc@7/7.3.0/avr/include/avr/wdt.h ****   THIS SOFTWARE IS PROVIDED BY THE COPYRIGHT HOLDERS AND CONTRIBUTORS "AS IS"
  21:/usr/local/Cellar/avr-gcc@7/7.3.0/avr/include/avr/wdt.h ****   AND ANY EXPRESS OR IMPLIED WARRANTIES, INCLUDING, BUT NOT LIMITED TO, THE
  22:/usr/local/Cellar/avr-gcc@7/7.3.0/avr/include/avr/wdt.h ****   IMPLIED WARRANTIES OF MERCHANTABILITY AND FITNESS FOR A PARTICULAR PURPOSE
  23:/usr/local/Cellar/avr-gcc@7/7.3.0/avr/include/avr/wdt.h ****   ARE DISCLAIMED. IN NO EVENT SHALL THE COPYRIGHT OWNER OR CONTRIBUTORS BE
  24:/usr/local/Cellar/avr-gcc@7/7.3.0/avr/include/avr/wdt.h ****   LIABLE FOR ANY DIRECT, INDIRECT, INCIDENTAL, SPECIAL, EXEMPLARY, OR
  25:/usr/local/Cellar/avr-gcc@7/7.3.0/avr/include/avr/wdt.h ****   CONSEQUENTIAL DAMAGES (INCLUDING, BUT NOT LIMITED TO, PROCUREMENT OF
  26:/usr/local/Cellar/avr-gcc@7/7.3.0/avr/include/avr/wdt.h ****   SUBSTITUTE GOODS OR SERVICES; LOSS OF USE, DATA, OR PROFITS; OR BUSINESS
  27:/usr/local/Cellar/avr-gcc@7/7.3.0/avr/include/avr/wdt.h ****   INTERRUPTION) HOWEVER CAUSED AND ON ANY THEORY OF LIABILITY, WHETHER IN
  28:/usr/local/Cellar/avr-gcc@7/7.3.0/avr/include/avr/wdt.h ****   CONTRACT, STRICT LIABILITY, OR TORT (INCLUDING NEGLIGENCE OR OTHERWISE)
  29:/usr/local/Cellar/avr-gcc@7/7.3.0/avr/include/avr/wdt.h ****   ARISING IN ANY WAY OUT OF THE USE OF THIS SOFTWARE, EVEN IF ADVISED OF THE
  30:/usr/local/Cellar/avr-gcc@7/7.3.0/avr/include/avr/wdt.h ****   POSSIBILITY OF SUCH DAMAGE. */
  31:/usr/local/Cellar/avr-gcc@7/7.3.0/avr/include/avr/wdt.h **** 
  32:/usr/local/Cellar/avr-gcc@7/7.3.0/avr/include/avr/wdt.h **** /* $Id: wdt.h 2503 2016-02-07 22:59:47Z joerg_wunsch $ */
  33:/usr/local/Cellar/avr-gcc@7/7.3.0/avr/include/avr/wdt.h **** 
  34:/usr/local/Cellar/avr-gcc@7/7.3.0/avr/include/avr/wdt.h **** /*
  35:/usr/local/Cellar/avr-gcc@7/7.3.0/avr/include/avr/wdt.h ****    avr/wdt.h - macros for AVR watchdog timer
  36:/usr/local/Cellar/avr-gcc@7/7.3.0/avr/include/avr/wdt.h ****  */
  37:/usr/local/Cellar/avr-gcc@7/7.3.0/avr/include/avr/wdt.h **** 
  38:/usr/local/Cellar/avr-gcc@7/7.3.0/avr/include/avr/wdt.h **** #ifndef _AVR_WDT_H_
  39:/usr/local/Cellar/avr-gcc@7/7.3.0/avr/include/avr/wdt.h **** #define _AVR_WDT_H_
  40:/usr/local/Cellar/avr-gcc@7/7.3.0/avr/include/avr/wdt.h **** 
  41:/usr/local/Cellar/avr-gcc@7/7.3.0/avr/include/avr/wdt.h **** #include <avr/io.h>
  42:/usr/local/Cellar/avr-gcc@7/7.3.0/avr/include/avr/wdt.h **** #include <stdint.h>
  43:/usr/local/Cellar/avr-gcc@7/7.3.0/avr/include/avr/wdt.h **** 
  44:/usr/local/Cellar/avr-gcc@7/7.3.0/avr/include/avr/wdt.h **** /** \file */
  45:/usr/local/Cellar/avr-gcc@7/7.3.0/avr/include/avr/wdt.h **** /** \defgroup avr_watchdog <avr/wdt.h>: Watchdog timer handling
  46:/usr/local/Cellar/avr-gcc@7/7.3.0/avr/include/avr/wdt.h ****     \code #include <avr/wdt.h> \endcode
  47:/usr/local/Cellar/avr-gcc@7/7.3.0/avr/include/avr/wdt.h **** 
  48:/usr/local/Cellar/avr-gcc@7/7.3.0/avr/include/avr/wdt.h ****     This header file declares the interface to some inline macros
  49:/usr/local/Cellar/avr-gcc@7/7.3.0/avr/include/avr/wdt.h ****     handling the watchdog timer present in many AVR devices.  In order
  50:/usr/local/Cellar/avr-gcc@7/7.3.0/avr/include/avr/wdt.h ****     to prevent the watchdog timer configuration from being
  51:/usr/local/Cellar/avr-gcc@7/7.3.0/avr/include/avr/wdt.h ****     accidentally altered by a crashing application, a special timed
  52:/usr/local/Cellar/avr-gcc@7/7.3.0/avr/include/avr/wdt.h ****     sequence is required in order to change it.  The macros within
  53:/usr/local/Cellar/avr-gcc@7/7.3.0/avr/include/avr/wdt.h ****     this header file handle the required sequence automatically
  54:/usr/local/Cellar/avr-gcc@7/7.3.0/avr/include/avr/wdt.h ****     before changing any value.  Interrupts will be disabled during
  55:/usr/local/Cellar/avr-gcc@7/7.3.0/avr/include/avr/wdt.h ****     the manipulation.
  56:/usr/local/Cellar/avr-gcc@7/7.3.0/avr/include/avr/wdt.h **** 
  57:/usr/local/Cellar/avr-gcc@7/7.3.0/avr/include/avr/wdt.h ****     \note Depending on the fuse configuration of the particular
  58:/usr/local/Cellar/avr-gcc@7/7.3.0/avr/include/avr/wdt.h ****     device, further restrictions might apply, in particular it might
  59:/usr/local/Cellar/avr-gcc@7/7.3.0/avr/include/avr/wdt.h ****     be disallowed to turn off the watchdog timer.
  60:/usr/local/Cellar/avr-gcc@7/7.3.0/avr/include/avr/wdt.h **** 
  61:/usr/local/Cellar/avr-gcc@7/7.3.0/avr/include/avr/wdt.h ****     Note that for newer devices (ATmega88 and newer, effectively any
  62:/usr/local/Cellar/avr-gcc@7/7.3.0/avr/include/avr/wdt.h ****     AVR that has the option to also generate interrupts), the watchdog
  63:/usr/local/Cellar/avr-gcc@7/7.3.0/avr/include/avr/wdt.h ****     timer remains active even after a system reset (except a power-on
  64:/usr/local/Cellar/avr-gcc@7/7.3.0/avr/include/avr/wdt.h ****     condition), using the fastest prescaler value (approximately 15
  65:/usr/local/Cellar/avr-gcc@7/7.3.0/avr/include/avr/wdt.h ****     ms).  It is therefore required to turn off the watchdog early
  66:/usr/local/Cellar/avr-gcc@7/7.3.0/avr/include/avr/wdt.h ****     during program startup, the datasheet recommends a sequence like
  67:/usr/local/Cellar/avr-gcc@7/7.3.0/avr/include/avr/wdt.h ****     the following:
  68:/usr/local/Cellar/avr-gcc@7/7.3.0/avr/include/avr/wdt.h **** 
  69:/usr/local/Cellar/avr-gcc@7/7.3.0/avr/include/avr/wdt.h ****     \code
  70:/usr/local/Cellar/avr-gcc@7/7.3.0/avr/include/avr/wdt.h ****     #include <stdint.h>
  71:/usr/local/Cellar/avr-gcc@7/7.3.0/avr/include/avr/wdt.h ****     #include <avr/wdt.h>
  72:/usr/local/Cellar/avr-gcc@7/7.3.0/avr/include/avr/wdt.h **** 
  73:/usr/local/Cellar/avr-gcc@7/7.3.0/avr/include/avr/wdt.h ****     uint8_t mcusr_mirror __attribute__ ((section (".noinit")));
  74:/usr/local/Cellar/avr-gcc@7/7.3.0/avr/include/avr/wdt.h **** 
  75:/usr/local/Cellar/avr-gcc@7/7.3.0/avr/include/avr/wdt.h ****     void get_mcusr(void) \
  76:/usr/local/Cellar/avr-gcc@7/7.3.0/avr/include/avr/wdt.h ****       __attribute__((naked)) \
  77:/usr/local/Cellar/avr-gcc@7/7.3.0/avr/include/avr/wdt.h ****       __attribute__((section(".init3")));
  78:/usr/local/Cellar/avr-gcc@7/7.3.0/avr/include/avr/wdt.h ****     void get_mcusr(void)
  79:/usr/local/Cellar/avr-gcc@7/7.3.0/avr/include/avr/wdt.h ****     {
  80:/usr/local/Cellar/avr-gcc@7/7.3.0/avr/include/avr/wdt.h ****       mcusr_mirror = MCUSR;
  81:/usr/local/Cellar/avr-gcc@7/7.3.0/avr/include/avr/wdt.h ****       MCUSR = 0;
  82:/usr/local/Cellar/avr-gcc@7/7.3.0/avr/include/avr/wdt.h ****       wdt_disable();
  83:/usr/local/Cellar/avr-gcc@7/7.3.0/avr/include/avr/wdt.h ****     }
  84:/usr/local/Cellar/avr-gcc@7/7.3.0/avr/include/avr/wdt.h ****     \endcode
  85:/usr/local/Cellar/avr-gcc@7/7.3.0/avr/include/avr/wdt.h **** 
  86:/usr/local/Cellar/avr-gcc@7/7.3.0/avr/include/avr/wdt.h ****     Saving the value of MCUSR in \c mcusr_mirror is only needed if the
  87:/usr/local/Cellar/avr-gcc@7/7.3.0/avr/include/avr/wdt.h ****     application later wants to examine the reset source, but in particular, 
  88:/usr/local/Cellar/avr-gcc@7/7.3.0/avr/include/avr/wdt.h ****     clearing the watchdog reset flag before disabling the
  89:/usr/local/Cellar/avr-gcc@7/7.3.0/avr/include/avr/wdt.h ****     watchdog is required, according to the datasheet.
  90:/usr/local/Cellar/avr-gcc@7/7.3.0/avr/include/avr/wdt.h **** */
  91:/usr/local/Cellar/avr-gcc@7/7.3.0/avr/include/avr/wdt.h **** 
  92:/usr/local/Cellar/avr-gcc@7/7.3.0/avr/include/avr/wdt.h **** /**
  93:/usr/local/Cellar/avr-gcc@7/7.3.0/avr/include/avr/wdt.h ****    \ingroup avr_watchdog
  94:/usr/local/Cellar/avr-gcc@7/7.3.0/avr/include/avr/wdt.h ****    Reset the watchdog timer.  When the watchdog timer is enabled,
  95:/usr/local/Cellar/avr-gcc@7/7.3.0/avr/include/avr/wdt.h ****    a call to this instruction is required before the timer expires,
  96:/usr/local/Cellar/avr-gcc@7/7.3.0/avr/include/avr/wdt.h ****    otherwise a watchdog-initiated device reset will occur. 
  97:/usr/local/Cellar/avr-gcc@7/7.3.0/avr/include/avr/wdt.h **** */
  98:/usr/local/Cellar/avr-gcc@7/7.3.0/avr/include/avr/wdt.h **** 
  99:/usr/local/Cellar/avr-gcc@7/7.3.0/avr/include/avr/wdt.h **** #define wdt_reset() __asm__ __volatile__ ("wdr")
 100:/usr/local/Cellar/avr-gcc@7/7.3.0/avr/include/avr/wdt.h **** 
 101:/usr/local/Cellar/avr-gcc@7/7.3.0/avr/include/avr/wdt.h **** #ifndef __DOXYGEN__
 102:/usr/local/Cellar/avr-gcc@7/7.3.0/avr/include/avr/wdt.h **** 
 103:/usr/local/Cellar/avr-gcc@7/7.3.0/avr/include/avr/wdt.h **** #if defined(WDP3)
 104:/usr/local/Cellar/avr-gcc@7/7.3.0/avr/include/avr/wdt.h **** # define _WD_PS3_MASK       _BV(WDP3)
 105:/usr/local/Cellar/avr-gcc@7/7.3.0/avr/include/avr/wdt.h **** #else
 106:/usr/local/Cellar/avr-gcc@7/7.3.0/avr/include/avr/wdt.h **** # define _WD_PS3_MASK       0x00
 107:/usr/local/Cellar/avr-gcc@7/7.3.0/avr/include/avr/wdt.h **** #endif
 108:/usr/local/Cellar/avr-gcc@7/7.3.0/avr/include/avr/wdt.h **** 
 109:/usr/local/Cellar/avr-gcc@7/7.3.0/avr/include/avr/wdt.h **** #if defined(WDTCSR)
 110:/usr/local/Cellar/avr-gcc@7/7.3.0/avr/include/avr/wdt.h **** #  define _WD_CONTROL_REG     WDTCSR
 111:/usr/local/Cellar/avr-gcc@7/7.3.0/avr/include/avr/wdt.h **** #elif defined(WDTCR)
 112:/usr/local/Cellar/avr-gcc@7/7.3.0/avr/include/avr/wdt.h **** #  define _WD_CONTROL_REG     WDTCR
 113:/usr/local/Cellar/avr-gcc@7/7.3.0/avr/include/avr/wdt.h **** #else
 114:/usr/local/Cellar/avr-gcc@7/7.3.0/avr/include/avr/wdt.h **** #  define _WD_CONTROL_REG     WDT
 115:/usr/local/Cellar/avr-gcc@7/7.3.0/avr/include/avr/wdt.h **** #endif
 116:/usr/local/Cellar/avr-gcc@7/7.3.0/avr/include/avr/wdt.h **** 
 117:/usr/local/Cellar/avr-gcc@7/7.3.0/avr/include/avr/wdt.h **** #if defined(WDTOE)
 118:/usr/local/Cellar/avr-gcc@7/7.3.0/avr/include/avr/wdt.h **** #define _WD_CHANGE_BIT      WDTOE
 119:/usr/local/Cellar/avr-gcc@7/7.3.0/avr/include/avr/wdt.h **** #else
 120:/usr/local/Cellar/avr-gcc@7/7.3.0/avr/include/avr/wdt.h **** #define _WD_CHANGE_BIT      WDCE
 121:/usr/local/Cellar/avr-gcc@7/7.3.0/avr/include/avr/wdt.h **** #endif
 122:/usr/local/Cellar/avr-gcc@7/7.3.0/avr/include/avr/wdt.h **** 
 123:/usr/local/Cellar/avr-gcc@7/7.3.0/avr/include/avr/wdt.h **** #endif	/* !__DOXYGEN__ */
 124:/usr/local/Cellar/avr-gcc@7/7.3.0/avr/include/avr/wdt.h **** 
 125:/usr/local/Cellar/avr-gcc@7/7.3.0/avr/include/avr/wdt.h **** 
 126:/usr/local/Cellar/avr-gcc@7/7.3.0/avr/include/avr/wdt.h **** /**
 127:/usr/local/Cellar/avr-gcc@7/7.3.0/avr/include/avr/wdt.h ****    \ingroup avr_watchdog
 128:/usr/local/Cellar/avr-gcc@7/7.3.0/avr/include/avr/wdt.h ****    Enable the watchdog timer, configuring it for expiry after
 129:/usr/local/Cellar/avr-gcc@7/7.3.0/avr/include/avr/wdt.h ****    \c timeout (which is a combination of the \c WDP0 through
 130:/usr/local/Cellar/avr-gcc@7/7.3.0/avr/include/avr/wdt.h ****    \c WDP2 bits to write into the \c WDTCR register; For those devices 
 131:/usr/local/Cellar/avr-gcc@7/7.3.0/avr/include/avr/wdt.h ****    that have a \c WDTCSR register, it uses the combination of the \c WDP0 
 132:/usr/local/Cellar/avr-gcc@7/7.3.0/avr/include/avr/wdt.h ****    through \c WDP3 bits).
 133:/usr/local/Cellar/avr-gcc@7/7.3.0/avr/include/avr/wdt.h **** 
 134:/usr/local/Cellar/avr-gcc@7/7.3.0/avr/include/avr/wdt.h ****    See also the symbolic constants \c WDTO_15MS et al.
 135:/usr/local/Cellar/avr-gcc@7/7.3.0/avr/include/avr/wdt.h **** */
 136:/usr/local/Cellar/avr-gcc@7/7.3.0/avr/include/avr/wdt.h **** 
 137:/usr/local/Cellar/avr-gcc@7/7.3.0/avr/include/avr/wdt.h **** 
 138:/usr/local/Cellar/avr-gcc@7/7.3.0/avr/include/avr/wdt.h **** #if defined(__AVR_XMEGA__)
 139:/usr/local/Cellar/avr-gcc@7/7.3.0/avr/include/avr/wdt.h **** 
 140:/usr/local/Cellar/avr-gcc@7/7.3.0/avr/include/avr/wdt.h **** /*
 141:/usr/local/Cellar/avr-gcc@7/7.3.0/avr/include/avr/wdt.h ****    wdt_enable(timeout) for xmega devices
 142:/usr/local/Cellar/avr-gcc@7/7.3.0/avr/include/avr/wdt.h **** ** write signature (CCP_IOREG_gc) that enables change of protected I/O
 143:/usr/local/Cellar/avr-gcc@7/7.3.0/avr/include/avr/wdt.h ****    registers to the CCP register
 144:/usr/local/Cellar/avr-gcc@7/7.3.0/avr/include/avr/wdt.h **** ** At the same time,
 145:/usr/local/Cellar/avr-gcc@7/7.3.0/avr/include/avr/wdt.h ****    1) set WDT change enable (WDT_CEN_bm)
 146:/usr/local/Cellar/avr-gcc@7/7.3.0/avr/include/avr/wdt.h ****    2) enable WDT (WDT_ENABLE_bm)
 147:/usr/local/Cellar/avr-gcc@7/7.3.0/avr/include/avr/wdt.h ****    3) set timeout (timeout)
 148:/usr/local/Cellar/avr-gcc@7/7.3.0/avr/include/avr/wdt.h **** ** Synchronization starts when ENABLE bit of WDT is set. So, wait till it
 149:/usr/local/Cellar/avr-gcc@7/7.3.0/avr/include/avr/wdt.h ****    finishes (SYNCBUSY of STATUS register is automatically cleared after the
 150:/usr/local/Cellar/avr-gcc@7/7.3.0/avr/include/avr/wdt.h ****    sync is finished).
 151:/usr/local/Cellar/avr-gcc@7/7.3.0/avr/include/avr/wdt.h **** */
 152:/usr/local/Cellar/avr-gcc@7/7.3.0/avr/include/avr/wdt.h **** #define wdt_enable(timeout) \
 153:/usr/local/Cellar/avr-gcc@7/7.3.0/avr/include/avr/wdt.h **** do { \
 154:/usr/local/Cellar/avr-gcc@7/7.3.0/avr/include/avr/wdt.h **** uint8_t temp; \
 155:/usr/local/Cellar/avr-gcc@7/7.3.0/avr/include/avr/wdt.h **** __asm__ __volatile__ (         \
 156:/usr/local/Cellar/avr-gcc@7/7.3.0/avr/include/avr/wdt.h ****     "in __tmp_reg__, %[rampd]"              "\n\t" \
 157:/usr/local/Cellar/avr-gcc@7/7.3.0/avr/include/avr/wdt.h ****     "out %[rampd], __zero_reg__"            "\n\t" \
 158:/usr/local/Cellar/avr-gcc@7/7.3.0/avr/include/avr/wdt.h ****     "out %[ccp_reg], %[ioreg_cen_mask]"     "\n\t" \
 159:/usr/local/Cellar/avr-gcc@7/7.3.0/avr/include/avr/wdt.h ****     "sts %[wdt_reg], %[wdt_enable_timeout]" "\n\t" \
 160:/usr/local/Cellar/avr-gcc@7/7.3.0/avr/include/avr/wdt.h ****     "1:lds %[tmp], %[wdt_status_reg]"       "\n\t" \
 161:/usr/local/Cellar/avr-gcc@7/7.3.0/avr/include/avr/wdt.h ****     "sbrc %[tmp], %[wdt_syncbusy_bit]"      "\n\t" \
 162:/usr/local/Cellar/avr-gcc@7/7.3.0/avr/include/avr/wdt.h ****     "rjmp 1b"                               "\n\t" \
 163:/usr/local/Cellar/avr-gcc@7/7.3.0/avr/include/avr/wdt.h ****     "out %[rampd], __tmp_reg__"             "\n\t" \
 164:/usr/local/Cellar/avr-gcc@7/7.3.0/avr/include/avr/wdt.h ****     : [tmp]                "=r" (temp) \
 165:/usr/local/Cellar/avr-gcc@7/7.3.0/avr/include/avr/wdt.h ****     : [rampd]              "I" (_SFR_IO_ADDR(RAMPD)),      \
 166:/usr/local/Cellar/avr-gcc@7/7.3.0/avr/include/avr/wdt.h ****       [ccp_reg]            "I" (_SFR_IO_ADDR(CCP)),        \
 167:/usr/local/Cellar/avr-gcc@7/7.3.0/avr/include/avr/wdt.h ****       [ioreg_cen_mask]     "r" ((uint8_t)CCP_IOREG_gc),     \
 168:/usr/local/Cellar/avr-gcc@7/7.3.0/avr/include/avr/wdt.h ****       [wdt_reg]            "n" (_SFR_MEM_ADDR(WDT_CTRL)),   \
 169:/usr/local/Cellar/avr-gcc@7/7.3.0/avr/include/avr/wdt.h ****       [wdt_enable_timeout] "r" ((uint8_t)(WDT_CEN_bm | WDT_ENABLE_bm | timeout)), \
 170:/usr/local/Cellar/avr-gcc@7/7.3.0/avr/include/avr/wdt.h ****       [wdt_status_reg]     "n" (_SFR_MEM_ADDR(WDT_STATUS)), \
 171:/usr/local/Cellar/avr-gcc@7/7.3.0/avr/include/avr/wdt.h ****       [wdt_syncbusy_bit]   "I" (WDT_SYNCBUSY_bm)            \
 172:/usr/local/Cellar/avr-gcc@7/7.3.0/avr/include/avr/wdt.h ****     : "r0" \
 173:/usr/local/Cellar/avr-gcc@7/7.3.0/avr/include/avr/wdt.h **** ); \
 174:/usr/local/Cellar/avr-gcc@7/7.3.0/avr/include/avr/wdt.h **** } while(0)
 175:/usr/local/Cellar/avr-gcc@7/7.3.0/avr/include/avr/wdt.h **** 
 176:/usr/local/Cellar/avr-gcc@7/7.3.0/avr/include/avr/wdt.h **** #define wdt_disable() \
 177:/usr/local/Cellar/avr-gcc@7/7.3.0/avr/include/avr/wdt.h **** __asm__ __volatile__ (  \
 178:/usr/local/Cellar/avr-gcc@7/7.3.0/avr/include/avr/wdt.h ****     "in __tmp_reg__, %[rampd]"          "\n\t" \
 179:/usr/local/Cellar/avr-gcc@7/7.3.0/avr/include/avr/wdt.h ****     "out %[rampd], __zero_reg__"        "\n\t" \
 180:/usr/local/Cellar/avr-gcc@7/7.3.0/avr/include/avr/wdt.h ****     "out %[ccp_reg], %[ioreg_cen_mask]" "\n\t" \
 181:/usr/local/Cellar/avr-gcc@7/7.3.0/avr/include/avr/wdt.h ****     "sts %[wdt_reg], %[disable_mask]"   "\n\t" \
 182:/usr/local/Cellar/avr-gcc@7/7.3.0/avr/include/avr/wdt.h ****     "out %[rampd], __tmp_reg__"         "\n\t" \
 183:/usr/local/Cellar/avr-gcc@7/7.3.0/avr/include/avr/wdt.h ****     : \
 184:/usr/local/Cellar/avr-gcc@7/7.3.0/avr/include/avr/wdt.h ****     : [rampd]             "I" (_SFR_IO_ADDR(RAMPD)),    \
 185:/usr/local/Cellar/avr-gcc@7/7.3.0/avr/include/avr/wdt.h ****       [ccp_reg]           "I" (_SFR_IO_ADDR(CCP)),      \
 186:/usr/local/Cellar/avr-gcc@7/7.3.0/avr/include/avr/wdt.h ****       [ioreg_cen_mask]    "r" ((uint8_t)CCP_IOREG_gc),   \
 187:/usr/local/Cellar/avr-gcc@7/7.3.0/avr/include/avr/wdt.h ****       [wdt_reg]           "n" (_SFR_MEM_ADDR(WDT_CTRL)), \
 188:/usr/local/Cellar/avr-gcc@7/7.3.0/avr/include/avr/wdt.h ****       [disable_mask]      "r" ((uint8_t)((~WDT_ENABLE_bm) | WDT_CEN_bm)) \
 189:/usr/local/Cellar/avr-gcc@7/7.3.0/avr/include/avr/wdt.h ****     : "r0" \
 190:/usr/local/Cellar/avr-gcc@7/7.3.0/avr/include/avr/wdt.h **** );
 191:/usr/local/Cellar/avr-gcc@7/7.3.0/avr/include/avr/wdt.h **** 
 192:/usr/local/Cellar/avr-gcc@7/7.3.0/avr/include/avr/wdt.h **** #elif defined(__AVR_TINY__)
 193:/usr/local/Cellar/avr-gcc@7/7.3.0/avr/include/avr/wdt.h **** 
 194:/usr/local/Cellar/avr-gcc@7/7.3.0/avr/include/avr/wdt.h **** #define wdt_enable(value) \
 195:/usr/local/Cellar/avr-gcc@7/7.3.0/avr/include/avr/wdt.h **** __asm__ __volatile__ ( \
 196:/usr/local/Cellar/avr-gcc@7/7.3.0/avr/include/avr/wdt.h ****     "in __tmp_reg__,__SREG__" "\n\t"  \
 197:/usr/local/Cellar/avr-gcc@7/7.3.0/avr/include/avr/wdt.h ****     "cli" "\n\t"  \
 198:/usr/local/Cellar/avr-gcc@7/7.3.0/avr/include/avr/wdt.h ****     "wdr" "\n\t"  \
 199:/usr/local/Cellar/avr-gcc@7/7.3.0/avr/include/avr/wdt.h ****     "out %[CCPADDRESS],%[SIGNATURE]" "\n\t"  \
 200:/usr/local/Cellar/avr-gcc@7/7.3.0/avr/include/avr/wdt.h ****     "out %[WDTREG],%[WDVALUE]" "\n\t"  \
 201:/usr/local/Cellar/avr-gcc@7/7.3.0/avr/include/avr/wdt.h ****     "out __SREG__,__tmp_reg__" "\n\t"  \
 202:/usr/local/Cellar/avr-gcc@7/7.3.0/avr/include/avr/wdt.h ****     : /* no outputs */  \
 203:/usr/local/Cellar/avr-gcc@7/7.3.0/avr/include/avr/wdt.h ****     : [CCPADDRESS] "I" (_SFR_IO_ADDR(CCP)),  \
 204:/usr/local/Cellar/avr-gcc@7/7.3.0/avr/include/avr/wdt.h ****       [SIGNATURE] "r" ((uint8_t)0xD8), \
 205:/usr/local/Cellar/avr-gcc@7/7.3.0/avr/include/avr/wdt.h ****       [WDTREG] "I" (_SFR_IO_ADDR(_WD_CONTROL_REG)), \
 206:/usr/local/Cellar/avr-gcc@7/7.3.0/avr/include/avr/wdt.h ****       [WDVALUE] "r" ((uint8_t)((value & 0x08 ? _WD_PS3_MASK : 0x00) \
 207:/usr/local/Cellar/avr-gcc@7/7.3.0/avr/include/avr/wdt.h ****       | _BV(WDE) | (value & 0x07) )) \
 208:/usr/local/Cellar/avr-gcc@7/7.3.0/avr/include/avr/wdt.h ****     : "r16" \
 209:/usr/local/Cellar/avr-gcc@7/7.3.0/avr/include/avr/wdt.h **** )
 210:/usr/local/Cellar/avr-gcc@7/7.3.0/avr/include/avr/wdt.h **** 
 211:/usr/local/Cellar/avr-gcc@7/7.3.0/avr/include/avr/wdt.h **** #define wdt_disable() \
 212:/usr/local/Cellar/avr-gcc@7/7.3.0/avr/include/avr/wdt.h **** do { \
 213:/usr/local/Cellar/avr-gcc@7/7.3.0/avr/include/avr/wdt.h **** uint8_t temp_wd; \
 214:/usr/local/Cellar/avr-gcc@7/7.3.0/avr/include/avr/wdt.h **** __asm__ __volatile__ ( \
 215:/usr/local/Cellar/avr-gcc@7/7.3.0/avr/include/avr/wdt.h ****     "in __tmp_reg__,__SREG__" "\n\t"  \
 216:/usr/local/Cellar/avr-gcc@7/7.3.0/avr/include/avr/wdt.h ****     "cli" "\n\t"  \
 217:/usr/local/Cellar/avr-gcc@7/7.3.0/avr/include/avr/wdt.h ****     "wdr" "\n\t"  \
 218:/usr/local/Cellar/avr-gcc@7/7.3.0/avr/include/avr/wdt.h ****     "out %[CCPADDRESS],%[SIGNATURE]" "\n\t"  \
 219:/usr/local/Cellar/avr-gcc@7/7.3.0/avr/include/avr/wdt.h ****     "in  %[TEMP_WD],%[WDTREG]" "\n\t" \
 220:/usr/local/Cellar/avr-gcc@7/7.3.0/avr/include/avr/wdt.h ****     "cbr %[TEMP_WD],%[WDVALUE]" "\n\t" \
 221:/usr/local/Cellar/avr-gcc@7/7.3.0/avr/include/avr/wdt.h ****     "out %[WDTREG],%[TEMP_WD]" "\n\t" \
 222:/usr/local/Cellar/avr-gcc@7/7.3.0/avr/include/avr/wdt.h ****     "out __SREG__,__tmp_reg__" "\n\t" \
 223:/usr/local/Cellar/avr-gcc@7/7.3.0/avr/include/avr/wdt.h ****     : /*no output */ \
 224:/usr/local/Cellar/avr-gcc@7/7.3.0/avr/include/avr/wdt.h ****     : [CCPADDRESS] "I" (_SFR_IO_ADDR(CCP)), \
 225:/usr/local/Cellar/avr-gcc@7/7.3.0/avr/include/avr/wdt.h ****       [SIGNATURE] "r" ((uint8_t)0xD8), \
 226:/usr/local/Cellar/avr-gcc@7/7.3.0/avr/include/avr/wdt.h ****       [WDTREG] "I" (_SFR_IO_ADDR(_WD_CONTROL_REG)), \
 227:/usr/local/Cellar/avr-gcc@7/7.3.0/avr/include/avr/wdt.h ****       [TEMP_WD] "d" (temp_wd), \
 228:/usr/local/Cellar/avr-gcc@7/7.3.0/avr/include/avr/wdt.h ****       [WDVALUE] "n" (1 << WDE) \
 229:/usr/local/Cellar/avr-gcc@7/7.3.0/avr/include/avr/wdt.h ****     : "r16" \
 230:/usr/local/Cellar/avr-gcc@7/7.3.0/avr/include/avr/wdt.h **** ); \
 231:/usr/local/Cellar/avr-gcc@7/7.3.0/avr/include/avr/wdt.h **** }while(0)
 232:/usr/local/Cellar/avr-gcc@7/7.3.0/avr/include/avr/wdt.h **** 
 233:/usr/local/Cellar/avr-gcc@7/7.3.0/avr/include/avr/wdt.h **** #elif defined(CCP)
 234:/usr/local/Cellar/avr-gcc@7/7.3.0/avr/include/avr/wdt.h **** 
 235:/usr/local/Cellar/avr-gcc@7/7.3.0/avr/include/avr/wdt.h **** static __inline__
 236:/usr/local/Cellar/avr-gcc@7/7.3.0/avr/include/avr/wdt.h **** __attribute__ ((__always_inline__))
 237:/usr/local/Cellar/avr-gcc@7/7.3.0/avr/include/avr/wdt.h **** void wdt_enable (const uint8_t value)
 238:/usr/local/Cellar/avr-gcc@7/7.3.0/avr/include/avr/wdt.h **** {
 239:/usr/local/Cellar/avr-gcc@7/7.3.0/avr/include/avr/wdt.h **** 	if (!_SFR_IO_REG_P (CCP) && !_SFR_IO_REG_P (_WD_CONTROL_REG))
 240:/usr/local/Cellar/avr-gcc@7/7.3.0/avr/include/avr/wdt.h **** 	{
 241:/usr/local/Cellar/avr-gcc@7/7.3.0/avr/include/avr/wdt.h **** 		__asm__ __volatile__ (
 242:/usr/local/Cellar/avr-gcc@7/7.3.0/avr/include/avr/wdt.h **** 			"in __tmp_reg__,__SREG__" "\n\t"
 243:/usr/local/Cellar/avr-gcc@7/7.3.0/avr/include/avr/wdt.h **** 			"cli" "\n\t"
 244:/usr/local/Cellar/avr-gcc@7/7.3.0/avr/include/avr/wdt.h **** 			"wdr" "\n\t"
 245:/usr/local/Cellar/avr-gcc@7/7.3.0/avr/include/avr/wdt.h **** 			"sts %[CCPADDRESS],%[SIGNATURE]" "\n\t"
 246:/usr/local/Cellar/avr-gcc@7/7.3.0/avr/include/avr/wdt.h **** 			"sts %[WDTREG],%[WDVALUE]" "\n\t"
 247:/usr/local/Cellar/avr-gcc@7/7.3.0/avr/include/avr/wdt.h **** 			"out __SREG__,__tmp_reg__" "\n\t"
 248:/usr/local/Cellar/avr-gcc@7/7.3.0/avr/include/avr/wdt.h **** 			: /* no outputs */
 249:/usr/local/Cellar/avr-gcc@7/7.3.0/avr/include/avr/wdt.h **** 			: [CCPADDRESS] "n" (_SFR_MEM_ADDR(CCP)),
 250:/usr/local/Cellar/avr-gcc@7/7.3.0/avr/include/avr/wdt.h **** 			[SIGNATURE] "r" ((uint8_t)0xD8),
 251:/usr/local/Cellar/avr-gcc@7/7.3.0/avr/include/avr/wdt.h **** 			[WDTREG] "n" (_SFR_MEM_ADDR(_WD_CONTROL_REG)),
 252:/usr/local/Cellar/avr-gcc@7/7.3.0/avr/include/avr/wdt.h **** 			[WDVALUE] "r" ((uint8_t)((value & 0x08 ? _WD_PS3_MASK : 0x00)
 253:/usr/local/Cellar/avr-gcc@7/7.3.0/avr/include/avr/wdt.h **** 				| _BV(WDE) | (value & 0x07) ))
 254:/usr/local/Cellar/avr-gcc@7/7.3.0/avr/include/avr/wdt.h **** 			: "r0"
 255:/usr/local/Cellar/avr-gcc@7/7.3.0/avr/include/avr/wdt.h **** 			);
 256:/usr/local/Cellar/avr-gcc@7/7.3.0/avr/include/avr/wdt.h **** 	}
 257:/usr/local/Cellar/avr-gcc@7/7.3.0/avr/include/avr/wdt.h **** 	else if (!_SFR_IO_REG_P (CCP) && _SFR_IO_REG_P (_WD_CONTROL_REG))
 258:/usr/local/Cellar/avr-gcc@7/7.3.0/avr/include/avr/wdt.h **** 	{
 259:/usr/local/Cellar/avr-gcc@7/7.3.0/avr/include/avr/wdt.h **** 		__asm__ __volatile__ (
 260:/usr/local/Cellar/avr-gcc@7/7.3.0/avr/include/avr/wdt.h **** 			"in __tmp_reg__,__SREG__" "\n\t"
 261:/usr/local/Cellar/avr-gcc@7/7.3.0/avr/include/avr/wdt.h **** 			"cli" "\n\t"
 262:/usr/local/Cellar/avr-gcc@7/7.3.0/avr/include/avr/wdt.h **** 			"wdr" "\n\t"
 263:/usr/local/Cellar/avr-gcc@7/7.3.0/avr/include/avr/wdt.h **** 			"sts %[CCPADDRESS],%[SIGNATURE]" "\n\t"
 264:/usr/local/Cellar/avr-gcc@7/7.3.0/avr/include/avr/wdt.h **** 			"out %[WDTREG],%[WDVALUE]" "\n\t"
 265:/usr/local/Cellar/avr-gcc@7/7.3.0/avr/include/avr/wdt.h **** 			"out __SREG__,__tmp_reg__" "\n\t"
 266:/usr/local/Cellar/avr-gcc@7/7.3.0/avr/include/avr/wdt.h **** 			: /* no outputs */
 267:/usr/local/Cellar/avr-gcc@7/7.3.0/avr/include/avr/wdt.h **** 			: [CCPADDRESS] "n" (_SFR_MEM_ADDR(CCP)),
 268:/usr/local/Cellar/avr-gcc@7/7.3.0/avr/include/avr/wdt.h **** 			[SIGNATURE] "r" ((uint8_t)0xD8),
 269:/usr/local/Cellar/avr-gcc@7/7.3.0/avr/include/avr/wdt.h **** 			[WDTREG] "I" (_SFR_IO_ADDR(_WD_CONTROL_REG)),
 270:/usr/local/Cellar/avr-gcc@7/7.3.0/avr/include/avr/wdt.h **** 			[WDVALUE] "r" ((uint8_t)((value & 0x08 ? _WD_PS3_MASK : 0x00)
 271:/usr/local/Cellar/avr-gcc@7/7.3.0/avr/include/avr/wdt.h **** 				| _BV(WDE) | (value & 0x07) ))
 272:/usr/local/Cellar/avr-gcc@7/7.3.0/avr/include/avr/wdt.h **** 			: "r0"
 273:/usr/local/Cellar/avr-gcc@7/7.3.0/avr/include/avr/wdt.h **** 			);
 274:/usr/local/Cellar/avr-gcc@7/7.3.0/avr/include/avr/wdt.h **** 	}
 275:/usr/local/Cellar/avr-gcc@7/7.3.0/avr/include/avr/wdt.h **** 	else if (_SFR_IO_REG_P (CCP) && !_SFR_IO_REG_P (_WD_CONTROL_REG))
 276:/usr/local/Cellar/avr-gcc@7/7.3.0/avr/include/avr/wdt.h **** 	{
 277:/usr/local/Cellar/avr-gcc@7/7.3.0/avr/include/avr/wdt.h **** 		__asm__ __volatile__ (
 278:/usr/local/Cellar/avr-gcc@7/7.3.0/avr/include/avr/wdt.h **** 			"in __tmp_reg__,__SREG__" "\n\t"
 279:/usr/local/Cellar/avr-gcc@7/7.3.0/avr/include/avr/wdt.h **** 			"cli" "\n\t"
 280:/usr/local/Cellar/avr-gcc@7/7.3.0/avr/include/avr/wdt.h **** 			"wdr" "\n\t"
 281:/usr/local/Cellar/avr-gcc@7/7.3.0/avr/include/avr/wdt.h **** 			"out %[CCPADDRESS],%[SIGNATURE]" "\n\t"
 282:/usr/local/Cellar/avr-gcc@7/7.3.0/avr/include/avr/wdt.h **** 			"sts %[WDTREG],%[WDVALUE]" "\n\t"
 283:/usr/local/Cellar/avr-gcc@7/7.3.0/avr/include/avr/wdt.h **** 			"out __SREG__,__tmp_reg__" "\n\t"
 284:/usr/local/Cellar/avr-gcc@7/7.3.0/avr/include/avr/wdt.h **** 			: /* no outputs */
 285:/usr/local/Cellar/avr-gcc@7/7.3.0/avr/include/avr/wdt.h **** 			: [CCPADDRESS] "I" (_SFR_IO_ADDR(CCP)),
 286:/usr/local/Cellar/avr-gcc@7/7.3.0/avr/include/avr/wdt.h **** 			[SIGNATURE] "r" ((uint8_t)0xD8),
 287:/usr/local/Cellar/avr-gcc@7/7.3.0/avr/include/avr/wdt.h **** 			[WDTREG] "n" (_SFR_MEM_ADDR(_WD_CONTROL_REG)),
 288:/usr/local/Cellar/avr-gcc@7/7.3.0/avr/include/avr/wdt.h **** 			[WDVALUE] "r" ((uint8_t)((value & 0x08 ? _WD_PS3_MASK : 0x00)
 289:/usr/local/Cellar/avr-gcc@7/7.3.0/avr/include/avr/wdt.h **** 				| _BV(WDE) | (value & 0x07) ))
 290:/usr/local/Cellar/avr-gcc@7/7.3.0/avr/include/avr/wdt.h **** 			: "r0"
 291:/usr/local/Cellar/avr-gcc@7/7.3.0/avr/include/avr/wdt.h **** 			);
 292:/usr/local/Cellar/avr-gcc@7/7.3.0/avr/include/avr/wdt.h **** 	}
 293:/usr/local/Cellar/avr-gcc@7/7.3.0/avr/include/avr/wdt.h **** 	else
 294:/usr/local/Cellar/avr-gcc@7/7.3.0/avr/include/avr/wdt.h ****  	{
