   1               		.file	"keymap.c"
   2               	__SP_H__ = 0x3e
   3               	__SP_L__ = 0x3d
   4               	__SREG__ = 0x3f
   5               	__tmp_reg__ = 0
   6               	__zero_reg__ = 1
   7               		.text
   8               	.Ltext0:
   9               		.cfi_sections	.debug_frame
  10               		.section	.text.cmd_commands,"ax",@progbits
  11               	.global	cmd_commands
  13               	cmd_commands:
  14               	.LFB15:
  15               		.file 1 "keyboards/Dactylv2led/keymaps/Default/keymap.c"
   1:keyboards/Dactylv2led/keymaps/Default/keymap.c **** #include "Dactyl.h"
   2:keyboards/Dactylv2led/keymaps/Default/keymap.c **** #include "action_layer.h"
   3:keyboards/Dactylv2led/keymaps/Default/keymap.c **** #include "eeconfig.h"
   4:keyboards/Dactylv2led/keymaps/Default/keymap.c **** 
   5:keyboards/Dactylv2led/keymaps/Default/keymap.c **** extern keymap_config_t keymap_config;
   6:keyboards/Dactylv2led/keymaps/Default/keymap.c **** #define _QWERTY 0
   7:keyboards/Dactylv2led/keymaps/Default/keymap.c **** #define _COLEMAK 1
   8:keyboards/Dactylv2led/keymaps/Default/keymap.c **** 
   9:keyboards/Dactylv2led/keymaps/Default/keymap.c **** #define _DVORAK 2
  10:keyboards/Dactylv2led/keymaps/Default/keymap.c **** #define _LOWER 3
  11:keyboards/Dactylv2led/keymaps/Default/keymap.c **** #define _RAISE 4
  12:keyboards/Dactylv2led/keymaps/Default/keymap.c **** #define _FN3 5
  13:keyboards/Dactylv2led/keymaps/Default/keymap.c **** //#define _FN4 6
  14:keyboards/Dactylv2led/keymaps/Default/keymap.c **** #define _ADJUST 16
  15:keyboards/Dactylv2led/keymaps/Default/keymap.c **** enum {
  16:keyboards/Dactylv2led/keymaps/Default/keymap.c **** 	TD_CPY_PST = 0,
  17:keyboards/Dactylv2led/keymaps/Default/keymap.c **** 	TD_CMD,
  18:keyboards/Dactylv2led/keymaps/Default/keymap.c **** 	TD_SLSH,
  19:keyboards/Dactylv2led/keymaps/Default/keymap.c **** 	TD_VRDSK
  20:keyboards/Dactylv2led/keymaps/Default/keymap.c **** };
  21:keyboards/Dactylv2led/keymaps/Default/keymap.c **** enum custom_keycodes {
  22:keyboards/Dactylv2led/keymaps/Default/keymap.c **** 	COLEMAK = SAFE_RANGE,
  23:keyboards/Dactylv2led/keymaps/Default/keymap.c **** 	QWERTY,
  24:keyboards/Dactylv2led/keymaps/Default/keymap.c **** 	DVORAK,
  25:keyboards/Dactylv2led/keymaps/Default/keymap.c **** 	LOWER,
  26:keyboards/Dactylv2led/keymaps/Default/keymap.c **** 	RAISE,
  27:keyboards/Dactylv2led/keymaps/Default/keymap.c **** 	FN3,
  28:keyboards/Dactylv2led/keymaps/Default/keymap.c **** //	FN4,
  29:keyboards/Dactylv2led/keymaps/Default/keymap.c **** 	ADJUST,
  30:keyboards/Dactylv2led/keymaps/Default/keymap.c **** 	dance_cln_finished,
  31:keyboards/Dactylv2led/keymaps/Default/keymap.c **** };
  32:keyboards/Dactylv2led/keymaps/Default/keymap.c **** 
  33:keyboards/Dactylv2led/keymaps/Default/keymap.c **** #define KC_ KC_TRNS
  34:keyboards/Dactylv2led/keymaps/Default/keymap.c **** #define _______ KC_TRNS
  35:keyboards/Dactylv2led/keymaps/Default/keymap.c **** #define KC_CAPW LGUI(LSFT(KC_3))        // Capture whole screen
  36:keyboards/Dactylv2led/keymaps/Default/keymap.c **** #define KC_CPYW LGUI(LSFT(LCTL(KC_3)))  // Copy whole screen
  37:keyboards/Dactylv2led/keymaps/Default/keymap.c **** #define KC_CAPP LGUI(LSFT(KC_4))       // Capture portion of screen
  38:keyboards/Dactylv2led/keymaps/Default/keymap.c **** #define KC_CPYP LGUI(LSFT(LCTL(KC_4)))  // Copy portion of screen
  39:keyboards/Dactylv2led/keymaps/Default/keymap.c **** #define KC_X0 MT(MOD_LCTL, KC_ESC)
  40:keyboards/Dactylv2led/keymaps/Default/keymap.c **** #define KC_LDWN LOWER				//Numpad
  41:keyboards/Dactylv2led/keymaps/Default/keymap.c **** #define KC_LUP RAISE
  42:keyboards/Dactylv2led/keymaps/Default/keymap.c **** #define KC_TOGUP TG(4)
  43:keyboards/Dactylv2led/keymaps/Default/keymap.c **** #define KC_REST RESET
  44:keyboards/Dactylv2led/keymaps/Default/keymap.c **** #define KC_X3 LT(_FN3,KC_TAB)		//function layer 4 ie macros when held tab when pressed
  45:keyboards/Dactylv2led/keymaps/Default/keymap.c **** #define KC_X4 LT(_ADJUST, KC_ENT) //Shift when held enter when pressed
  46:keyboards/Dactylv2led/keymaps/Default/keymap.c **** #define KC_X5 LT(RAISE, KC_P0)  //Raise to functions when held P0 when pressed
  47:keyboards/Dactylv2led/keymaps/Default/keymap.c **** #define KC_X6 TD(TD_SLSH)				//slash vs backslash
  48:keyboards/Dactylv2led/keymaps/Default/keymap.c **** #define KC_X7 TD(TD_CPY_PST)		//single tap is copy double is paste
  49:keyboards/Dactylv2led/keymaps/Default/keymap.c **** #define KC_X8 TD(TD_CMD)			//single tap is cmd double is ipconfig
  50:keyboards/Dactylv2led/keymaps/Default/keymap.c **** 
  51:keyboards/Dactylv2led/keymaps/Default/keymap.c **** 
  52:keyboards/Dactylv2led/keymaps/Default/keymap.c **** #define KC_X9 RGUI(KC_TAB)	//gui tab to switch desktops
  53:keyboards/Dactylv2led/keymaps/Default/keymap.c **** #define KC_X10 TD(TD_VRDSK)
  54:keyboards/Dactylv2led/keymaps/Default/keymap.c **** 
  55:keyboards/Dactylv2led/keymaps/Default/keymap.c **** #define KC_LEDON RGB_TOG
  56:keyboards/Dactylv2led/keymaps/Default/keymap.c **** #define KC_LMOD RGB_MOD
  57:keyboards/Dactylv2led/keymaps/Default/keymap.c **** #define KC_LMODR RGB_RMOD
  58:keyboards/Dactylv2led/keymaps/Default/keymap.c **** 
  59:keyboards/Dactylv2led/keymaps/Default/keymap.c **** #define KC_XLgn M(1)
  60:keyboards/Dactylv2led/keymaps/Default/keymap.c **** #define KC_EMAL M(2)
  61:keyboards/Dactylv2led/keymaps/Default/keymap.c **** #define KC_WWWX M(3)
  62:keyboards/Dactylv2led/keymaps/Default/keymap.c **** #define KC_NTAB M(4)
  63:keyboards/Dactylv2led/keymaps/Default/keymap.c **** #define KC_0CA M(6)
  64:keyboards/Dactylv2led/keymaps/Default/keymap.c **** #define KC_PASS M(10)
  65:keyboards/Dactylv2led/keymaps/Default/keymap.c **** #define KC_IPCF M(11)
  66:keyboards/Dactylv2led/keymaps/Default/keymap.c **** #define KC_OP M(12)
  67:keyboards/Dactylv2led/keymaps/Default/keymap.c **** #define KC_OC M(13)
  68:keyboards/Dactylv2led/keymaps/Default/keymap.c **** #define KC_OD M(14)
  69:keyboards/Dactylv2led/keymaps/Default/keymap.c **** #define KC_TCLK M(15)
  70:keyboards/Dactylv2led/keymaps/Default/keymap.c **** #define KC_ESCT MT(MOD_LCTL, KC_ESC)
  71:keyboards/Dactylv2led/keymaps/Default/keymap.c **** #define KC_GUIT M(0)
  72:keyboards/Dactylv2led/keymaps/Default/keymap.c **** 
  73:keyboards/Dactylv2led/keymaps/Default/keymap.c **** const uint16_t PROGMEM keymaps[][MATRIX_ROWS][MATRIX_COLS] = {
  74:keyboards/Dactylv2led/keymaps/Default/keymap.c **** /* Keymap 0: Basic layer
  75:keyboards/Dactylv2led/keymaps/Default/keymap.c ****  *
  76:keyboards/Dactylv2led/keymaps/Default/keymap.c ****  *
  77:keyboards/Dactylv2led/keymaps/Default/keymap.c ****  * ,-------------------------------------------.           ,----------------------------------_----
  78:keyboards/Dactylv2led/keymaps/Default/keymap.c ****  * |   =    |   1  |   2  |   3  |   4  |   5  |           |   6  |   7  |   8  |   9  |   0  |   -
  79:keyboards/Dactylv2led/keymaps/Default/keymap.c ****  * |--------+------+------+------+------+------|           |------+------+------+------+------|----
  80:keyboards/Dactylv2led/keymaps/Default/keymap.c ****  * |Tab     |   Q  |   W  |   E  |   R  |   T  |           |   Y  |   U  |   I  |   O  |   P  |   \
  81:keyboards/Dactylv2led/keymaps/Default/keymap.c ****  * |--------+------+------+------+------+----- |           |------+------+------+------+------|----
  82:keyboards/Dactylv2led/keymaps/Default/keymap.c ****  * | ENT    |   A  |   S  |   D  |   F  |   G  |           |   H  |   J  |   K  |   L  |   ;  | ENT
  83:keyboards/Dactylv2led/keymaps/Default/keymap.c ****  * |--------+------+------+------+------+------|           |------+------+------+------+------|----
  84:keyboards/Dactylv2led/keymaps/Default/keymap.c ****  * | LShift |   Z  |   X  |   C  |   V  |   B  |           |   N  |   M  |   ,  |   .  |  /   |RShi
  85:keyboards/Dactylv2led/keymaps/Default/keymap.c ****  * `--------+------+------+------+------+------'           `-------+------+------+------+------|---
  86:keyboards/Dactylv2led/keymaps/Default/keymap.c ****  * |CTR     |  ALT | GUI  | Left | Right|                       | LEFT | RIGHT|  UP  | DOWN  | ~L1 
  87:keyboards/Dactylv2led/keymaps/Default/keymap.c ****  * `----------------------------------'                          `---------------------------------
  88:keyboards/Dactylv2led/keymaps/Default/keymap.c ****  *				
  89:keyboards/Dactylv2led/keymaps/Default/keymap.c ****  *                                 ,-------------.       ,-------------.
  90:keyboards/Dactylv2led/keymaps/Default/keymap.c ****  *                                 |   6  |   5  |       | 5    |  6     |
  91:keyboards/Dactylv2led/keymaps/Default/keymap.c ****  *                          ,------|------|------|       |------+--------+------.
  92:keyboards/Dactylv2led/keymaps/Default/keymap.c ****  *                          |   1  |  2    |   4  |       | 4    |        |      |
  93:keyboards/Dactylv2led/keymaps/Default/keymap.c ****  *                          |Backsp|GUI   |------|       |------|    1   |    2 |
  94:keyboards/Dactylv2led/keymaps/Default/keymap.c ****  *                          |  acs |TAB   |   3  |       | 3    |        |      |
  95:keyboards/Dactylv2led/keymaps/Default/keymap.c ****  *                         `--------------------'       `----------------------'
  96:keyboards/Dactylv2led/keymaps/Default/keymap.c **** 
  97:keyboards/Dactylv2led/keymaps/Default/keymap.c **** 
  98:keyboards/Dactylv2led/keymaps/Default/keymap.c ****  
  99:keyboards/Dactylv2led/keymaps/Default/keymap.c ****   		PGUP,PGDN, 			END, HOME,
 100:keyboards/Dactylv2led/keymaps/Default/keymap.c ****   BSPC,LDWN, PSCR, 			DEL, ENT, SPC
 101:keyboards/Dactylv2led/keymaps/Default/keymap.c **** 			LGUIT,			LUP
 102:keyboards/Dactylv2led/keymaps/Default/keymap.c ****  */
 103:keyboards/Dactylv2led/keymaps/Default/keymap.c **** 		[_QWERTY] = KC_KEYMAP(
 104:keyboards/Dactylv2led/keymaps/Default/keymap.c **** 	//,----+----+----+----+----+----.										,----+----+----+----+----+----.
 105:keyboards/Dactylv2led/keymaps/Default/keymap.c **** 		EQL, 1  , 2  , 3  , 4  , 5  ,     									 6  , 7  , 8  , 9 , 0  ,MINS,
 106:keyboards/Dactylv2led/keymaps/Default/keymap.c **** 	//,----+----+----+----+----+----.										,----+----+----+----+----+----.
 107:keyboards/Dactylv2led/keymaps/Default/keymap.c **** 		TAB , Q  , W  , E  , R  , T  ,    									  Y  , U  , I  , O , P  ,BSLS,
 108:keyboards/Dactylv2led/keymaps/Default/keymap.c **** 	//|----+----+----+----+----+----|   									|----+----+----+----+----+----|
 109:keyboards/Dactylv2led/keymaps/Default/keymap.c **** 		ENT , A  , S  , D  , F  , G  ,										H  , J  , K  , L  ,SCLN,ENT,
 110:keyboards/Dactylv2led/keymaps/Default/keymap.c **** 	//|----+----+----+----+----+----|										|----+----+----+----+----+----|
 111:keyboards/Dactylv2led/keymaps/Default/keymap.c **** 		LSFT , Z  , X  , C  , V  , B  ,										N  , M  ,COMM,DOT,SLSH,GRV,
 112:keyboards/Dactylv2led/keymaps/Default/keymap.c **** 	//|----+----+----+----+----+----|										|----+----+----+----+----+----|
 113:keyboards/Dactylv2led/keymaps/Default/keymap.c **** 		ESCT,LALT,LGUI,LEFT,RIGHT,,												  ,LEFT,RIGHT,UP ,DOWN,QUOT,
 114:keyboards/Dactylv2led/keymaps/Default/keymap.c **** 	//`----+----+----+----+----+----'   									 `----+----+----+----+----+----'
 115:keyboards/Dactylv2led/keymaps/Default/keymap.c **** 	//							`----+----+----+'			`----+----+----'
 116:keyboards/Dactylv2led/keymaps/Default/keymap.c **** 										PGUP,PGDN,			 HOME, GRV,
 117:keyboards/Dactylv2led/keymaps/Default/keymap.c **** 	//							`----+----+----+'			`----+----+----'
 118:keyboards/Dactylv2led/keymaps/Default/keymap.c **** 											LCTL,			DEL,
 119:keyboards/Dactylv2led/keymaps/Default/keymap.c **** 	//							`----+----+----+'			`----+----+----'
 120:keyboards/Dactylv2led/keymaps/Default/keymap.c **** 								  BSPC,LSFT,LDWN,			LUP, ENT, SPC
 121:keyboards/Dactylv2led/keymaps/Default/keymap.c **** 	//							`----+----+----+'			`----+----+----'
 122:keyboards/Dactylv2led/keymaps/Default/keymap.c **** 
 123:keyboards/Dactylv2led/keymaps/Default/keymap.c **** 	),
 124:keyboards/Dactylv2led/keymaps/Default/keymap.c **** 	
 125:keyboards/Dactylv2led/keymaps/Default/keymap.c **** 			[_COLEMAK] = KC_KEYMAP(
 126:keyboards/Dactylv2led/keymaps/Default/keymap.c **** 	//,----+----+----+----+----+----. 									   ,----+----+----+----+----+----.
 127:keyboards/Dactylv2led/keymaps/Default/keymap.c **** 		EQL, 1  , 2  , 3  , 4  , 5  ,     									6  , 7  , 8  , 9 , 0   ,MINS,
 128:keyboards/Dactylv2led/keymaps/Default/keymap.c **** 	//,----+----+----+----+----+----.   									 ,----+----+----+----+----+----.
 129:keyboards/Dactylv2led/keymaps/Default/keymap.c **** 		X3 , Q  , W  , F  , P  , G  , 									     J  , L  , U  , Y  ,SCLN,BSLS,
 130:keyboards/Dactylv2led/keymaps/Default/keymap.c **** 	//|----+----+----+----+----+----| 									   |----+----+----+----+----+----|
 131:keyboards/Dactylv2led/keymaps/Default/keymap.c **** 		X4 , A  , R  , S  , T  , D  ,									      H  , N  , E  , I  , O  ,ENT,
 132:keyboards/Dactylv2led/keymaps/Default/keymap.c **** 	//|----+----+----+----+----+----|									    |----+----+----+----+----+----|
 133:keyboards/Dactylv2led/keymaps/Default/keymap.c **** 		LSFT, Z  , X  , C  , V  , B  ,  									  K  , M  ,COMM,DOT ,SLSH,GRV,
 134:keyboards/Dactylv2led/keymaps/Default/keymap.c **** 	//|----+----+----+----+----+----| 									   |----+----+----+----+----+----|
 135:keyboards/Dactylv2led/keymaps/Default/keymap.c **** 		ESCT,LALT,LGUI,LEFT,RIGHT,BSPC,									    SPC,LEFT,RIGHT,UP ,DOWN,QUOT,
 136:keyboards/Dactylv2led/keymaps/Default/keymap.c **** 	//`----+----+----+----+----+----'  									 `----+----+----+----+----+----'
 137:keyboards/Dactylv2led/keymaps/Default/keymap.c **** 	//							`----+----+----+'			`----+----+----'
 138:keyboards/Dactylv2led/keymaps/Default/keymap.c **** 										PGUP,PGDN,			 HOME, GRV,
 139:keyboards/Dactylv2led/keymaps/Default/keymap.c **** 	//							`----+----+----+'			`----+----+----'
 140:keyboards/Dactylv2led/keymaps/Default/keymap.c **** 											LCTL,			DEL,
 141:keyboards/Dactylv2led/keymaps/Default/keymap.c **** 	//							`----+----+----+'			`----+----+----'
 142:keyboards/Dactylv2led/keymaps/Default/keymap.c **** 								  BSPC,LSFT,LDWN,			LUP, ENT, SPC
 143:keyboards/Dactylv2led/keymaps/Default/keymap.c **** 	//							`----+----+----+'			`----+----+----'
 144:keyboards/Dactylv2led/keymaps/Default/keymap.c **** 
 145:keyboards/Dactylv2led/keymaps/Default/keymap.c **** 	),
 146:keyboards/Dactylv2led/keymaps/Default/keymap.c **** 
 147:keyboards/Dactylv2led/keymaps/Default/keymap.c **** 	[_DVORAK] = KC_KEYMAP(
 148:keyboards/Dactylv2led/keymaps/Default/keymap.c **** 	//,----+----+----+----+----+----.    ,----+----+----+----+----+----.
 149:keyboards/Dactylv2led/keymaps/Default/keymap.c **** 		EQL, 1  , 2  , 3  , 4  , 5  ,      6  , 7  , 8  , 9 , 0  ,MINS,
 150:keyboards/Dactylv2led/keymaps/Default/keymap.c **** 	//,----+----+----+----+----+----.    ,----+----+----+----+----+----.
 151:keyboards/Dactylv2led/keymaps/Default/keymap.c **** 		TAB ,QUOT,COMM,DOT , P  , Y  ,      F  , G  , C  , R  , L  ,MINS,
 152:keyboards/Dactylv2led/keymaps/Default/keymap.c **** 	//|----+----+----+----+----+----|    |----+----+----+----+----+----|
 153:keyboards/Dactylv2led/keymaps/Default/keymap.c **** 		X0 , A  , O  , E  , U  , I  ,      D  , H  , T  , N  , S  ,SLSH,
 154:keyboards/Dactylv2led/keymaps/Default/keymap.c **** 	//|----+----+----+----+----+----|    |----+----+----+----+----+----|
 155:keyboards/Dactylv2led/keymaps/Default/keymap.c **** 		LSFT,SCLN, Q  , J  , K  , X  ,      B  , M  , W  , V  , Z  , X4 ,
 156:keyboards/Dactylv2led/keymaps/Default/keymap.c **** 	//|----+----+----+----+----+----|    |----+----+----+----+----+----|
 157:keyboards/Dactylv2led/keymaps/Default/keymap.c **** 		X3 ,LCTL,LALT,LGUI, LDWN ,SPC ,     BSPC, UP ,LEFT,DOWN, UP ,RGHT,
 158:keyboards/Dactylv2led/keymaps/Default/keymap.c **** 	//`----+----+----+----+----+----'    `----+----+----+----+----+----'
 159:keyboards/Dactylv2led/keymaps/Default/keymap.c **** 	//							`----+----+----+'			`----+----+----'
 160:keyboards/Dactylv2led/keymaps/Default/keymap.c **** 										PGUP,PGDN,			 HOME, GRV,
 161:keyboards/Dactylv2led/keymaps/Default/keymap.c **** 	//							`----+----+----+'			`----+----+----'
 162:keyboards/Dactylv2led/keymaps/Default/keymap.c **** 											LCTL,			DEL,
 163:keyboards/Dactylv2led/keymaps/Default/keymap.c **** 	//							`----+----+----+'			`----+----+----'
 164:keyboards/Dactylv2led/keymaps/Default/keymap.c **** 								  BSPC,LSFT,LDWN,			LUP, ENT, SPC
 165:keyboards/Dactylv2led/keymaps/Default/keymap.c **** 	//							`----+----+----+'			`----+----+----'
 166:keyboards/Dactylv2led/keymaps/Default/keymap.c **** 	),
 167:keyboards/Dactylv2led/keymaps/Default/keymap.c **** 
 168:keyboards/Dactylv2led/keymaps/Default/keymap.c **** 	
 169:keyboards/Dactylv2led/keymaps/Default/keymap.c **** 	[_LOWER] = KC_KEYMAP(
 170:keyboards/Dactylv2led/keymaps/Default/keymap.c **** 	//,----+----+----+----+----+----.  								  ,----+----+----+----+----+----.
 171:keyboards/Dactylv2led/keymaps/Default/keymap.c **** 			,F1,   F2, F3,  F4,   F5,								  F6  ,  F7  , F8, F9, F10, F11,
 172:keyboards/Dactylv2led/keymaps/Default/keymap.c **** 	//|----+----+----+----+----+----|   							 |----+----+----+----+----+----|
 173:keyboards/Dactylv2led/keymaps/Default/keymap.c **** 		TRNS,EXLM, AT,LCBR,RCBR,PIPE,   							   UP,   7,    8,  9, ASTR,   F12,
 174:keyboards/Dactylv2led/keymaps/Default/keymap.c **** 	//|----+----+----+----+----+----|   							 |----+----+----+----+----+----|
 175:keyboards/Dactylv2led/keymaps/Default/keymap.c **** 		TRNS,HASH,DLR,LPRN,RPRN,GRV,     						       DOWN, 4,   5,  6, PLUS,  TRNS,
 176:keyboards/Dactylv2led/keymaps/Default/keymap.c **** 	//|----+----+----+----+----+----|   							 |----+----+----+----+----+----|
 177:keyboards/Dactylv2led/keymaps/Default/keymap.c **** 	     TRNS,PERC,CIRC,LBRC,RBRC,TILD,								   AMPR, 1,  2  ,  3, BSLS,  TRNS,
 178:keyboards/Dactylv2led/keymaps/Default/keymap.c **** 	//|----+----+----+----+----+----|   							 |----+----+----+----+----+----|
 179:keyboards/Dactylv2led/keymaps/Default/keymap.c **** 		REST,    ,    ,    ,    ,   ,    							  ,	  TRNS,  DOT, 0,  EQL,  TRNS,
 180:keyboards/Dactylv2led/keymaps/Default/keymap.c **** 	//|----+----+----+----+----+----|  								  |----+----+----+----+----+----|
 181:keyboards/Dactylv2led/keymaps/Default/keymap.c **** 	//							`----+----+----+'			`----+----+----'
 182:keyboards/Dactylv2led/keymaps/Default/keymap.c **** 										PGUP,PGDN,			 HOME, GRV,
 183:keyboards/Dactylv2led/keymaps/Default/keymap.c **** 	//							`----+----+----+'			`----+----+----'
 184:keyboards/Dactylv2led/keymaps/Default/keymap.c **** 											LCTL,			DEL,
 185:keyboards/Dactylv2led/keymaps/Default/keymap.c **** 	//							`----+----+----+'			`----+----+----'
 186:keyboards/Dactylv2led/keymaps/Default/keymap.c **** 								  BSPC,LSFT,LDWN,			LUP, ENT, SPC
 187:keyboards/Dactylv2led/keymaps/Default/keymap.c **** 	//							`----+----+----+'			`----+----+----'
 188:keyboards/Dactylv2led/keymaps/Default/keymap.c **** 	//`----+----+----+----+----+----'    `----+----+----+----+----+----'
 189:keyboards/Dactylv2led/keymaps/Default/keymap.c **** 	),
 190:keyboards/Dactylv2led/keymaps/Default/keymap.c **** 		
 191:keyboards/Dactylv2led/keymaps/Default/keymap.c **** 	[_RAISE] = KC_KEYMAP(
 192:keyboards/Dactylv2led/keymaps/Default/keymap.c **** 	//,----+----+----+----+----+----.									,----+----+----+----+----+----.
 193:keyboards/Dactylv2led/keymaps/Default/keymap.c **** 		GRV, 1  , 2  , 3  , 4  , 5  ,										6  , 7  , 8  , 9, 0   ,MINS,
 194:keyboards/Dactylv2led/keymaps/Default/keymap.c **** 	//|----+----+----+----+----+----|									|----+----+----+----+----+----|
 195:keyboards/Dactylv2led/keymaps/Default/keymap.c **** 		8 , 1  , WWWX, 1  , 1  , 1  ,										NO , 4  , 5  , 6  ,PMNS, NO   , 
 196:keyboards/Dactylv2led/keymaps/Default/keymap.c **** 	//|----+----+----+----+----+----|									|----+----+----+----+----+----|
 197:keyboards/Dactylv2led/keymaps/Default/keymap.c **** 		8 , 1  , 1  , 1  , 1  ,LMOD  ,										NO , 1   , 2  ,  3 ,PPLS, NO   ,
 198:keyboards/Dactylv2led/keymaps/Default/keymap.c **** 	//|----+----+----+----+----+----|									|----+----+----+----+----+----|
 199:keyboards/Dactylv2led/keymaps/Default/keymap.c **** 		8 , 1  ,  1,   1  , 1  , LEDON,									LEDON , 0  , 0  , DOT , NO, NO,
 200:keyboards/Dactylv2led/keymaps/Default/keymap.c **** 	//|----+----+----+----+----+----|									|----+----+----+----+----+----|
 201:keyboards/Dactylv2led/keymaps/Default/keymap.c **** 		REST, 1  , 1  , 1  , 1  ,   ,										NO ,PSLS, PAST, NO , NO  ,REST,
 202:keyboards/Dactylv2led/keymaps/Default/keymap.c **** 	//|----+----+----+----+----+----|  									  |----+----+----+----+----+----|
 203:keyboards/Dactylv2led/keymaps/Default/keymap.c **** 	//							`----+----+----+'			`----+----+----'
 204:keyboards/Dactylv2led/keymaps/Default/keymap.c **** 										PGUP,PGDN,			 HOME, GRV,
 205:keyboards/Dactylv2led/keymaps/Default/keymap.c **** 	//							`----+----+----+'			`----+----+----'
 206:keyboards/Dactylv2led/keymaps/Default/keymap.c **** 											LCTL,			DEL,
 207:keyboards/Dactylv2led/keymaps/Default/keymap.c **** 	//							`----+----+----+'			`----+----+----'
 208:keyboards/Dactylv2led/keymaps/Default/keymap.c **** 								  BSPC,LSFT,LDWN,			LUP, ENT, SPC
 209:keyboards/Dactylv2led/keymaps/Default/keymap.c **** 	//							`----+----+----+'			`----+----+----'
 210:keyboards/Dactylv2led/keymaps/Default/keymap.c **** 
 211:keyboards/Dactylv2led/keymaps/Default/keymap.c **** 	//`----+----+----+----+----+----'    `----+----+----+----+----+----'
 212:keyboards/Dactylv2led/keymaps/Default/keymap.c **** 	),
 213:keyboards/Dactylv2led/keymaps/Default/keymap.c **** 
 214:keyboards/Dactylv2led/keymaps/Default/keymap.c **** 	[_ADJUST] = KEYMAP( \
 215:keyboards/Dactylv2led/keymaps/Default/keymap.c **** 	QWERTY, RGB_TOG, RGB_MOD, RGB_RMOD, RGB_HUD, RGB_HUI, 			RGB_SAD, RGB_SAI, RGB_VAD, RGB_VAI, _____
 216:keyboards/Dactylv2led/keymaps/Default/keymap.c **** 	RGB_M_P,RGB_M_B,RGB_M_R,  RGB_M_SW,_______, _______, 		 _______, _______,  _______, _______,  ____
 217:keyboards/Dactylv2led/keymaps/Default/keymap.c **** 	RGB_M_SN,RGB_M_K,RGB_M_X, RGB_M_G, _______, _______,			 _______, _______, _______, _______, ______
 218:keyboards/Dactylv2led/keymaps/Default/keymap.c **** 	_______, _______, _______, _______, _______, _______,			 _______, _______, _______, _______, _____
 219:keyboards/Dactylv2led/keymaps/Default/keymap.c **** 	KC_1   , KC_2   , KC_3   , KC_4 , _______, _______, 			KC_5,     KC_6,	   KC_7,    KC_8 ,  _______
 220:keyboards/Dactylv2led/keymaps/Default/keymap.c **** 					_______, _______, _______, _______,				_______, _______, _______, _______,	\
 221:keyboards/Dactylv2led/keymaps/Default/keymap.c **** 										_______, _______, 			_______, _______ \
 222:keyboards/Dactylv2led/keymaps/Default/keymap.c **** 	)
 223:keyboards/Dactylv2led/keymaps/Default/keymap.c **** 
 224:keyboards/Dactylv2led/keymaps/Default/keymap.c **** 
 225:keyboards/Dactylv2led/keymaps/Default/keymap.c **** };
 226:keyboards/Dactylv2led/keymaps/Default/keymap.c **** 
 227:keyboards/Dactylv2led/keymaps/Default/keymap.c **** #ifdef AUDIO_ENABLE
 228:keyboards/Dactylv2led/keymaps/Default/keymap.c **** float tone_qwerty[][2]     = SONG(QWERTY_SOUND);
 229:keyboards/Dactylv2led/keymaps/Default/keymap.c **** float tone_dvorak[][2]     = SONG(DVORAK_SOUND);
 230:keyboards/Dactylv2led/keymaps/Default/keymap.c **** float tone_colemak[][2]    = SONG(COLEMAK_SOUND);
 231:keyboards/Dactylv2led/keymaps/Default/keymap.c **** #endif
 232:keyboards/Dactylv2led/keymaps/Default/keymap.c **** 
 233:keyboards/Dactylv2led/keymaps/Default/keymap.c **** void persistent_default_layer_set(uint16_t default_layer) {
 234:keyboards/Dactylv2led/keymaps/Default/keymap.c **** 	eeconfig_update_default_layer(default_layer);
 235:keyboards/Dactylv2led/keymaps/Default/keymap.c **** 	default_layer_set(default_layer);
 236:keyboards/Dactylv2led/keymaps/Default/keymap.c **** }
 237:keyboards/Dactylv2led/keymaps/Default/keymap.c **** 
 238:keyboards/Dactylv2led/keymaps/Default/keymap.c **** /*
 239:keyboards/Dactylv2led/keymaps/Default/keymap.c **** void dance_cln_finished(void){
 240:keyboards/Dactylv2led/keymaps/Default/keymap.c **** register_code (KC_LGUI);
 241:keyboards/Dactylv2led/keymaps/Default/keymap.c **** register_code(KC_TAB);
 242:keyboards/Dactylv2led/keymaps/Default/keymap.c **** unregister_code(KC_TAB);
 243:keyboards/Dactylv2led/keymaps/Default/keymap.c **** unregister_code(KC_LGUI); 
 244:keyboards/Dactylv2led/keymaps/Default/keymap.c **** }*/
 245:keyboards/Dactylv2led/keymaps/Default/keymap.c **** 
 246:keyboards/Dactylv2led/keymaps/Default/keymap.c **** const macro_t *action_get_macro(keyrecord_t *record, uint8_t id, uint8_t opt) {
 247:keyboards/Dactylv2led/keymaps/Default/keymap.c **** 	
 248:keyboards/Dactylv2led/keymaps/Default/keymap.c **** 	switch (id) {
 249:keyboards/Dactylv2led/keymaps/Default/keymap.c **** 	case 0:
 250:keyboards/Dactylv2led/keymaps/Default/keymap.c **** 		if (record->event.pressed) {
 251:keyboards/Dactylv2led/keymaps/Default/keymap.c **** 			return MACRO(D(LGUI), T(TAB), U(LGUI), END);
 252:keyboards/Dactylv2led/keymaps/Default/keymap.c **** 		}
 253:keyboards/Dactylv2led/keymaps/Default/keymap.c **** 	case 1:
 254:keyboards/Dactylv2led/keymaps/Default/keymap.c **** 		if (record->event.pressed) {
 255:keyboards/Dactylv2led/keymaps/Default/keymap.c **** 		//	SEND_STRING("admin"SS_TAP(X_TAB)"1111"SS_TAP(X_ENTER));
 256:keyboards/Dactylv2led/keymaps/Default/keymap.c **** 		//return false;	break;
 257:keyboards/Dactylv2led/keymaps/Default/keymap.c **** 			return MACRO(I(10), T(A), T(D), T(M), T(I), T(N), W(75), T(TAB), T(1), T(1),T(1), T(1), T(ENTER)
 258:keyboards/Dactylv2led/keymaps/Default/keymap.c **** 		}
 259:keyboards/Dactylv2led/keymaps/Default/keymap.c **** 	case 2:
 260:keyboards/Dactylv2led/keymaps/Default/keymap.c **** 		if (record->event.pressed) {
 261:keyboards/Dactylv2led/keymaps/Default/keymap.c **** 			SEND_STRING("email");// auto send email
 262:keyboards/Dactylv2led/keymaps/Default/keymap.c **** 			return false;	break;
 263:keyboards/Dactylv2led/keymaps/Default/keymap.c **** 		}
 264:keyboards/Dactylv2led/keymaps/Default/keymap.c **** 	case 3:
 265:keyboards/Dactylv2led/keymaps/Default/keymap.c **** 		if (record->event.pressed) {
 266:keyboards/Dactylv2led/keymaps/Default/keymap.c **** 			SEND_STRING("www.support.xerox.com"SS_TAP(X_ENTER));
 267:keyboards/Dactylv2led/keymaps/Default/keymap.c **** 						return false;	break;
 268:keyboards/Dactylv2led/keymaps/Default/keymap.c **** 		}
 269:keyboards/Dactylv2led/keymaps/Default/keymap.c **** 	case 4:
 270:keyboards/Dactylv2led/keymaps/Default/keymap.c **** 		if(record->event.pressed) {
 271:keyboards/Dactylv2led/keymaps/Default/keymap.c **** 			return MACRO(I(10), D(LCTRL), T(T), T(V), T(ENTER), U(LCTRL), END);
 272:keyboards/Dactylv2led/keymaps/Default/keymap.c **** 		}
 273:keyboards/Dactylv2led/keymaps/Default/keymap.c **** 		
 274:keyboards/Dactylv2led/keymaps/Default/keymap.c **** 	case 5:{
 275:keyboards/Dactylv2led/keymaps/Default/keymap.c **** 			return  MACRO_TAP_HOLD_LAYER(record, MACRO(TYPE(KC_X), END), _LOWER);	
 276:keyboards/Dactylv2led/keymaps/Default/keymap.c **** 		}
 277:keyboards/Dactylv2led/keymaps/Default/keymap.c **** 	case 6: {
 278:keyboards/Dactylv2led/keymaps/Default/keymap.c **** 			if(record->event.pressed) 
 279:keyboards/Dactylv2led/keymaps/Default/keymap.c **** 			return MACRO(I(10), T(0), T(C), T(TAB), T(TAB), T(A), T(TAB), END);
 280:keyboards/Dactylv2led/keymaps/Default/keymap.c **** 		}
 281:keyboards/Dactylv2led/keymaps/Default/keymap.c **** 	case 10: {
 282:keyboards/Dactylv2led/keymaps/Default/keymap.c **** 		if(record->event.pressed) {
 283:keyboards/Dactylv2led/keymaps/Default/keymap.c **** 		SEND_STRING(""); //send string
 284:keyboards/Dactylv2led/keymaps/Default/keymap.c **** 			return false; break;}
 285:keyboards/Dactylv2led/keymaps/Default/keymap.c **** 	}		
 286:keyboards/Dactylv2led/keymaps/Default/keymap.c **** 	case 11: {
 287:keyboards/Dactylv2led/keymaps/Default/keymap.c **** 		if(record->event.pressed) {
 288:keyboards/Dactylv2led/keymaps/Default/keymap.c **** 			SEND_STRING("ipconfig /all");
 289:keyboards/Dactylv2led/keymaps/Default/keymap.c **** 					return false; break;}
 290:keyboards/Dactylv2led/keymaps/Default/keymap.c **** 	}
 291:keyboards/Dactylv2led/keymaps/Default/keymap.c **** 	case 12: {
 292:keyboards/Dactylv2led/keymaps/Default/keymap.c **** 	if(record->event.pressed) 
 293:keyboards/Dactylv2led/keymaps/Default/keymap.c **** 		return MACRO( I(10),T(TAB), T(O), T(P), T(TAB),T(ENTER), T(TAB),T(TAB),T(TAB),T(Z),T(R),T(TAB),T(
 294:keyboards/Dactylv2led/keymaps/Default/keymap.c **** 	}	
 295:keyboards/Dactylv2led/keymaps/Default/keymap.c **** 		case 13: {
 296:keyboards/Dactylv2led/keymaps/Default/keymap.c **** 	if(record->event.pressed) 
 297:keyboards/Dactylv2led/keymaps/Default/keymap.c **** 		return MACRO( I(10),T(TAB), T(O), T(T), T(TAB),T(ENTER), T(TAB),T(TAB),T(TAB),T(Z),T(R),T(TAB),T(
 298:keyboards/Dactylv2led/keymaps/Default/keymap.c **** 	}	
 299:keyboards/Dactylv2led/keymaps/Default/keymap.c **** 		case 14: {
 300:keyboards/Dactylv2led/keymaps/Default/keymap.c **** 	if(record->event.pressed) 
 301:keyboards/Dactylv2led/keymaps/Default/keymap.c **** 		return MACRO( I(10),T(TAB), T(I), T(N), T(TAB),T(ENTER), T(TAB),T(TAB),T(TAB),T(I),T(N),T(TAB),T(
 302:keyboards/Dactylv2led/keymaps/Default/keymap.c **** 	}	
 303:keyboards/Dactylv2led/keymaps/Default/keymap.c **** 		case 15: {
 304:keyboards/Dactylv2led/keymaps/Default/keymap.c **** 	if(record->event.pressed) 
 305:keyboards/Dactylv2led/keymaps/Default/keymap.c **** 		SEND_STRING("username"SS_TAP(X_TAB)"pass"SS_TAP(X_TAB)SS_TAP(X_ENTER));//allows sending password 
 306:keyboards/Dactylv2led/keymaps/Default/keymap.c **** 		return false; break;
 307:keyboards/Dactylv2led/keymaps/Default/keymap.c **** 	}	
 308:keyboards/Dactylv2led/keymaps/Default/keymap.c **** 		break;
 309:keyboards/Dactylv2led/keymaps/Default/keymap.c **** 	}		
 310:keyboards/Dactylv2led/keymaps/Default/keymap.c **** 	return MACRO_NONE;
 311:keyboards/Dactylv2led/keymaps/Default/keymap.c **** }
 312:keyboards/Dactylv2led/keymaps/Default/keymap.c **** //return MACRO_NONE;
 313:keyboards/Dactylv2led/keymaps/Default/keymap.c **** 
 314:keyboards/Dactylv2led/keymaps/Default/keymap.c **** 
 315:keyboards/Dactylv2led/keymaps/Default/keymap.c **** void cmd_commands(qk_tap_dance_state_t *state, void *user_data) {
  16               		.loc 1 315 0
  17               		.cfi_startproc
  18               	.LVL0:
  19               	/* prologue: function */
  20               	/* frame size = 0 */
  21               	/* stack size = 0 */
  22               	.L__stack_usage = 0
 316:keyboards/Dactylv2led/keymaps/Default/keymap.c **** 	if (state->count == 1) {
  23               		.loc 1 316 0
  24 0000 FC01      		movw r30,r24
  25 0002 8081      		ld r24,Z
  26               	.LVL1:
  27 0004 8130      		cpi r24,lo8(1)
  28 0006 01F4      		brne .L2
 317:keyboards/Dactylv2led/keymaps/Default/keymap.c **** 		action_macro_play(MACRO(D(LCTRL), T(C), U(LCTRL),END));
  29               		.loc 1 317 0
  30 0008 80E0      		ldi r24,lo8(__m.3346)
  31 000a 90E0      		ldi r25,hi8(__m.3346)
  32 000c 00C0      		rjmp .L4
  33               	.L2:
 318:keyboards/Dactylv2led/keymaps/Default/keymap.c **** 	}
 319:keyboards/Dactylv2led/keymaps/Default/keymap.c **** 	else if (state->count ==2){
  34               		.loc 1 319 0
  35 000e 8230      		cpi r24,lo8(2)
  36 0010 01F4      		brne .L3
 320:keyboards/Dactylv2led/keymaps/Default/keymap.c **** 		action_macro_play(MACRO(D(LCTRL), T(V), U(LCTRL),END));
  37               		.loc 1 320 0
  38 0012 80E0      		ldi r24,lo8(__m.3348)
  39 0014 90E0      		ldi r25,hi8(__m.3348)
  40 0016 00C0      		rjmp .L4
  41               	.L3:
 321:keyboards/Dactylv2led/keymaps/Default/keymap.c **** 	}
 322:keyboards/Dactylv2led/keymaps/Default/keymap.c **** 	else {
 323:keyboards/Dactylv2led/keymaps/Default/keymap.c **** 		action_macro_play(MACRO(D(LCTRL), T(A), T(C), U(LCTRL),END));
  42               		.loc 1 323 0
  43 0018 80E0      		ldi r24,lo8(__m.3350)
  44 001a 90E0      		ldi r25,hi8(__m.3350)
  45               	.L4:
  46 001c 0C94 0000 		jmp action_macro_play
  47               	.LVL2:
  48               		.cfi_endproc
  49               	.LFE15:
  51               		.section	.text.cmd,"ax",@progbits
  52               	.global	cmd
  54               	cmd:
  55               	.LFB16:
 324:keyboards/Dactylv2led/keymaps/Default/keymap.c **** 	}
 325:keyboards/Dactylv2led/keymaps/Default/keymap.c **** }
 326:keyboards/Dactylv2led/keymaps/Default/keymap.c **** 
 327:keyboards/Dactylv2led/keymaps/Default/keymap.c **** 
 328:keyboards/Dactylv2led/keymaps/Default/keymap.c **** void cmd(qk_tap_dance_state_t *state, void *user_data) {
  56               		.loc 1 328 0
  57               		.cfi_startproc
  58               	.LVL3:
  59               	/* prologue: function */
  60               	/* frame size = 0 */
  61               	/* stack size = 0 */
  62               	.L__stack_usage = 0
 329:keyboards/Dactylv2led/keymaps/Default/keymap.c **** 	if(state->count==1){
  63               		.loc 1 329 0
  64 0000 FC01      		movw r30,r24
  65 0002 8081      		ld r24,Z
  66               	.LVL4:
  67 0004 8130      		cpi r24,lo8(1)
  68 0006 01F4      		brne .L7
 330:keyboards/Dactylv2led/keymaps/Default/keymap.c **** 		action_macro_play(MACRO(D(LGUI), T(R),W(255), U(LGUI),W(255), T(C), T(M), T(D), T(ENTER),END));
  69               		.loc 1 330 0
  70 0008 80E0      		ldi r24,lo8(__m.3356)
  71 000a 90E0      		ldi r25,hi8(__m.3356)
  72 000c 00C0      		rjmp .L9
  73               	.L7:
 331:keyboards/Dactylv2led/keymaps/Default/keymap.c **** 	}
 332:keyboards/Dactylv2led/keymaps/Default/keymap.c **** 	else if (state->count == 2) {
  74               		.loc 1 332 0
  75 000e 8230      		cpi r24,lo8(2)
  76 0010 01F4      		brne .L8
 333:keyboards/Dactylv2led/keymaps/Default/keymap.c **** 		action_macro_play(MACRO(D(LGUI), T(R), U(LGUI), T(C), T(M), T(D), T(ENTER),W(255),W(255), T(I), T
  77               		.loc 1 333 0
  78 0012 80E0      		ldi r24,lo8(__m.3358)
  79 0014 90E0      		ldi r25,hi8(__m.3358)
  80 0016 00C0      		rjmp .L9
  81               	.L8:
 334:keyboards/Dactylv2led/keymaps/Default/keymap.c **** 	}
 335:keyboards/Dactylv2led/keymaps/Default/keymap.c **** 	else{
 336:keyboards/Dactylv2led/keymaps/Default/keymap.c **** 		action_macro_play(MACRO(D(LGUI), T(R),W(255), U(LGUI),W(255), T(C), T(M), T(D), T(ENTER), W(255),
  82               		.loc 1 336 0
  83 0018 80E0      		ldi r24,lo8(__m.3360)
  84 001a 90E0      		ldi r25,hi8(__m.3360)
  85               	.L9:
  86 001c 0C94 0000 		jmp action_macro_play
  87               	.LVL5:
  88               		.cfi_endproc
  89               	.LFE16:
  91               		.section	.text.VirtualDesktop,"ax",@progbits
  92               	.global	VirtualDesktop
  94               	VirtualDesktop:
  95               	.LFB18:
 337:keyboards/Dactylv2led/keymaps/Default/keymap.c **** 	}
 338:keyboards/Dactylv2led/keymaps/Default/keymap.c **** }
 339:keyboards/Dactylv2led/keymaps/Default/keymap.c **** void SLSH_BSLSH(qk_tap_dance_state_t *state, void *user_data) {
 340:keyboards/Dactylv2led/keymaps/Default/keymap.c **** 	if (state->count == 1) {
 341:keyboards/Dactylv2led/keymaps/Default/keymap.c **** 		register_code (KC_SLSH);
 342:keyboards/Dactylv2led/keymaps/Default/keymap.c **** 		unregister_code (KC_SLSH);
 343:keyboards/Dactylv2led/keymaps/Default/keymap.c **** 	}
 344:keyboards/Dactylv2led/keymaps/Default/keymap.c **** 	else{
 345:keyboards/Dactylv2led/keymaps/Default/keymap.c **** 		register_code (KC_BSLS);
 346:keyboards/Dactylv2led/keymaps/Default/keymap.c **** 		unregister_code (KC_BSLS);
 347:keyboards/Dactylv2led/keymaps/Default/keymap.c **** 	}
 348:keyboards/Dactylv2led/keymaps/Default/keymap.c **** }
 349:keyboards/Dactylv2led/keymaps/Default/keymap.c **** void VirtualDesktop(qk_tap_dance_state_t *state, void *user_data) {
  96               		.loc 1 349 0
  97               		.cfi_startproc
  98               	.LVL6:
  99               	/* prologue: function */
 100               	/* frame size = 0 */
 101               	/* stack size = 0 */
 102               	.L__stack_usage = 0
 350:keyboards/Dactylv2led/keymaps/Default/keymap.c **** 	if (state->count == 1) 
 103               		.loc 1 350 0
 104 0000 FC01      		movw r30,r24
 105 0002 8081      		ld r24,Z
 106               	.LVL7:
 107 0004 8130      		cpi r24,lo8(1)
 108 0006 01F4      		brne .L11
 351:keyboards/Dactylv2led/keymaps/Default/keymap.c **** 		action_macro_play(MACRO(D(LGUI),D(LCTRL),T(LEFT),U(LCTRL),U(LGUI),END));
 109               		.loc 1 351 0
 110 0008 80E0      		ldi r24,lo8(__m.3370)
 111 000a 90E0      		ldi r25,hi8(__m.3370)
 112 000c 00C0      		rjmp .L13
 113               	.L11:
 352:keyboards/Dactylv2led/keymaps/Default/keymap.c **** 	else if(state->count==2)
 114               		.loc 1 352 0
 115 000e 8230      		cpi r24,lo8(2)
 116 0010 01F4      		brne .L10
 353:keyboards/Dactylv2led/keymaps/Default/keymap.c **** 		action_macro_play(MACRO(D(LGUI),D(LCTRL),T(RIGHT),U(LCTRL),U(LGUI),END));
 117               		.loc 1 353 0
 118 0012 80E0      		ldi r24,lo8(__m.3372)
 119 0014 90E0      		ldi r25,hi8(__m.3372)
 120               	.L13:
 121 0016 0C94 0000 		jmp action_macro_play
 122               	.LVL8:
 123               	.L10:
 124 001a 0895      		ret
 125               		.cfi_endproc
 126               	.LFE18:
 128               		.section	.text.SLSH_BSLSH,"ax",@progbits
 129               	.global	SLSH_BSLSH
 131               	SLSH_BSLSH:
 132               	.LFB17:
 339:keyboards/Dactylv2led/keymaps/Default/keymap.c **** void SLSH_BSLSH(qk_tap_dance_state_t *state, void *user_data) {
 133               		.loc 1 339 0
 134               		.cfi_startproc
 135               	.LVL9:
 136               	/* prologue: function */
 137               	/* frame size = 0 */
 138               	/* stack size = 0 */
 139               	.L__stack_usage = 0
 340:keyboards/Dactylv2led/keymaps/Default/keymap.c **** 	if (state->count == 1) {
 140               		.loc 1 340 0
 141 0000 FC01      		movw r30,r24
 142 0002 8081      		ld r24,Z
 143               	.LVL10:
 144 0004 8130      		cpi r24,lo8(1)
 145 0006 01F4      		brne .L15
 341:keyboards/Dactylv2led/keymaps/Default/keymap.c **** 		register_code (KC_SLSH);
 146               		.loc 1 341 0
 147 0008 88E3      		ldi r24,lo8(56)
 148 000a 0E94 0000 		call register_code
 149               	.LVL11:
 342:keyboards/Dactylv2led/keymaps/Default/keymap.c **** 		unregister_code (KC_SLSH);
 150               		.loc 1 342 0
 151 000e 88E3      		ldi r24,lo8(56)
 152 0010 00C0      		rjmp .L16
 153               	.LVL12:
 154               	.L15:
 345:keyboards/Dactylv2led/keymaps/Default/keymap.c **** 		register_code (KC_BSLS);
 155               		.loc 1 345 0
 156 0012 81E3      		ldi r24,lo8(49)
 157 0014 0E94 0000 		call register_code
 158               	.LVL13:
 346:keyboards/Dactylv2led/keymaps/Default/keymap.c **** 		unregister_code (KC_BSLS);
 159               		.loc 1 346 0
 160 0018 81E3      		ldi r24,lo8(49)
 161               	.L16:
 162 001a 0C94 0000 		jmp unregister_code
 163               	.LVL14:
 164               		.cfi_endproc
 165               	.LFE17:
 167               		.section	.text.persistent_default_layer_set,"ax",@progbits
 168               	.global	persistent_default_layer_set
 170               	persistent_default_layer_set:
 171               	.LFB13:
 233:keyboards/Dactylv2led/keymaps/Default/keymap.c **** void persistent_default_layer_set(uint16_t default_layer) {
 172               		.loc 1 233 0
 173               		.cfi_startproc
 174               	.LVL15:
 175 0000 CF93      		push r28
 176               	.LCFI0:
 177               		.cfi_def_cfa_offset 3
 178               		.cfi_offset 28, -2
 179 0002 DF93      		push r29
 180               	.LCFI1:
 181               		.cfi_def_cfa_offset 4
 182               		.cfi_offset 29, -3
 183               	/* prologue: function */
 184               	/* frame size = 0 */
 185               	/* stack size = 2 */
 186               	.L__stack_usage = 2
 187 0004 EC01      		movw r28,r24
 234:keyboards/Dactylv2led/keymaps/Default/keymap.c **** 	eeconfig_update_default_layer(default_layer);
 188               		.loc 1 234 0
 189 0006 0E94 0000 		call eeconfig_update_default_layer
 190               	.LVL16:
 235:keyboards/Dactylv2led/keymaps/Default/keymap.c **** 	default_layer_set(default_layer);
 191               		.loc 1 235 0
 192 000a BE01      		movw r22,r28
 193 000c 80E0      		ldi r24,0
 194 000e 90E0      		ldi r25,0
 195               	/* epilogue start */
 236:keyboards/Dactylv2led/keymaps/Default/keymap.c **** }
 196               		.loc 1 236 0
 197 0010 DF91      		pop r29
 198 0012 CF91      		pop r28
 199               	.LVL17:
 235:keyboards/Dactylv2led/keymaps/Default/keymap.c **** 	default_layer_set(default_layer);
 200               		.loc 1 235 0
 201 0014 0C94 0000 		jmp default_layer_set
 202               	.LVL18:
 203               		.cfi_endproc
 204               	.LFE13:
 206               		.section	.text.action_get_macro,"ax",@progbits
 207               	.global	action_get_macro
 209               	action_get_macro:
 210               	.LFB14:
 246:keyboards/Dactylv2led/keymaps/Default/keymap.c **** const macro_t *action_get_macro(keyrecord_t *record, uint8_t id, uint8_t opt) {
 211               		.loc 1 246 0
 212               		.cfi_startproc
 213               	.LVL19:
 214               	/* prologue: function */
 215               	/* frame size = 0 */
 216               	/* stack size = 0 */
 217               	.L__stack_usage = 0
 218 0000 DC01      		movw r26,r24
 248:keyboards/Dactylv2led/keymaps/Default/keymap.c **** 	switch (id) {
 219               		.loc 1 248 0
 220 0002 462F      		mov r20,r22
 221               	.LVL20:
 222 0004 50E0      		ldi r21,0
 223 0006 4031      		cpi r20,16
 224 0008 5105      		cpc r21,__zero_reg__
 225 000a 00F0      		brlo .+2
 226 000c 00C0      		rjmp .L47
 227 000e 4050      		subi r20,lo8(-(gs(.L21)))
 228 0010 5040      		sbci r21,hi8(-(gs(.L21)))
 229 0012 FA01      		movw r30,r20
 230 0014 0C94 0000 		jmp __tablejump2__
 231               		.section	.progmem.gcc_sw_table.action_get_macro,"a",@progbits
 232               		.p2align	1
 233               	.L21:
 234 0000 0000      		.word gs(.L20)
 235 0002 0000      		.word gs(.L22)
 236 0004 0000      		.word gs(.L23)
 237 0006 0000      		.word gs(.L24)
 238 0008 0000      		.word gs(.L25)
 239 000a 0000      		.word gs(.L26)
 240 000c 0000      		.word gs(.L27)
 241 000e 0000      		.word gs(.L47)
 242 0010 0000      		.word gs(.L47)
 243 0012 0000      		.word gs(.L47)
 244 0014 0000      		.word gs(.L28)
 245 0016 0000      		.word gs(.L29)
 246 0018 0000      		.word gs(.L30)
 247 001a 0000      		.word gs(.L31)
 248 001c 0000      		.word gs(.L32)
 249 001e 0000      		.word gs(.L33)
 250               		.section	.text.action_get_macro
 251               	.L20:
 250:keyboards/Dactylv2led/keymaps/Default/keymap.c **** 		if (record->event.pressed) {
 252               		.loc 1 250 0
 253 0018 1296      		adiw r26,2
 254 001a 8C91      		ld r24,X
 255 001c 1297      		sbiw r26,2
 256               	.LVL21:
 257 001e 8111      		cpse r24,__zero_reg__
 258 0020 00C0      		rjmp .L38
 259               	.L22:
 254:keyboards/Dactylv2led/keymaps/Default/keymap.c **** 		if (record->event.pressed) {
 260               		.loc 1 254 0
 261 0022 1296      		adiw r26,2
 262 0024 8C91      		ld r24,X
 263 0026 1297      		sbiw r26,2
 264 0028 8111      		cpse r24,__zero_reg__
 265 002a 00C0      		rjmp .L39
 266               	.L23:
 260:keyboards/Dactylv2led/keymaps/Default/keymap.c **** 		if (record->event.pressed) {
 267               		.loc 1 260 0
 268 002c 1296      		adiw r26,2
 269 002e 8C91      		ld r24,X
 270 0030 1297      		sbiw r26,2
 271 0032 8823      		tst r24
 272 0034 01F0      		breq .L24
 261:keyboards/Dactylv2led/keymaps/Default/keymap.c **** 			SEND_STRING("email");// auto send email
 273               		.loc 1 261 0
 274 0036 80E0      		ldi r24,lo8(__c.3308)
 275 0038 90E0      		ldi r25,hi8(__c.3308)
 276 003a 00C0      		rjmp .L66
 277               	.L24:
 265:keyboards/Dactylv2led/keymaps/Default/keymap.c **** 		if (record->event.pressed) {
 278               		.loc 1 265 0
 279 003c 1296      		adiw r26,2
 280 003e 8C91      		ld r24,X
 281 0040 1297      		sbiw r26,2
 282 0042 8823      		tst r24
 283 0044 01F0      		breq .L25
 266:keyboards/Dactylv2led/keymaps/Default/keymap.c **** 			SEND_STRING("www.support.xerox.com"SS_TAP(X_ENTER));
 284               		.loc 1 266 0
 285 0046 80E0      		ldi r24,lo8(__c.3311)
 286 0048 90E0      		ldi r25,hi8(__c.3311)
 287 004a 00C0      		rjmp .L66
 288               	.L25:
 270:keyboards/Dactylv2led/keymaps/Default/keymap.c **** 		if(record->event.pressed) {
 289               		.loc 1 270 0
 290 004c 1296      		adiw r26,2
 291 004e 8C91      		ld r24,X
 292 0050 1297      		sbiw r26,2
 293 0052 8111      		cpse r24,__zero_reg__
 294 0054 00C0      		rjmp .L40
 295               	.L26:
 275:keyboards/Dactylv2led/keymaps/Default/keymap.c **** 			return  MACRO_TAP_HOLD_LAYER(record, MACRO(TYPE(KC_X), END), _LOWER);	
 296               		.loc 1 275 0
 297 0056 1296      		adiw r26,2
 298 0058 9C91      		ld r25,X
 299 005a 1297      		sbiw r26,2
 300 005c 1596      		adiw r26,5
 301 005e 8C91      		ld r24,X
 302 0060 9923      		tst r25
 303 0062 01F0      		breq .L34
 275:keyboards/Dactylv2led/keymaps/Default/keymap.c **** 			return  MACRO_TAP_HOLD_LAYER(record, MACRO(TYPE(KC_X), END), _LOWER);	
 304               		.loc 1 275 0 is_stmt 0 discriminator 1
 305 0064 982F      		mov r25,r24
 306 0066 9295      		swap r25
 307 0068 9F70      		andi r25,lo8(15)
 308 006a 01F0      		breq .L35
 275:keyboards/Dactylv2led/keymaps/Default/keymap.c **** 			return  MACRO_TAP_HOLD_LAYER(record, MACRO(TYPE(KC_X), END), _LOWER);	
 309               		.loc 1 275 0 discriminator 4
 310 006c 80FF      		sbrs r24,0
 311 006e 00C0      		rjmp .L47
 312               	.L35:
 313               	.LBB2:
 275:keyboards/Dactylv2led/keymaps/Default/keymap.c **** 			return  MACRO_TAP_HOLD_LAYER(record, MACRO(TYPE(KC_X), END), _LOWER);	
 314               		.loc 1 275 0 discriminator 3
 315 0070 83E0      		ldi r24,lo8(3)
 316 0072 0E94 0000 		call layer_on
 317               	.LVL22:
 318 0076 00C0      		rjmp .L47
 319               	.LVL23:
 320               	.L34:
 321               	.LBE2:
 275:keyboards/Dactylv2led/keymaps/Default/keymap.c **** 			return  MACRO_TAP_HOLD_LAYER(record, MACRO(TYPE(KC_X), END), _LOWER);	
 322               		.loc 1 275 0 discriminator 2
 323 0078 982F      		mov r25,r24
 324 007a 9295      		swap r25
 325 007c 9F70      		andi r25,lo8(15)
 326 007e 01F0      		breq .L36
 275:keyboards/Dactylv2led/keymaps/Default/keymap.c **** 			return  MACRO_TAP_HOLD_LAYER(record, MACRO(TYPE(KC_X), END), _LOWER);	
 327               		.loc 1 275 0 discriminator 6
 328 0080 80FF      		sbrs r24,0
 329 0082 00C0      		rjmp .L42
 330               	.L36:
 331               	.LBB3:
 275:keyboards/Dactylv2led/keymaps/Default/keymap.c **** 			return  MACRO_TAP_HOLD_LAYER(record, MACRO(TYPE(KC_X), END), _LOWER);	
 332               		.loc 1 275 0 discriminator 7
 333 0084 83E0      		ldi r24,lo8(3)
 334 0086 0E94 0000 		call layer_off
 335               	.LVL24:
 336 008a 00C0      		rjmp .L47
 337               	.LVL25:
 338               	.L27:
 339               	.LBE3:
 278:keyboards/Dactylv2led/keymaps/Default/keymap.c **** 			if(record->event.pressed) 
 340               		.loc 1 278 0 is_stmt 1
 341 008c 1296      		adiw r26,2
 342 008e 8C91      		ld r24,X
 343 0090 1297      		sbiw r26,2
 344               	.LVL26:
 345 0092 8111      		cpse r24,__zero_reg__
 346 0094 00C0      		rjmp .L43
 347               	.L28:
 282:keyboards/Dactylv2led/keymaps/Default/keymap.c **** 		if(record->event.pressed) {
 348               		.loc 1 282 0
 349 0096 1296      		adiw r26,2
 350 0098 8C91      		ld r24,X
 351 009a 1297      		sbiw r26,2
 352 009c 8823      		tst r24
 353 009e 01F0      		breq .L29
 283:keyboards/Dactylv2led/keymaps/Default/keymap.c **** 		SEND_STRING(""); //send string
 354               		.loc 1 283 0
 355 00a0 80E0      		ldi r24,lo8(__c.3325)
 356 00a2 90E0      		ldi r25,hi8(__c.3325)
 357 00a4 00C0      		rjmp .L66
 358               	.L29:
 287:keyboards/Dactylv2led/keymaps/Default/keymap.c **** 		if(record->event.pressed) {
 359               		.loc 1 287 0
 360 00a6 1296      		adiw r26,2
 361 00a8 8C91      		ld r24,X
 362 00aa 1297      		sbiw r26,2
 363 00ac 8823      		tst r24
 364 00ae 01F0      		breq .L30
 288:keyboards/Dactylv2led/keymaps/Default/keymap.c **** 			SEND_STRING("ipconfig /all");
 365               		.loc 1 288 0
 366 00b0 80E0      		ldi r24,lo8(__c.3328)
 367 00b2 90E0      		ldi r25,hi8(__c.3328)
 368 00b4 00C0      		rjmp .L66
 369               	.L30:
 292:keyboards/Dactylv2led/keymaps/Default/keymap.c **** 	if(record->event.pressed) 
 370               		.loc 1 292 0
 371 00b6 1296      		adiw r26,2
 372 00b8 8C91      		ld r24,X
 373 00ba 1297      		sbiw r26,2
 374 00bc 8111      		cpse r24,__zero_reg__
 375 00be 00C0      		rjmp .L44
 376               	.L31:
 296:keyboards/Dactylv2led/keymaps/Default/keymap.c **** 	if(record->event.pressed) 
 377               		.loc 1 296 0
 378 00c0 1296      		adiw r26,2
 379 00c2 8C91      		ld r24,X
 380 00c4 1297      		sbiw r26,2
 381 00c6 8111      		cpse r24,__zero_reg__
 382 00c8 00C0      		rjmp .L45
 383               	.L32:
 300:keyboards/Dactylv2led/keymaps/Default/keymap.c **** 	if(record->event.pressed) 
 384               		.loc 1 300 0
 385 00ca 1296      		adiw r26,2
 386 00cc 8C91      		ld r24,X
 387 00ce 1297      		sbiw r26,2
 388 00d0 8111      		cpse r24,__zero_reg__
 389 00d2 00C0      		rjmp .L46
 390               	.L33:
 304:keyboards/Dactylv2led/keymaps/Default/keymap.c **** 	if(record->event.pressed) 
 391               		.loc 1 304 0
 392 00d4 1296      		adiw r26,2
 393 00d6 8C91      		ld r24,X
 394 00d8 8823      		tst r24
 395 00da 01F0      		breq .L47
 305:keyboards/Dactylv2led/keymaps/Default/keymap.c **** 		SEND_STRING("username"SS_TAP(X_TAB)"pass"SS_TAP(X_TAB)SS_TAP(X_ENTER));//allows sending password 
 396               		.loc 1 305 0
 397 00dc 80E0      		ldi r24,lo8(__c.3340)
 398 00de 90E0      		ldi r25,hi8(__c.3340)
 399               	.L66:
 400 00e0 0E94 0000 		call send_string_P
 401               	.LVL27:
 402 00e4 00C0      		rjmp .L47
 403               	.LVL28:
 404               	.L38:
 251:keyboards/Dactylv2led/keymaps/Default/keymap.c **** 			return MACRO(D(LGUI), T(TAB), U(LGUI), END);
 405               		.loc 1 251 0
 406 00e6 80E0      		ldi r24,lo8(__m.3302)
 407 00e8 90E0      		ldi r25,hi8(__m.3302)
 408 00ea 0895      		ret
 409               	.L39:
 257:keyboards/Dactylv2led/keymaps/Default/keymap.c **** 			return MACRO(I(10), T(A), T(D), T(M), T(I), T(N), W(75), T(TAB), T(1), T(1),T(1), T(1), T(ENTER)
 410               		.loc 1 257 0
 411 00ec 80E0      		ldi r24,lo8(__m.3305)
 412 00ee 90E0      		ldi r25,hi8(__m.3305)
 413 00f0 0895      		ret
 414               	.L40:
 271:keyboards/Dactylv2led/keymaps/Default/keymap.c **** 			return MACRO(I(10), D(LCTRL), T(T), T(V), T(ENTER), U(LCTRL), END);
 415               		.loc 1 271 0
 416 00f2 80E0      		ldi r24,lo8(__m.3314)
 417 00f4 90E0      		ldi r25,hi8(__m.3314)
 418 00f6 0895      		ret
 419               	.L42:
 275:keyboards/Dactylv2led/keymaps/Default/keymap.c **** 			return  MACRO_TAP_HOLD_LAYER(record, MACRO(TYPE(KC_X), END), _LOWER);	
 420               		.loc 1 275 0
 421 00f8 80E0      		ldi r24,lo8(__m.3318)
 422 00fa 90E0      		ldi r25,hi8(__m.3318)
 423 00fc 0895      		ret
 424               	.L43:
 279:keyboards/Dactylv2led/keymaps/Default/keymap.c **** 			return MACRO(I(10), T(0), T(C), T(TAB), T(TAB), T(A), T(TAB), END);
 425               		.loc 1 279 0
 426 00fe 80E0      		ldi r24,lo8(__m.3322)
 427 0100 90E0      		ldi r25,hi8(__m.3322)
 428 0102 0895      		ret
 429               	.L44:
 293:keyboards/Dactylv2led/keymaps/Default/keymap.c **** 		return MACRO( I(10),T(TAB), T(O), T(P), T(TAB),T(ENTER), T(TAB),T(TAB),T(TAB),T(Z),T(R),T(TAB),T(
 430               		.loc 1 293 0
 431 0104 80E0      		ldi r24,lo8(__m.3331)
 432 0106 90E0      		ldi r25,hi8(__m.3331)
 433 0108 0895      		ret
 434               	.L45:
 297:keyboards/Dactylv2led/keymaps/Default/keymap.c **** 		return MACRO( I(10),T(TAB), T(O), T(T), T(TAB),T(ENTER), T(TAB),T(TAB),T(TAB),T(Z),T(R),T(TAB),T(
 435               		.loc 1 297 0
 436 010a 80E0      		ldi r24,lo8(__m.3334)
 437 010c 90E0      		ldi r25,hi8(__m.3334)
 438 010e 0895      		ret
 439               	.L46:
 301:keyboards/Dactylv2led/keymaps/Default/keymap.c **** 		return MACRO( I(10),T(TAB), T(I), T(N), T(TAB),T(ENTER), T(TAB),T(TAB),T(TAB),T(I),T(N),T(TAB),T(
 440               		.loc 1 301 0
 441 0110 80E0      		ldi r24,lo8(__m.3337)
 442 0112 90E0      		ldi r25,hi8(__m.3337)
 443 0114 0895      		ret
 444               	.LVL29:
 445               	.L47:
 275:keyboards/Dactylv2led/keymaps/Default/keymap.c **** 			return  MACRO_TAP_HOLD_LAYER(record, MACRO(TYPE(KC_X), END), _LOWER);	
 446               		.loc 1 275 0
 447 0116 80E0      		ldi r24,0
 448 0118 90E0      		ldi r25,0
 311:keyboards/Dactylv2led/keymaps/Default/keymap.c **** }
 449               		.loc 1 311 0
 450 011a 0895      		ret
 451               		.cfi_endproc
 452               	.LFE14:
 454               		.section	.text.matrix_init_user,"ax",@progbits
 455               	.global	matrix_init_user
 457               	matrix_init_user:
 458               	.LFB19:
 354:keyboards/Dactylv2led/keymaps/Default/keymap.c **** }
 355:keyboards/Dactylv2led/keymaps/Default/keymap.c **** 	
 356:keyboards/Dactylv2led/keymaps/Default/keymap.c **** qk_tap_dance_action_t tap_dance_actions[] = {
 357:keyboards/Dactylv2led/keymaps/Default/keymap.c **** 	
 358:keyboards/Dactylv2led/keymaps/Default/keymap.c **** 	//Tap once for Esc, twice for Caps Lock
 359:keyboards/Dactylv2led/keymaps/Default/keymap.c **** 	[TD_CPY_PST] = ACTION_TAP_DANCE_FN(cmd_commands),
 360:keyboards/Dactylv2led/keymaps/Default/keymap.c **** 	[TD_SLSH]= ACTION_TAP_DANCE_FN(SLSH_BSLSH),
 361:keyboards/Dactylv2led/keymaps/Default/keymap.c **** 	[TD_CMD]=ACTION_TAP_DANCE_FN(cmd),
 362:keyboards/Dactylv2led/keymaps/Default/keymap.c **** 	[TD_VRDSK]=ACTION_TAP_DANCE_FN(VirtualDesktop)
 363:keyboards/Dactylv2led/keymaps/Default/keymap.c **** };
 364:keyboards/Dactylv2led/keymaps/Default/keymap.c **** 
 365:keyboards/Dactylv2led/keymaps/Default/keymap.c **** void matrix_init_user(void) {
 459               		.loc 1 365 0
 460               		.cfi_startproc
 461               	/* prologue: function */
 462               	/* frame size = 0 */
 463               	/* stack size = 0 */
 464               	.L__stack_usage = 0
 465 0000 0895      		ret
 466               		.cfi_endproc
 467               	.LFE19:
 469               		.section	.text.matrix_scan_user,"ax",@progbits
 470               	.global	matrix_scan_user
 472               	matrix_scan_user:
 473               	.LFB20:
 366:keyboards/Dactylv2led/keymaps/Default/keymap.c **** }
 367:keyboards/Dactylv2led/keymaps/Default/keymap.c **** 
 368:keyboards/Dactylv2led/keymaps/Default/keymap.c **** void matrix_scan_user(void) {
 474               		.loc 1 368 0
 475               		.cfi_startproc
 476               	/* prologue: function */
 477               	/* frame size = 0 */
 478               	/* stack size = 0 */
 479               	.L__stack_usage = 0
 480 0000 0895      		ret
 481               		.cfi_endproc
 482               	.LFE20:
 484               		.section	.text.process_record_user,"ax",@progbits
 485               	.global	process_record_user
 487               	process_record_user:
 488               	.LFB21:
 369:keyboards/Dactylv2led/keymaps/Default/keymap.c **** 	
 370:keyboards/Dactylv2led/keymaps/Default/keymap.c **** 	
 371:keyboards/Dactylv2led/keymaps/Default/keymap.c **** }
 372:keyboards/Dactylv2led/keymaps/Default/keymap.c **** bool process_record_user(uint16_t keycode, keyrecord_t *record) {
 489               		.loc 1 372 0
 490               		.cfi_startproc
 491               	.LVL30:
 492               		.loc 1 372 0
 493 0000 CF93      		push r28
 494               	.LCFI2:
 495               		.cfi_def_cfa_offset 3
 496               		.cfi_offset 28, -2
 497               	/* prologue: function */
 498               	/* frame size = 0 */
 499               	/* stack size = 1 */
 500               	.L__stack_usage = 1
 501 0002 FB01      		movw r30,r22
 373:keyboards/Dactylv2led/keymaps/Default/keymap.c **** 	switch (keycode) {
 502               		.loc 1 373 0
 503 0004 8C3D      		cpi r24,-36
 504 0006 2CE5      		ldi r18,92
 505 0008 9207      		cpc r25,r18
 506 000a 01F0      		breq .L71
 507 000c 00F4      		brsh .L72
 508 000e 8A3D      		cpi r24,-38
 509 0010 2CE5      		ldi r18,92
 510 0012 9207      		cpc r25,r18
 511 0014 01F0      		breq .L73
 512 0016 8B3D      		cpi r24,-37
 513 0018 9C45      		sbci r25,92
 514 001a 01F0      		breq .L74
 515 001c 00C0      		rjmp .L81
 516               	.L72:
 517 001e 8E3D      		cpi r24,-34
 518 0020 2CE5      		ldi r18,92
 519 0022 9207      		cpc r25,r18
 520 0024 01F0      		breq .L75
 521 0026 00F0      		brlo .L76
 522 0028 803E      		cpi r24,-32
 523 002a 9C45      		sbci r25,92
 524 002c 01F0      		breq .L77
 525 002e 00C0      		rjmp .L81
 526               	.L74:
 374:keyboards/Dactylv2led/keymaps/Default/keymap.c **** 	case QWERTY:
 375:keyboards/Dactylv2led/keymaps/Default/keymap.c **** 		if (record->event.pressed) {
 527               		.loc 1 375 0
 528 0030 C281      		ldd r28,Z+2
 529 0032 CC23      		tst r28
 530 0034 01F0      		breq .L70
 376:keyboards/Dactylv2led/keymaps/Default/keymap.c **** 			#ifdef AUDIO_ENABLE
 377:keyboards/Dactylv2led/keymaps/Default/keymap.c **** 			PLAY_NOTE_ARRAY(tone_qwerty, false, 0);
 378:keyboards/Dactylv2led/keymaps/Default/keymap.c **** 			#endif
 379:keyboards/Dactylv2led/keymaps/Default/keymap.c **** 			persistent_default_layer_set(1UL<<_QWERTY);
 531               		.loc 1 379 0
 532 0036 81E0      		ldi r24,lo8(1)
 533 0038 90E0      		ldi r25,0
 534               	.LVL31:
 535 003a 00C0      		rjmp .L92
 536               	.LVL32:
 537               	.L73:
 380:keyboards/Dactylv2led/keymaps/Default/keymap.c **** 		}
 381:keyboards/Dactylv2led/keymaps/Default/keymap.c **** 		return false;
 382:keyboards/Dactylv2led/keymaps/Default/keymap.c **** 		break;
 383:keyboards/Dactylv2led/keymaps/Default/keymap.c **** 	case COLEMAK:
 384:keyboards/Dactylv2led/keymaps/Default/keymap.c **** 		if (record->event.pressed) {
 538               		.loc 1 384 0
 539 003c C281      		ldd r28,Z+2
 540 003e CC23      		tst r28
 541 0040 01F0      		breq .L70
 385:keyboards/Dactylv2led/keymaps/Default/keymap.c **** 			#ifdef AUDIO_ENABLE
 386:keyboards/Dactylv2led/keymaps/Default/keymap.c **** 			PLAY_NOTE_ARRAY(tone_colemak, false, 0);
 387:keyboards/Dactylv2led/keymaps/Default/keymap.c **** 			#endif
 388:keyboards/Dactylv2led/keymaps/Default/keymap.c **** 			persistent_default_layer_set(1UL<<_COLEMAK);
 542               		.loc 1 388 0
 543 0042 82E0      		ldi r24,lo8(2)
 544 0044 90E0      		ldi r25,0
 545               	.LVL33:
 546               	.L92:
 547 0046 0E94 0000 		call persistent_default_layer_set
 548               	.LVL34:
 549 004a 00C0      		rjmp .L91
 550               	.LVL35:
 551               	.L71:
 389:keyboards/Dactylv2led/keymaps/Default/keymap.c **** 		}
 390:keyboards/Dactylv2led/keymaps/Default/keymap.c **** 		return false;
 391:keyboards/Dactylv2led/keymaps/Default/keymap.c **** 		break;
 392:keyboards/Dactylv2led/keymaps/Default/keymap.c **** 	case DVORAK:
 393:keyboards/Dactylv2led/keymaps/Default/keymap.c **** 		if (record->event.pressed) {
 552               		.loc 1 393 0
 553 004c C281      		ldd r28,Z+2
 554 004e CC23      		tst r28
 555 0050 01F0      		breq .L70
 394:keyboards/Dactylv2led/keymaps/Default/keymap.c **** 			#ifdef AUDIO_ENABLE
 395:keyboards/Dactylv2led/keymaps/Default/keymap.c **** 			PLAY_NOTE_ARRAY(tone_dvorak, false, 0);
 396:keyboards/Dactylv2led/keymaps/Default/keymap.c **** 			#endif
 397:keyboards/Dactylv2led/keymaps/Default/keymap.c **** 			persistent_default_layer_set(1UL<<_DVORAK);
 556               		.loc 1 397 0
 557 0052 84E0      		ldi r24,lo8(4)
 558 0054 90E0      		ldi r25,0
 559               	.LVL36:
 560 0056 00C0      		rjmp .L92
 561               	.LVL37:
 562               	.L76:
 398:keyboards/Dactylv2led/keymaps/Default/keymap.c **** 		}
 399:keyboards/Dactylv2led/keymaps/Default/keymap.c **** 		return false;
 400:keyboards/Dactylv2led/keymaps/Default/keymap.c **** 		break;
 401:keyboards/Dactylv2led/keymaps/Default/keymap.c **** 	case LOWER:
 402:keyboards/Dactylv2led/keymaps/Default/keymap.c **** 		if (record->event.pressed) {
 563               		.loc 1 402 0
 564 0058 C281      		ldd r28,Z+2
 403:keyboards/Dactylv2led/keymaps/Default/keymap.c **** 			layer_on(_LOWER);
 565               		.loc 1 403 0
 566 005a 83E0      		ldi r24,lo8(3)
 567               	.LVL38:
 568 005c 00C0      		rjmp .L95
 569               	.LVL39:
 570               	.L75:
 404:keyboards/Dactylv2led/keymaps/Default/keymap.c **** 			update_tri_layer(_LOWER, _RAISE, _ADJUST);
 405:keyboards/Dactylv2led/keymaps/Default/keymap.c **** 		} else {
 406:keyboards/Dactylv2led/keymaps/Default/keymap.c **** 			layer_off(_LOWER);
 407:keyboards/Dactylv2led/keymaps/Default/keymap.c **** 			update_tri_layer(_LOWER, _RAISE, _ADJUST);
 408:keyboards/Dactylv2led/keymaps/Default/keymap.c **** 		}
 409:keyboards/Dactylv2led/keymaps/Default/keymap.c **** 		return false;
 410:keyboards/Dactylv2led/keymaps/Default/keymap.c **** 		break;
 411:keyboards/Dactylv2led/keymaps/Default/keymap.c **** 	case RAISE:
 412:keyboards/Dactylv2led/keymaps/Default/keymap.c **** 		if (record->event.pressed) {
 571               		.loc 1 412 0
 572 005e C281      		ldd r28,Z+2
 413:keyboards/Dactylv2led/keymaps/Default/keymap.c **** 			layer_on(_RAISE);
 573               		.loc 1 413 0
 574 0060 84E0      		ldi r24,lo8(4)
 575               	.LVL40:
 576               	.L95:
 412:keyboards/Dactylv2led/keymaps/Default/keymap.c **** 		if (record->event.pressed) {
 577               		.loc 1 412 0
 578 0062 CC23      		tst r28
 579 0064 01F0      		breq .L79
 580               		.loc 1 413 0
 581 0066 0E94 0000 		call layer_on
 582               	.LVL41:
 414:keyboards/Dactylv2led/keymaps/Default/keymap.c **** 			update_tri_layer(_LOWER, _RAISE, _ADJUST);
 583               		.loc 1 414 0
 584 006a 40E1      		ldi r20,lo8(16)
 585 006c 64E0      		ldi r22,lo8(4)
 586 006e 83E0      		ldi r24,lo8(3)
 587 0070 0E94 0000 		call update_tri_layer
 588               	.LVL42:
 589 0074 00C0      		rjmp .L91
 590               	.LVL43:
 591               	.L79:
 415:keyboards/Dactylv2led/keymaps/Default/keymap.c **** 		} else {
 416:keyboards/Dactylv2led/keymaps/Default/keymap.c **** 			layer_off(_RAISE);
 592               		.loc 1 416 0
 593 0076 0E94 0000 		call layer_off
 594               	.LVL44:
 417:keyboards/Dactylv2led/keymaps/Default/keymap.c **** 			update_tri_layer(_LOWER, _RAISE, _ADJUST);
 595               		.loc 1 417 0
 596 007a 40E1      		ldi r20,lo8(16)
 597 007c 64E0      		ldi r22,lo8(4)
 598 007e 83E0      		ldi r24,lo8(3)
 599 0080 0E94 0000 		call update_tri_layer
 600               	.LVL45:
 601 0084 00C0      		rjmp .L70
 602               	.LVL46:
 603               	.L77:
 418:keyboards/Dactylv2led/keymaps/Default/keymap.c **** 		}
 419:keyboards/Dactylv2led/keymaps/Default/keymap.c **** 		return false;
 420:keyboards/Dactylv2led/keymaps/Default/keymap.c **** 		break;
 421:keyboards/Dactylv2led/keymaps/Default/keymap.c **** 	case ADJUST:
 422:keyboards/Dactylv2led/keymaps/Default/keymap.c **** 		if (record->event.pressed) {
 604               		.loc 1 422 0
 605 0086 C281      		ldd r28,Z+2
 423:keyboards/Dactylv2led/keymaps/Default/keymap.c **** 			layer_on(_ADJUST);
 606               		.loc 1 423 0
 607 0088 80E1      		ldi r24,lo8(16)
 608               	.LVL47:
 422:keyboards/Dactylv2led/keymaps/Default/keymap.c **** 		if (record->event.pressed) {
 609               		.loc 1 422 0
 610 008a CC23      		tst r28
 611 008c 01F0      		breq .L80
 612               		.loc 1 423 0
 613 008e 0E94 0000 		call layer_on
 614               	.LVL48:
 615               	.L91:
 424:keyboards/Dactylv2led/keymaps/Default/keymap.c **** 		} else {
 425:keyboards/Dactylv2led/keymaps/Default/keymap.c **** 			layer_off(_ADJUST);
 426:keyboards/Dactylv2led/keymaps/Default/keymap.c **** 		}
 427:keyboards/Dactylv2led/keymaps/Default/keymap.c **** 		return false;
 616               		.loc 1 427 0
 617 0092 C0E0      		ldi r28,0
 618 0094 00C0      		rjmp .L70
 619               	.LVL49:
 620               	.L80:
 425:keyboards/Dactylv2led/keymaps/Default/keymap.c **** 			layer_off(_ADJUST);
 621               		.loc 1 425 0
 622 0096 0E94 0000 		call layer_off
 623               	.LVL50:
 624 009a 00C0      		rjmp .L70
 625               	.LVL51:
 626               	.L81:
 428:keyboards/Dactylv2led/keymaps/Default/keymap.c **** 		break;
 429:keyboards/Dactylv2led/keymaps/Default/keymap.c **** 	}
 430:keyboards/Dactylv2led/keymaps/Default/keymap.c **** 	return true;
 627               		.loc 1 430 0
 628 009c C1E0      		ldi r28,lo8(1)
 629               	.LVL52:
 630               	.L70:
 431:keyboards/Dactylv2led/keymaps/Default/keymap.c **** }
 631               		.loc 1 431 0
 632 009e 8C2F      		mov r24,r28
 633               	/* epilogue start */
 634 00a0 CF91      		pop r28
 635 00a2 0895      		ret
 636               		.cfi_endproc
 637               	.LFE21:
 639               		.section	.progmem.data.__m.3372,"a",@progbits
 642               	__m.3372:
 643 0000 01        		.byte	1
 644 0001 E3        		.byte	-29
 645 0002 01        		.byte	1
 646 0003 E0        		.byte	-32
 647 0004 01        		.byte	1
 648 0005 4F        		.byte	79
 649 0006 02        		.byte	2
 650 0007 4F        		.byte	79
 651 0008 02        		.byte	2
 652 0009 E0        		.byte	-32
 653 000a 02        		.byte	2
 654 000b E3        		.byte	-29
 655 000c 00        		.byte	0
 656               		.section	.progmem.data.__m.3370,"a",@progbits
 659               	__m.3370:
 660 0000 01        		.byte	1
 661 0001 E3        		.byte	-29
 662 0002 01        		.byte	1
 663 0003 E0        		.byte	-32
 664 0004 01        		.byte	1
 665 0005 50        		.byte	80
 666 0006 02        		.byte	2
 667 0007 50        		.byte	80
 668 0008 02        		.byte	2
 669 0009 E0        		.byte	-32
 670 000a 02        		.byte	2
 671 000b E3        		.byte	-29
 672 000c 00        		.byte	0
 673               		.section	.progmem.data.__m.3360,"a",@progbits
 676               	__m.3360:
 677 0000 01        		.byte	1
 678 0001 E3        		.byte	-29
 679 0002 01        		.byte	1
 680 0003 15        		.byte	21
 681 0004 02        		.byte	2
 682 0005 15        		.byte	21
 683 0006 74        		.byte	116
 684 0007 FF        		.byte	-1
 685 0008 02        		.byte	2
 686 0009 E3        		.byte	-29
 687 000a 74        		.byte	116
 688 000b FF        		.byte	-1
 689 000c 01        		.byte	1
 690 000d 06        		.byte	6
 691 000e 02        		.byte	2
 692 000f 06        		.byte	6
 693 0010 01        		.byte	1
 694 0011 10        		.byte	16
 695 0012 02        		.byte	2
 696 0013 10        		.byte	16
 697 0014 01        		.byte	1
 698 0015 07        		.byte	7
 699 0016 02        		.byte	2
 700 0017 07        		.byte	7
 701 0018 01        		.byte	1
 702 0019 28        		.byte	40
 703 001a 02        		.byte	2
 704 001b 28        		.byte	40
 705 001c 74        		.byte	116
 706 001d FF        		.byte	-1
 707 001e 01        		.byte	1
 708 001f 13        		.byte	19
 709 0020 02        		.byte	2
 710 0021 13        		.byte	19
 711 0022 01        		.byte	1
 712 0023 0C        		.byte	12
 713 0024 02        		.byte	2
 714 0025 0C        		.byte	12
 715 0026 01        		.byte	1
 716 0027 11        		.byte	17
 717 0028 02        		.byte	2
 718 0029 11        		.byte	17
 719 002a 01        		.byte	1
 720 002b 0A        		.byte	10
 721 002c 02        		.byte	2
 722 002d 0A        		.byte	10
 723 002e 01        		.byte	1
 724 002f 2C        		.byte	44
 725 0030 02        		.byte	2
 726 0031 2C        		.byte	44
 727 0032 01        		.byte	1
 728 0033 E0        		.byte	-32
 729 0034 01        		.byte	1
 730 0035 19        		.byte	25
 731 0036 02        		.byte	2
 732 0037 19        		.byte	25
 733 0038 02        		.byte	2
 734 0039 E0        		.byte	-32
 735 003a 00        		.byte	0
 736               		.section	.progmem.data.__m.3358,"a",@progbits
 739               	__m.3358:
 740 0000 01        		.byte	1
 741 0001 E3        		.byte	-29
 742 0002 01        		.byte	1
 743 0003 15        		.byte	21
 744 0004 02        		.byte	2
 745 0005 15        		.byte	21
 746 0006 02        		.byte	2
 747 0007 E3        		.byte	-29
 748 0008 01        		.byte	1
 749 0009 06        		.byte	6
 750 000a 02        		.byte	2
 751 000b 06        		.byte	6
 752 000c 01        		.byte	1
 753 000d 10        		.byte	16
 754 000e 02        		.byte	2
 755 000f 10        		.byte	16
 756 0010 01        		.byte	1
 757 0011 07        		.byte	7
 758 0012 02        		.byte	2
 759 0013 07        		.byte	7
 760 0014 01        		.byte	1
 761 0015 28        		.byte	40
 762 0016 02        		.byte	2
 763 0017 28        		.byte	40
 764 0018 74        		.byte	116
 765 0019 FF        		.byte	-1
 766 001a 74        		.byte	116
 767 001b FF        		.byte	-1
 768 001c 01        		.byte	1
 769 001d 0C        		.byte	12
 770 001e 02        		.byte	2
 771 001f 0C        		.byte	12
 772 0020 01        		.byte	1
 773 0021 13        		.byte	19
 774 0022 02        		.byte	2
 775 0023 13        		.byte	19
 776 0024 01        		.byte	1
 777 0025 06        		.byte	6
 778 0026 02        		.byte	2
 779 0027 06        		.byte	6
 780 0028 01        		.byte	1
 781 0029 12        		.byte	18
 782 002a 02        		.byte	2
 783 002b 12        		.byte	18
 784 002c 01        		.byte	1
 785 002d 11        		.byte	17
 786 002e 02        		.byte	2
 787 002f 11        		.byte	17
 788 0030 01        		.byte	1
 789 0031 09        		.byte	9
 790 0032 02        		.byte	2
 791 0033 09        		.byte	9
 792 0034 01        		.byte	1
 793 0035 0C        		.byte	12
 794 0036 02        		.byte	2
 795 0037 0C        		.byte	12
 796 0038 01        		.byte	1
 797 0039 0A        		.byte	10
 798 003a 02        		.byte	2
 799 003b 0A        		.byte	10
 800 003c 01        		.byte	1
 801 003d 2C        		.byte	44
 802 003e 02        		.byte	2
 803 003f 2C        		.byte	44
 804 0040 01        		.byte	1
 805 0041 38        		.byte	56
 806 0042 02        		.byte	2
 807 0043 38        		.byte	56
 808 0044 01        		.byte	1
 809 0045 04        		.byte	4
 810 0046 02        		.byte	2
 811 0047 04        		.byte	4
 812 0048 01        		.byte	1
 813 0049 0F        		.byte	15
 814 004a 02        		.byte	2
 815 004b 0F        		.byte	15
 816 004c 01        		.byte	1
 817 004d 0F        		.byte	15
 818 004e 02        		.byte	2
 819 004f 0F        		.byte	15
 820 0050 01        		.byte	1
 821 0051 28        		.byte	40
 822 0052 02        		.byte	2
 823 0053 28        		.byte	40
 824 0054 00        		.byte	0
 825               		.section	.progmem.data.__m.3356,"a",@progbits
 828               	__m.3356:
 829 0000 01        		.byte	1
 830 0001 E3        		.byte	-29
 831 0002 01        		.byte	1
 832 0003 15        		.byte	21
 833 0004 02        		.byte	2
 834 0005 15        		.byte	21
 835 0006 74        		.byte	116
 836 0007 FF        		.byte	-1
 837 0008 02        		.byte	2
 838 0009 E3        		.byte	-29
 839 000a 74        		.byte	116
 840 000b FF        		.byte	-1
 841 000c 01        		.byte	1
 842 000d 06        		.byte	6
 843 000e 02        		.byte	2
 844 000f 06        		.byte	6
 845 0010 01        		.byte	1
 846 0011 10        		.byte	16
 847 0012 02        		.byte	2
 848 0013 10        		.byte	16
 849 0014 01        		.byte	1
 850 0015 07        		.byte	7
 851 0016 02        		.byte	2
 852 0017 07        		.byte	7
 853 0018 01        		.byte	1
 854 0019 28        		.byte	40
 855 001a 02        		.byte	2
 856 001b 28        		.byte	40
 857 001c 00        		.byte	0
 858               		.section	.progmem.data.__m.3350,"a",@progbits
 861               	__m.3350:
 862 0000 01        		.byte	1
 863 0001 E0        		.byte	-32
 864 0002 01        		.byte	1
 865 0003 04        		.byte	4
 866 0004 02        		.byte	2
 867 0005 04        		.byte	4
 868 0006 01        		.byte	1
 869 0007 06        		.byte	6
 870 0008 02        		.byte	2
 871 0009 06        		.byte	6
 872 000a 02        		.byte	2
 873 000b E0        		.byte	-32
 874 000c 00        		.byte	0
 875               		.section	.progmem.data.__m.3348,"a",@progbits
 878               	__m.3348:
 879 0000 01        		.byte	1
 880 0001 E0        		.byte	-32
 881 0002 01        		.byte	1
 882 0003 19        		.byte	25
 883 0004 02        		.byte	2
 884 0005 19        		.byte	25
 885 0006 02        		.byte	2
 886 0007 E0        		.byte	-32
 887 0008 00        		.byte	0
 888               		.section	.progmem.data.__m.3346,"a",@progbits
 891               	__m.3346:
 892 0000 01        		.byte	1
 893 0001 E0        		.byte	-32
 894 0002 01        		.byte	1
 895 0003 06        		.byte	6
 896 0004 02        		.byte	2
 897 0005 06        		.byte	6
 898 0006 02        		.byte	2
 899 0007 E0        		.byte	-32
 900 0008 00        		.byte	0
 901               		.section	.progmem.data.__c.3340,"a",@progbits
 904               	__c.3340:
 905 0000 7573 6572 		.string	"username\001+pass\001+\001("
 905      6E61 6D65 
 905      012B 7061 
 905      7373 012B 
 905      0128 00
 906               		.section	.progmem.data.__m.3337,"a",@progbits
 909               	__m.3337:
 910 0000 75        		.byte	117
 911 0001 0A        		.byte	10
 912 0002 01        		.byte	1
 913 0003 2B        		.byte	43
 914 0004 02        		.byte	2
 915 0005 2B        		.byte	43
 916 0006 01        		.byte	1
 917 0007 0C        		.byte	12
 918 0008 02        		.byte	2
 919 0009 0C        		.byte	12
 920 000a 01        		.byte	1
 921 000b 11        		.byte	17
 922 000c 02        		.byte	2
 923 000d 11        		.byte	17
 924 000e 01        		.byte	1
 925 000f 2B        		.byte	43
 926 0010 02        		.byte	2
 927 0011 2B        		.byte	43
 928 0012 01        		.byte	1
 929 0013 28        		.byte	40
 930 0014 02        		.byte	2
 931 0015 28        		.byte	40
 932 0016 01        		.byte	1
 933 0017 2B        		.byte	43
 934 0018 02        		.byte	2
 935 0019 2B        		.byte	43
 936 001a 01        		.byte	1
 937 001b 2B        		.byte	43
 938 001c 02        		.byte	2
 939 001d 2B        		.byte	43
 940 001e 01        		.byte	1
 941 001f 2B        		.byte	43
 942 0020 02        		.byte	2
 943 0021 2B        		.byte	43
 944 0022 01        		.byte	1
 945 0023 0C        		.byte	12
 946 0024 02        		.byte	2
 947 0025 0C        		.byte	12
 948 0026 01        		.byte	1
 949 0027 11        		.byte	17
 950 0028 02        		.byte	2
 951 0029 11        		.byte	17
 952 002a 01        		.byte	1
 953 002b 2B        		.byte	43
 954 002c 02        		.byte	2
 955 002d 2B        		.byte	43
 956 002e 01        		.byte	1
 957 002f 28        		.byte	40
 958 0030 02        		.byte	2
 959 0031 28        		.byte	40
 960 0032 00        		.byte	0
 961               		.section	.progmem.data.__m.3334,"a",@progbits
 964               	__m.3334:
 965 0000 75        		.byte	117
 966 0001 0A        		.byte	10
 967 0002 01        		.byte	1
 968 0003 2B        		.byte	43
 969 0004 02        		.byte	2
 970 0005 2B        		.byte	43
 971 0006 01        		.byte	1
 972 0007 12        		.byte	18
 973 0008 02        		.byte	2
 974 0009 12        		.byte	18
 975 000a 01        		.byte	1
 976 000b 17        		.byte	23
 977 000c 02        		.byte	2
 978 000d 17        		.byte	23
 979 000e 01        		.byte	1
 980 000f 2B        		.byte	43
 981 0010 02        		.byte	2
 982 0011 2B        		.byte	43
 983 0012 01        		.byte	1
 984 0013 28        		.byte	40
 985 0014 02        		.byte	2
 986 0015 28        		.byte	40
 987 0016 01        		.byte	1
 988 0017 2B        		.byte	43
 989 0018 02        		.byte	2
 990 0019 2B        		.byte	43
 991 001a 01        		.byte	1
 992 001b 2B        		.byte	43
 993 001c 02        		.byte	2
 994 001d 2B        		.byte	43
 995 001e 01        		.byte	1
 996 001f 2B        		.byte	43
 997 0020 02        		.byte	2
 998 0021 2B        		.byte	43
 999 0022 01        		.byte	1
 1000 0023 1D        		.byte	29
 1001 0024 02        		.byte	2
 1002 0025 1D        		.byte	29
 1003 0026 01        		.byte	1
 1004 0027 15        		.byte	21
 1005 0028 02        		.byte	2
 1006 0029 15        		.byte	21
 1007 002a 01        		.byte	1
 1008 002b 2B        		.byte	43
 1009 002c 02        		.byte	2
 1010 002d 2B        		.byte	43
 1011 002e 01        		.byte	1
 1012 002f 28        		.byte	40
 1013 0030 02        		.byte	2
 1014 0031 28        		.byte	40
 1015 0032 00        		.byte	0
 1016               		.section	.progmem.data.__m.3331,"a",@progbits
 1019               	__m.3331:
 1020 0000 75        		.byte	117
 1021 0001 0A        		.byte	10
 1022 0002 01        		.byte	1
 1023 0003 2B        		.byte	43
 1024 0004 02        		.byte	2
 1025 0005 2B        		.byte	43
 1026 0006 01        		.byte	1
 1027 0007 12        		.byte	18
 1028 0008 02        		.byte	2
 1029 0009 12        		.byte	18
 1030 000a 01        		.byte	1
 1031 000b 13        		.byte	19
 1032 000c 02        		.byte	2
 1033 000d 13        		.byte	19
 1034 000e 01        		.byte	1
 1035 000f 2B        		.byte	43
 1036 0010 02        		.byte	2
 1037 0011 2B        		.byte	43
 1038 0012 01        		.byte	1
 1039 0013 28        		.byte	40
 1040 0014 02        		.byte	2
 1041 0015 28        		.byte	40
 1042 0016 01        		.byte	1
 1043 0017 2B        		.byte	43
 1044 0018 02        		.byte	2
 1045 0019 2B        		.byte	43
 1046 001a 01        		.byte	1
 1047 001b 2B        		.byte	43
 1048 001c 02        		.byte	2
 1049 001d 2B        		.byte	43
 1050 001e 01        		.byte	1
 1051 001f 2B        		.byte	43
 1052 0020 02        		.byte	2
 1053 0021 2B        		.byte	43
 1054 0022 01        		.byte	1
 1055 0023 1D        		.byte	29
 1056 0024 02        		.byte	2
 1057 0025 1D        		.byte	29
 1058 0026 01        		.byte	1
 1059 0027 15        		.byte	21
 1060 0028 02        		.byte	2
 1061 0029 15        		.byte	21
 1062 002a 01        		.byte	1
 1063 002b 2B        		.byte	43
 1064 002c 02        		.byte	2
 1065 002d 2B        		.byte	43
 1066 002e 01        		.byte	1
 1067 002f 28        		.byte	40
 1068 0030 02        		.byte	2
 1069 0031 28        		.byte	40
 1070 0032 00        		.byte	0
 1071               		.section	.progmem.data.__c.3328,"a",@progbits
 1074               	__c.3328:
 1075 0000 6970 636F 		.string	"ipconfig /all"
 1075      6E66 6967 
 1075      202F 616C 
 1075      6C00 
 1076               		.section	.progmem.data.__c.3325,"a",@progbits
 1079               	__c.3325:
 1080 0000 00        		.zero	1
 1081               		.section	.progmem.data.__m.3322,"a",@progbits
 1084               	__m.3322:
 1085 0000 75        		.byte	117
 1086 0001 0A        		.byte	10
 1087 0002 01        		.byte	1
 1088 0003 27        		.byte	39
 1089 0004 02        		.byte	2
 1090 0005 27        		.byte	39
 1091 0006 01        		.byte	1
 1092 0007 06        		.byte	6
 1093 0008 02        		.byte	2
 1094 0009 06        		.byte	6
 1095 000a 01        		.byte	1
 1096 000b 2B        		.byte	43
 1097 000c 02        		.byte	2
 1098 000d 2B        		.byte	43
 1099 000e 01        		.byte	1
 1100 000f 2B        		.byte	43
 1101 0010 02        		.byte	2
 1102 0011 2B        		.byte	43
 1103 0012 01        		.byte	1
 1104 0013 04        		.byte	4
 1105 0014 02        		.byte	2
 1106 0015 04        		.byte	4
 1107 0016 01        		.byte	1
 1108 0017 2B        		.byte	43
 1109 0018 02        		.byte	2
 1110 0019 2B        		.byte	43
 1111 001a 00        		.byte	0
 1112               		.section	.progmem.data.__m.3318,"a",@progbits
 1115               	__m.3318:
 1116 0000 01        		.byte	1
 1117 0001 1B        		.byte	27
 1118 0002 02        		.byte	2
 1119 0003 1B        		.byte	27
 1120 0004 00        		.byte	0
 1121               		.section	.progmem.data.__m.3314,"a",@progbits
 1124               	__m.3314:
 1125 0000 75        		.byte	117
 1126 0001 0A        		.byte	10
 1127 0002 01        		.byte	1
 1128 0003 E0        		.byte	-32
 1129 0004 01        		.byte	1
 1130 0005 17        		.byte	23
 1131 0006 02        		.byte	2
 1132 0007 17        		.byte	23
 1133 0008 01        		.byte	1
 1134 0009 19        		.byte	25
 1135 000a 02        		.byte	2
 1136 000b 19        		.byte	25
 1137 000c 01        		.byte	1
 1138 000d 28        		.byte	40
 1139 000e 02        		.byte	2
 1140 000f 28        		.byte	40
 1141 0010 02        		.byte	2
 1142 0011 E0        		.byte	-32
 1143 0012 00        		.byte	0
 1144               		.section	.progmem.data.__c.3311,"a",@progbits
 1147               	__c.3311:
 1148 0000 7777 772E 		.string	"www.support.xerox.com\001("
 1148      7375 7070 
 1148      6F72 742E 
 1148      7865 726F 
 1148      782E 636F 
 1149               		.section	.progmem.data.__c.3308,"a",@progbits
 1152               	__c.3308:
 1153 0000 656D 6169 		.string	"email"
 1153      6C00 
 1154               		.section	.progmem.data.__m.3305,"a",@progbits
 1157               	__m.3305:
 1158 0000 75        		.byte	117
 1159 0001 0A        		.byte	10
 1160 0002 01        		.byte	1
 1161 0003 04        		.byte	4
 1162 0004 02        		.byte	2
 1163 0005 04        		.byte	4
 1164 0006 01        		.byte	1
 1165 0007 07        		.byte	7
 1166 0008 02        		.byte	2
 1167 0009 07        		.byte	7
 1168 000a 01        		.byte	1
 1169 000b 10        		.byte	16
 1170 000c 02        		.byte	2
 1171 000d 10        		.byte	16
 1172 000e 01        		.byte	1
 1173 000f 0C        		.byte	12
 1174 0010 02        		.byte	2
 1175 0011 0C        		.byte	12
 1176 0012 01        		.byte	1
 1177 0013 11        		.byte	17
 1178 0014 02        		.byte	2
 1179 0015 11        		.byte	17
 1180 0016 74        		.byte	116
 1181 0017 4B        		.byte	75
 1182 0018 01        		.byte	1
 1183 0019 2B        		.byte	43
 1184 001a 02        		.byte	2
 1185 001b 2B        		.byte	43
 1186 001c 01        		.byte	1
 1187 001d 1E        		.byte	30
 1188 001e 02        		.byte	2
 1189 001f 1E        		.byte	30
 1190 0020 01        		.byte	1
 1191 0021 1E        		.byte	30
 1192 0022 02        		.byte	2
 1193 0023 1E        		.byte	30
 1194 0024 01        		.byte	1
 1195 0025 1E        		.byte	30
 1196 0026 02        		.byte	2
 1197 0027 1E        		.byte	30
 1198 0028 01        		.byte	1
 1199 0029 1E        		.byte	30
 1200 002a 02        		.byte	2
 1201 002b 1E        		.byte	30
 1202 002c 01        		.byte	1
 1203 002d 28        		.byte	40
 1204 002e 02        		.byte	2
 1205 002f 28        		.byte	40
 1206 0030 00        		.byte	0
 1207               		.section	.progmem.data.__m.3302,"a",@progbits
 1210               	__m.3302:
 1211 0000 01        		.byte	1
 1212 0001 E3        		.byte	-29
 1213 0002 01        		.byte	1
 1214 0003 2B        		.byte	43
 1215 0004 02        		.byte	2
 1216 0005 2B        		.byte	43
 1217 0006 02        		.byte	2
 1218 0007 E3        		.byte	-29
 1219 0008 00        		.byte	0
 1220               	.global	tap_dance_actions
 1221               		.section	.data.tap_dance_actions,"aw",@progbits
 1224               	tap_dance_actions:
 1225 0000 0000      		.word	0
 1226 0002 0000      		.word	gs(cmd_commands)
 1227 0004 0000      		.word	0
 1228 0006 0000 0000 		.zero	12
 1228      0000 0000 
 1228      0000 0000 
 1229 0012 0000      		.word	0
 1230 0014 0000      		.word	0
 1231 0016 0000      		.word	gs(cmd)
 1232 0018 0000      		.word	0
 1233 001a 0000 0000 		.zero	12
 1233      0000 0000 
 1233      0000 0000 
 1234 0026 0000      		.word	0
 1235 0028 0000      		.word	0
 1236 002a 0000      		.word	gs(SLSH_BSLSH)
 1237 002c 0000      		.word	0
 1238 002e 0000 0000 		.zero	12
 1238      0000 0000 
 1238      0000 0000 
 1239 003a 0000      		.word	0
 1240 003c 0000      		.word	0
 1241 003e 0000      		.word	gs(VirtualDesktop)
 1242 0040 0000      		.word	0
 1243 0042 0000 0000 		.zero	12
 1243      0000 0000 
 1243      0000 0000 
 1244 004e 0000      		.word	0
 1245               	.global	keymaps
 1246               		.section	.progmem.data.keymaps,"a",@progbits
 1249               	keymaps:
 1250 0000 2E00      		.word	46
 1251 0002 1E00      		.word	30
 1252 0004 1F00      		.word	31
 1253 0006 2000      		.word	32
 1254 0008 2100      		.word	33
 1255 000a 2200      		.word	34
 1256 000c 2B00      		.word	43
 1257 000e 1400      		.word	20
 1258 0010 1A00      		.word	26
 1259 0012 0800      		.word	8
 1260 0014 1500      		.word	21
 1261 0016 1700      		.word	23
 1262 0018 2800      		.word	40
 1263 001a 0400      		.word	4
 1264 001c 1600      		.word	22
 1265 001e 0700      		.word	7
 1266 0020 0900      		.word	9
 1267 0022 0A00      		.word	10
 1268 0024 E100      		.word	225
 1269 0026 1D00      		.word	29
 1270 0028 1B00      		.word	27
 1271 002a 0600      		.word	6
 1272 002c 1900      		.word	25
 1273 002e 0500      		.word	5
 1274 0030 2961      		.word	24873
 1275 0032 E200      		.word	226
 1276 0034 E300      		.word	227
 1277 0036 5000      		.word	80
 1278 0038 4F00      		.word	79
 1279 003a 0100      		.word	1
 1280 003c DD5C      		.word	23773
 1281 003e E000      		.word	224
 1282 0040 4E00      		.word	78
 1283 0042 4B00      		.word	75
 1284 0044 0000      		.word	0
 1285 0046 0000      		.word	0
 1286 0048 E100      		.word	225
 1287 004a 2A00      		.word	42
 1288 004c 0000      		.word	0
 1289 004e 0000      		.word	0
 1290 0050 0000      		.word	0
 1291 0052 0000      		.word	0
 1292 0054 2D00      		.word	45
 1293 0056 2700      		.word	39
 1294 0058 2600      		.word	38
 1295 005a 2500      		.word	37
 1296 005c 2400      		.word	36
 1297 005e 2300      		.word	35
 1298 0060 3100      		.word	49
 1299 0062 1300      		.word	19
 1300 0064 1200      		.word	18
 1301 0066 0C00      		.word	12
 1302 0068 1800      		.word	24
 1303 006a 1C00      		.word	28
 1304 006c 2800      		.word	40
 1305 006e 3300      		.word	51
 1306 0070 0F00      		.word	15
 1307 0072 0E00      		.word	14
 1308 0074 0D00      		.word	13
 1309 0076 0B00      		.word	11
 1310 0078 3500      		.word	53
 1311 007a 3800      		.word	56
 1312 007c 3700      		.word	55
 1313 007e 3600      		.word	54
 1314 0080 1000      		.word	16
 1315 0082 1100      		.word	17
 1316 0084 3400      		.word	52
 1317 0086 5100      		.word	81
 1318 0088 5200      		.word	82
 1319 008a 4F00      		.word	79
 1320 008c 5000      		.word	80
 1321 008e 0100      		.word	1
 1322 0090 DE5C      		.word	23774
 1323 0092 4C00      		.word	76
 1324 0094 4A00      		.word	74
 1325 0096 3500      		.word	53
 1326 0098 0000      		.word	0
 1327 009a 0000      		.word	0
 1328 009c 2800      		.word	40
 1329 009e 2C00      		.word	44
 1330 00a0 0000      		.word	0
 1331 00a2 0000      		.word	0
 1332 00a4 0000      		.word	0
 1333 00a6 0000      		.word	0
 1334 00a8 2E00      		.word	46
 1335 00aa 1E00      		.word	30
 1336 00ac 1F00      		.word	31
 1337 00ae 2000      		.word	32
 1338 00b0 2100      		.word	33
 1339 00b2 2200      		.word	34
 1340 00b4 2B45      		.word	17707
 1341 00b6 1400      		.word	20
 1342 00b8 1A00      		.word	26
 1343 00ba 0900      		.word	9
 1344 00bc 1300      		.word	19
 1345 00be 0A00      		.word	10
 1346 00c0 2840      		.word	16424
 1347 00c2 0400      		.word	4
 1348 00c4 1500      		.word	21
 1349 00c6 1600      		.word	22
 1350 00c8 1700      		.word	23
 1351 00ca 0700      		.word	7
 1352 00cc E100      		.word	225
 1353 00ce 1D00      		.word	29
 1354 00d0 1B00      		.word	27
 1355 00d2 0600      		.word	6
 1356 00d4 1900      		.word	25
 1357 00d6 0500      		.word	5
 1358 00d8 2961      		.word	24873
 1359 00da E200      		.word	226
 1360 00dc E300      		.word	227
 1361 00de 5000      		.word	80
 1362 00e0 4F00      		.word	79
 1363 00e2 2A00      		.word	42
 1364 00e4 DD5C      		.word	23773
 1365 00e6 E000      		.word	224
 1366 00e8 4E00      		.word	78
 1367 00ea 4B00      		.word	75
 1368 00ec 0000      		.word	0
 1369 00ee 0000      		.word	0
 1370 00f0 E100      		.word	225
 1371 00f2 2A00      		.word	42
 1372 00f4 0000      		.word	0
 1373 00f6 0000      		.word	0
 1374 00f8 0000      		.word	0
 1375 00fa 0000      		.word	0
 1376 00fc 2D00      		.word	45
 1377 00fe 2700      		.word	39
 1378 0100 2600      		.word	38
 1379 0102 2500      		.word	37
 1380 0104 2400      		.word	36
 1381 0106 2300      		.word	35
 1382 0108 3100      		.word	49
 1383 010a 3300      		.word	51
 1384 010c 1C00      		.word	28
 1385 010e 1800      		.word	24
 1386 0110 0F00      		.word	15
 1387 0112 0D00      		.word	13
 1388 0114 2800      		.word	40
 1389 0116 1200      		.word	18
 1390 0118 0C00      		.word	12
 1391 011a 0800      		.word	8
 1392 011c 1100      		.word	17
 1393 011e 0B00      		.word	11
 1394 0120 3500      		.word	53
 1395 0122 3800      		.word	56
 1396 0124 3700      		.word	55
 1397 0126 3600      		.word	54
 1398 0128 1000      		.word	16
 1399 012a 0E00      		.word	14
 1400 012c 3400      		.word	52
 1401 012e 5100      		.word	81
 1402 0130 5200      		.word	82
 1403 0132 4F00      		.word	79
 1404 0134 5000      		.word	80
 1405 0136 2C00      		.word	44
 1406 0138 DE5C      		.word	23774
 1407 013a 4C00      		.word	76
 1408 013c 4A00      		.word	74
 1409 013e 3500      		.word	53
 1410 0140 0000      		.word	0
 1411 0142 0000      		.word	0
 1412 0144 2800      		.word	40
 1413 0146 2C00      		.word	44
 1414 0148 0000      		.word	0
 1415 014a 0000      		.word	0
 1416 014c 0000      		.word	0
 1417 014e 0000      		.word	0
 1418 0150 2E00      		.word	46
 1419 0152 1E00      		.word	30
 1420 0154 1F00      		.word	31
 1421 0156 2000      		.word	32
 1422 0158 2100      		.word	33
 1423 015a 2200      		.word	34
 1424 015c 2B00      		.word	43
 1425 015e 3400      		.word	52
 1426 0160 3600      		.word	54
 1427 0162 3700      		.word	55
 1428 0164 1300      		.word	19
 1429 0166 1C00      		.word	28
 1430 0168 2961      		.word	24873
 1431 016a 0400      		.word	4
 1432 016c 1200      		.word	18
 1433 016e 0800      		.word	8
 1434 0170 1800      		.word	24
 1435 0172 0C00      		.word	12
 1436 0174 E100      		.word	225
 1437 0176 3300      		.word	51
 1438 0178 1400      		.word	20
 1439 017a 0D00      		.word	13
 1440 017c 0E00      		.word	14
 1441 017e 1B00      		.word	27
 1442 0180 2B45      		.word	17707
 1443 0182 E000      		.word	224
 1444 0184 E200      		.word	226
 1445 0186 E300      		.word	227
 1446 0188 DD5C      		.word	23773
 1447 018a 2C00      		.word	44
 1448 018c DD5C      		.word	23773
 1449 018e E000      		.word	224
 1450 0190 4E00      		.word	78
 1451 0192 4B00      		.word	75
 1452 0194 0000      		.word	0
 1453 0196 0000      		.word	0
 1454 0198 E100      		.word	225
 1455 019a 2A00      		.word	42
 1456 019c 0000      		.word	0
 1457 019e 0000      		.word	0
 1458 01a0 0000      		.word	0
 1459 01a2 0000      		.word	0
 1460 01a4 2D00      		.word	45
 1461 01a6 2700      		.word	39
 1462 01a8 2600      		.word	38
 1463 01aa 2500      		.word	37
 1464 01ac 2400      		.word	36
 1465 01ae 2300      		.word	35
 1466 01b0 2D00      		.word	45
 1467 01b2 0F00      		.word	15
 1468 01b4 1500      		.word	21
 1469 01b6 0600      		.word	6
 1470 01b8 0A00      		.word	10
 1471 01ba 0900      		.word	9
 1472 01bc 3800      		.word	56
 1473 01be 1600      		.word	22
 1474 01c0 1100      		.word	17
 1475 01c2 1700      		.word	23
 1476 01c4 0B00      		.word	11
 1477 01c6 0700      		.word	7
 1478 01c8 2840      		.word	16424
 1479 01ca 1D00      		.word	29
 1480 01cc 1900      		.word	25
 1481 01ce 1A00      		.word	26
 1482 01d0 1000      		.word	16
 1483 01d2 0500      		.word	5
 1484 01d4 4F00      		.word	79
 1485 01d6 5200      		.word	82
 1486 01d8 5100      		.word	81
 1487 01da 5000      		.word	80
 1488 01dc 5200      		.word	82
 1489 01de 2A00      		.word	42
 1490 01e0 DE5C      		.word	23774
 1491 01e2 4C00      		.word	76
 1492 01e4 4A00      		.word	74
 1493 01e6 3500      		.word	53
 1494 01e8 0000      		.word	0
 1495 01ea 0000      		.word	0
 1496 01ec 2800      		.word	40
 1497 01ee 2C00      		.word	44
 1498 01f0 0000      		.word	0
 1499 01f2 0000      		.word	0
 1500 01f4 0000      		.word	0
 1501 01f6 0000      		.word	0
 1502 01f8 0100      		.word	1
 1503 01fa 3A00      		.word	58
 1504 01fc 3B00      		.word	59
 1505 01fe 3C00      		.word	60
 1506 0200 3D00      		.word	61
 1507 0202 3E00      		.word	62
 1508 0204 0100      		.word	1
 1509 0206 1E02      		.word	542
 1510 0208 1F02      		.word	543
 1511 020a 2F02      		.word	559
 1512 020c 3002      		.word	560
 1513 020e 3102      		.word	561
 1514 0210 0100      		.word	1
 1515 0212 2002      		.word	544
 1516 0214 2102      		.word	545
 1517 0216 2602      		.word	550
 1518 0218 2702      		.word	551
 1519 021a 3500      		.word	53
 1520 021c 0100      		.word	1
 1521 021e 2202      		.word	546
 1522 0220 2302      		.word	547
 1523 0222 2F00      		.word	47
 1524 0224 3000      		.word	48
 1525 0226 3502      		.word	565
 1526 0228 005C      		.word	23552
 1527 022a 0100      		.word	1
 1528 022c 0100      		.word	1
 1529 022e 0100      		.word	1
 1530 0230 0100      		.word	1
 1531 0232 0100      		.word	1
 1532 0234 DD5C      		.word	23773
 1533 0236 E000      		.word	224
 1534 0238 4E00      		.word	78
 1535 023a 4B00      		.word	75
 1536 023c 0000      		.word	0
 1537 023e 0000      		.word	0
 1538 0240 E100      		.word	225
 1539 0242 2A00      		.word	42
 1540 0244 0000      		.word	0
 1541 0246 0000      		.word	0
 1542 0248 0000      		.word	0
 1543 024a 0000      		.word	0
 1544 024c 4400      		.word	68
 1545 024e 4300      		.word	67
 1546 0250 4200      		.word	66
 1547 0252 4100      		.word	65
 1548 0254 4000      		.word	64
 1549 0256 3F00      		.word	63
 1550 0258 4500      		.word	69
 1551 025a 2502      		.word	549
 1552 025c 2600      		.word	38
 1553 025e 2500      		.word	37
 1554 0260 2400      		.word	36
 1555 0262 5200      		.word	82
 1556 0264 0100      		.word	1
 1557 0266 2E02      		.word	558
 1558 0268 2300      		.word	35
 1559 026a 2200      		.word	34
 1560 026c 2100      		.word	33
 1561 026e 5100      		.word	81
 1562 0270 0100      		.word	1
 1563 0272 3100      		.word	49
 1564 0274 2000      		.word	32
 1565 0276 1F00      		.word	31
 1566 0278 1E00      		.word	30
 1567 027a 2402      		.word	548
 1568 027c 0100      		.word	1
 1569 027e 2E00      		.word	46
 1570 0280 2700      		.word	39
 1571 0282 3700      		.word	55
 1572 0284 0100      		.word	1
 1573 0286 0100      		.word	1
 1574 0288 DE5C      		.word	23774
 1575 028a 4C00      		.word	76
 1576 028c 4A00      		.word	74
 1577 028e 3500      		.word	53
 1578 0290 0000      		.word	0
 1579 0292 0000      		.word	0
 1580 0294 2800      		.word	40
 1581 0296 2C00      		.word	44
 1582 0298 0000      		.word	0
 1583 029a 0000      		.word	0
 1584 029c 0000      		.word	0
 1585 029e 0000      		.word	0
 1586 02a0 3500      		.word	53
 1587 02a2 1E00      		.word	30
 1588 02a4 1F00      		.word	31
 1589 02a6 2000      		.word	32
 1590 02a8 2100      		.word	33
 1591 02aa 2200      		.word	34
 1592 02ac 2500      		.word	37
 1593 02ae 1E00      		.word	30
 1594 02b0 0330      		.word	12291
 1595 02b2 1E00      		.word	30
 1596 02b4 1E00      		.word	30
 1597 02b6 1E00      		.word	30
 1598 02b8 2500      		.word	37
 1599 02ba 1E00      		.word	30
 1600 02bc 1E00      		.word	30
 1601 02be 1E00      		.word	30
 1602 02c0 1E00      		.word	30
 1603 02c2 C15C      		.word	23745
 1604 02c4 2500      		.word	37
 1605 02c6 1E00      		.word	30
 1606 02c8 1E00      		.word	30
 1607 02ca 1E00      		.word	30
 1608 02cc 1E00      		.word	30
 1609 02ce C05C      		.word	23744
 1610 02d0 005C      		.word	23552
 1611 02d2 1E00      		.word	30
 1612 02d4 1E00      		.word	30
 1613 02d6 1E00      		.word	30
 1614 02d8 1E00      		.word	30
 1615 02da 0100      		.word	1
 1616 02dc DD5C      		.word	23773
 1617 02de E000      		.word	224
 1618 02e0 4E00      		.word	78
 1619 02e2 4B00      		.word	75
 1620 02e4 0000      		.word	0
 1621 02e6 0000      		.word	0
 1622 02e8 E100      		.word	225
 1623 02ea 2A00      		.word	42
 1624 02ec 0000      		.word	0
 1625 02ee 0000      		.word	0
 1626 02f0 0000      		.word	0
 1627 02f2 0000      		.word	0
 1628 02f4 2D00      		.word	45
 1629 02f6 2700      		.word	39
 1630 02f8 2600      		.word	38
 1631 02fa 2500      		.word	37
 1632 02fc 2400      		.word	36
 1633 02fe 2300      		.word	35
 1634 0300 0000      		.word	0
 1635 0302 5600      		.word	86
 1636 0304 2300      		.word	35
 1637 0306 2200      		.word	34
 1638 0308 2100      		.word	33
 1639 030a 0000      		.word	0
 1640 030c 0000      		.word	0
 1641 030e 5700      		.word	87
 1642 0310 2000      		.word	32
 1643 0312 1F00      		.word	31
 1644 0314 1E00      		.word	30
 1645 0316 0000      		.word	0
 1646 0318 0000      		.word	0
 1647 031a 0000      		.word	0
 1648 031c 3700      		.word	55
 1649 031e 2700      		.word	39
 1650 0320 2700      		.word	39
 1651 0322 C05C      		.word	23744
 1652 0324 005C      		.word	23552
 1653 0326 0000      		.word	0
 1654 0328 0000      		.word	0
 1655 032a 5500      		.word	85
 1656 032c 5400      		.word	84
 1657 032e 0000      		.word	0
 1658 0330 DE5C      		.word	23774
 1659 0332 4C00      		.word	76
 1660 0334 4A00      		.word	74
 1661 0336 3500      		.word	53
 1662 0338 0000      		.word	0
 1663 033a 0000      		.word	0
 1664 033c 2800      		.word	40
 1665 033e 2C00      		.word	44
 1666 0340 0000      		.word	0
 1667 0342 0000      		.word	0
 1668 0344 0000      		.word	0
 1669 0346 0000      		.word	0
 1670 0348 0000 0000 		.zero	1848
 1670      0000 0000 
 1670      0000 0000 
 1670      0000 0000 
 1670      0000 0000 
 1671 0a80 DB5C      		.word	23771
 1672 0a82 C05C      		.word	23744
 1673 0a84 C15C      		.word	23745
 1674 0a86 C25C      		.word	23746
 1675 0a88 C45C      		.word	23748
 1676 0a8a C35C      		.word	23747
 1677 0a8c CB5C      		.word	23755
 1678 0a8e CC5C      		.word	23756
 1679 0a90 CD5C      		.word	23757
 1680 0a92 CE5C      		.word	23758
 1681 0a94 0100      		.word	1
 1682 0a96 0100      		.word	1
 1683 0a98 CF5C      		.word	23759
 1684 0a9a D05C      		.word	23760
 1685 0a9c D15C      		.word	23761
 1686 0a9e D25C      		.word	23762
 1687 0aa0 0100      		.word	1
 1688 0aa2 0100      		.word	1
 1689 0aa4 0100      		.word	1
 1690 0aa6 0100      		.word	1
 1691 0aa8 0100      		.word	1
 1692 0aaa 0100      		.word	1
 1693 0aac 0100      		.word	1
 1694 0aae 0100      		.word	1
 1695 0ab0 1E00      		.word	30
 1696 0ab2 1F00      		.word	31
 1697 0ab4 2000      		.word	32
 1698 0ab6 2100      		.word	33
 1699 0ab8 0100      		.word	1
 1700 0aba 0100      		.word	1
 1701 0abc 0100      		.word	1
 1702 0abe 0100      		.word	1
 1703 0ac0 0100      		.word	1
 1704 0ac2 0100      		.word	1
 1705 0ac4 0000      		.word	0
 1706 0ac6 0000      		.word	0
 1707 0ac8 0100      		.word	1
 1708 0aca 0100      		.word	1
 1709 0acc 0000      		.word	0
 1710 0ace 0000      		.word	0
 1711 0ad0 0000      		.word	0
 1712 0ad2 0000      		.word	0
 1713 0ad4 0100      		.word	1
 1714 0ad6 0100      		.word	1
 1715 0ad8 C75C      		.word	23751
 1716 0ada C85C      		.word	23752
 1717 0adc C55C      		.word	23749
 1718 0ade C65C      		.word	23750
 1719 0ae0 0100      		.word	1
 1720 0ae2 0100      		.word	1
 1721 0ae4 0100      		.word	1
 1722 0ae6 0100      		.word	1
 1723 0ae8 0100      		.word	1
 1724 0aea 0100      		.word	1
 1725 0aec 0100      		.word	1
 1726 0aee 0100      		.word	1
 1727 0af0 0100      		.word	1
 1728 0af2 0100      		.word	1
 1729 0af4 0100      		.word	1
 1730 0af6 0100      		.word	1
 1731 0af8 0100      		.word	1
 1732 0afa 0100      		.word	1
 1733 0afc 0100      		.word	1
 1734 0afe 0100      		.word	1
 1735 0b00 0100      		.word	1
 1736 0b02 0100      		.word	1
 1737 0b04 0100      		.word	1
 1738 0b06 0100      		.word	1
 1739 0b08 2500      		.word	37
 1740 0b0a 2400      		.word	36
 1741 0b0c 2300      		.word	35
 1742 0b0e 2200      		.word	34
 1743 0b10 0100      		.word	1
 1744 0b12 0100      		.word	1
 1745 0b14 0100      		.word	1
 1746 0b16 0100      		.word	1
 1747 0b18 0000      		.word	0
 1748 0b1a 0000      		.word	0
 1749 0b1c 0100      		.word	1
 1750 0b1e 0100      		.word	1
 1751 0b20 0000      		.word	0
 1752 0b22 0000      		.word	0
 1753 0b24 0000      		.word	0
 1754 0b26 0000      		.word	0
 1755               		.text
 1756               	.Letext0:
 1757               		.file 2 "/usr/lib/avr/include/stdint.h"
 1758               		.file 3 "./tmk_core/common/keyboard.h"
 1759               		.file 4 "./tmk_core/common/keycode.h"
 1760               		.file 5 "./tmk_core/common/action_code.h"
 1761               		.file 6 "./tmk_core/common/action_macro.h"
 1762               		.file 7 "./tmk_core/common/action.h"
 1763               		.file 8 "./tmk_core/common/report.h"
 1764               		.file 9 "./quantum/quantum_keycodes.h"
 1765               		.file 10 "./quantum/process_keycode/process_tap_dance.h"
 1766               		.file 11 "./tmk_core/common/action_util.h"
 1767               		.file 12 "./tmk_core/common/eeconfig.h"
 1768               		.file 13 "./tmk_core/common/action_layer.h"
 1769               		.file 14 "./quantum/quantum.h"